Archive member included because of file (symbol)

/Users/jkwang/Desktop/nacl_sdk/pepper_canary/lib/clang-newlib_x86_64/Release/liberror_handling.a(error_handling_x86_64.o)
                              clang-newlib/Release/debugging_x86_64.o (EHRequestExceptionsJson)
/Users/jkwang/Desktop/nacl_sdk/pepper_canary/lib/clang-newlib_x86_64/Release/liberror_handling.a(string_stream_x86_64.o)
                              /Users/jkwang/Desktop/nacl_sdk/pepper_canary/lib/clang-newlib_x86_64/Release/liberror_handling.a(error_handling_x86_64.o) (ssinit)
/Users/jkwang/Desktop/nacl_sdk/pepper_canary/toolchain/mac_pnacl/bin/../x86_64-nacl/lib/libppapi_stub.a(plugin_main_irt.o)
                              (main)
/Users/jkwang/Desktop/nacl_sdk/pepper_canary/toolchain/mac_pnacl/bin/../x86_64-nacl/lib/libppapi_stub.a(ppapi_plugin_main.o)
                              /Users/jkwang/Desktop/nacl_sdk/pepper_canary/toolchain/mac_pnacl/bin/../x86_64-nacl/lib/libppapi_stub.a(plugin_main_irt.o) (PpapiPluginMain)
/Users/jkwang/Desktop/nacl_sdk/pepper_canary/toolchain/mac_pnacl/bin/../x86_64-nacl/lib/libppapi_stub.a(ppapi_plugin_start.o)
                              /Users/jkwang/Desktop/nacl_sdk/pepper_canary/toolchain/mac_pnacl/bin/../x86_64-nacl/lib/libppapi_stub.a(ppapi_plugin_main.o) (PpapiPluginStart)
/Users/jkwang/Desktop/nacl_sdk/pepper_canary/toolchain/mac_pnacl/bin/../x86_64-nacl/lib/libppapi_stub.a(thread_creator.o)
                              /Users/jkwang/Desktop/nacl_sdk/pepper_canary/toolchain/mac_pnacl/bin/../x86_64-nacl/lib/libppapi_stub.a(ppapi_plugin_start.o) (__nacl_register_thread_creator)
/Users/jkwang/Desktop/nacl_sdk/pepper_canary/toolchain/mac_pnacl/bin/../x86_64-nacl/lib/libpthread.a(nc_thread.o)
                              clang-newlib/Release/debugging_x86_64.o (pthread_create)
/Users/jkwang/Desktop/nacl_sdk/pepper_canary/toolchain/mac_pnacl/bin/../x86_64-nacl/lib/libpthread.a(nc_mutex.o)
                              /Users/jkwang/Desktop/nacl_sdk/pepper_canary/toolchain/mac_pnacl/bin/../x86_64-nacl/lib/libpthread.a(nc_thread.o) (pthread_mutex_destroy)
/Users/jkwang/Desktop/nacl_sdk/pepper_canary/toolchain/mac_pnacl/bin/../x86_64-nacl/lib/libpthread.a(nc_condvar.o)
                              /Users/jkwang/Desktop/nacl_sdk/pepper_canary/toolchain/mac_pnacl/bin/../x86_64-nacl/lib/libpthread.a(nc_thread.o) (pthread_cond_destroy)
/Users/jkwang/Desktop/nacl_sdk/pepper_canary/toolchain/mac_pnacl/bin/../x86_64-nacl/lib/libpthread.a(valgrind_annotations.o)
                              /Users/jkwang/Desktop/nacl_sdk/pepper_canary/toolchain/mac_pnacl/bin/../x86_64-nacl/lib/libpthread.a(nc_thread.o) (NACL_AnnotateCondVarWait)
/Users/jkwang/Desktop/nacl_sdk/pepper_canary/toolchain/mac_pnacl/bin/../x86_64-nacl/lib/libpthread.a(nc_init_irt.o)
                              /Users/jkwang/Desktop/nacl_sdk/pepper_canary/toolchain/mac_pnacl/bin/../x86_64-nacl/lib/libpthread.a(nc_mutex.o) (__libnacl_irt_futex)
/Users/jkwang/Desktop/nacl_sdk/pepper_canary/toolchain/mac_pnacl/bin/../x86_64-nacl/lib/libnacl.a(nacl_irt.o)
                              /Users/jkwang/Desktop/nacl_sdk/pepper_canary/toolchain/mac_pnacl/bin/../x86_64-nacl/lib/libpthread.a(nc_init_irt.o) (__libnacl_mandatory_irt_query)
/Users/jkwang/Desktop/nacl_sdk/pepper_canary/toolchain/mac_pnacl/bin/../x86_64-nacl/lib/libnacl.a(_exit.o)
                              (_exit)
/Users/jkwang/Desktop/nacl_sdk/pepper_canary/toolchain/mac_pnacl/bin/../x86_64-nacl/lib/libnacl.a(mmap.o)
                              /Users/jkwang/Desktop/nacl_sdk/pepper_canary/lib/clang-newlib_x86_64/Release/liberror_handling.a(error_handling_x86_64.o) (mmap)
/Users/jkwang/Desktop/nacl_sdk/pepper_canary/toolchain/mac_pnacl/bin/../x86_64-nacl/lib/libnacl.a(munmap.o)
                              /Users/jkwang/Desktop/nacl_sdk/pepper_canary/lib/clang-newlib_x86_64/Release/liberror_handling.a(error_handling_x86_64.o) (munmap)
/Users/jkwang/Desktop/nacl_sdk/pepper_canary/toolchain/mac_pnacl/bin/../x86_64-nacl/lib/libnacl.a(nacl_interface_query.o)
                              /Users/jkwang/Desktop/nacl_sdk/pepper_canary/lib/clang-newlib_x86_64/Release/liberror_handling.a(error_handling_x86_64.o) (nacl_interface_query)
/Users/jkwang/Desktop/nacl_sdk/pepper_canary/toolchain/mac_pnacl/bin/../x86_64-nacl/lib/libnacl.a(write.o)
                              /Users/jkwang/Desktop/nacl_sdk/pepper_canary/toolchain/mac_pnacl/bin/../x86_64-nacl/lib/libppapi_stub.a(ppapi_plugin_start.o) (write)
/Users/jkwang/Desktop/nacl_sdk/pepper_canary/toolchain/mac_pnacl/bin/../x86_64-nacl/lib/libnacl.a(environ.o)
                              /Users/jkwang/Desktop/nacl_sdk/pepper_canary/toolchain/mac_pnacl/bin/../x86_64-nacl/lib/libppapi_stub.a(ppapi_plugin_start.o) (environ)
/Users/jkwang/Desktop/nacl_sdk/pepper_canary/toolchain/mac_pnacl/bin/../x86_64-nacl/lib/libnacl.a(malloc.o)
                              /Users/jkwang/Desktop/nacl_sdk/pepper_canary/toolchain/mac_pnacl/bin/../x86_64-nacl/lib/libpthread.a(nc_thread.o) (calloc)
/Users/jkwang/Desktop/nacl_sdk/pepper_canary/toolchain/mac_pnacl/bin/../x86_64-nacl/lib/libnacl.a(start.o)
                              (_start)
/Users/jkwang/Desktop/nacl_sdk/pepper_canary/toolchain/mac_pnacl/bin/../x86_64-nacl/lib/libnacl.a(nacl_add_tp.o)
                              clang-newlib/Release/debugging_unstripped_x86_64.nexe (__nacl_add_tp)
/Users/jkwang/Desktop/nacl_sdk/pepper_canary/toolchain/mac_pnacl/bin/../x86_64-nacl/lib/libnacl.a(nacl_read_tp.o)
                              clang-newlib/Release/debugging_unstripped_x86_64.nexe (__nacl_read_tp)
/Users/jkwang/Desktop/nacl_sdk/pepper_canary/toolchain/mac_pnacl/bin/../x86_64-nacl/lib/libnacl.a(pthread_initialize_minimal.o)
                              /Users/jkwang/Desktop/nacl_sdk/pepper_canary/toolchain/mac_pnacl/bin/../x86_64-nacl/lib/libpthread.a(nc_thread.o) (__pthread_initialize_minimal)
/Users/jkwang/Desktop/nacl_sdk/pepper_canary/toolchain/mac_pnacl/bin/../x86_64-nacl/lib/libnacl.a(tls.o)
                              /Users/jkwang/Desktop/nacl_sdk/pepper_canary/toolchain/mac_pnacl/bin/../x86_64-nacl/lib/libpthread.a(nc_thread.o) (__nacl_tls_combined_size)
/Users/jkwang/Desktop/nacl_sdk/pepper_canary/toolchain/mac_pnacl/bin/../x86_64-nacl/lib/libnacl.a(nacl_irt_init.o)
                              /Users/jkwang/Desktop/nacl_sdk/pepper_canary/toolchain/mac_pnacl/bin/../x86_64-nacl/lib/libnacl.a(start.o) (__libnacl_irt_init)
/Users/jkwang/Desktop/nacl_sdk/pepper_canary/toolchain/mac_pnacl/bin/../x86_64-nacl/lib/libnacl.a(nacl_tls_get.o)
                              /Users/jkwang/Desktop/nacl_sdk/pepper_canary/toolchain/mac_pnacl/bin/../x86_64-nacl/lib/libnacl.a(nacl_add_tp.o) (nacl_tls_get)
/Users/jkwang/Desktop/nacl_sdk/pepper_canary/toolchain/mac_pnacl/bin/../x86_64-nacl/lib/libnacl.a(nacl_tls_init.o)
                              /Users/jkwang/Desktop/nacl_sdk/pepper_canary/toolchain/mac_pnacl/bin/../x86_64-nacl/lib/libnacl.a(pthread_initialize_minimal.o) (nacl_tls_init)
/Users/jkwang/Desktop/nacl_sdk/pepper_canary/toolchain/mac_pnacl/bin/../x86_64-nacl/lib/libnacl.a(abort.o)
                              /Users/jkwang/Desktop/nacl_sdk/pepper_canary/toolchain/mac_pnacl/bin/../x86_64-nacl/lib/libnacl.a(malloc.o) (abort)
/Users/jkwang/Desktop/nacl_sdk/pepper_canary/toolchain/mac_pnacl/bin/../x86_64-nacl/lib/libnacl.a(sched_yield.o)
                              /Users/jkwang/Desktop/nacl_sdk/pepper_canary/toolchain/mac_pnacl/bin/../x86_64-nacl/lib/libnacl.a(malloc.o) (sched_yield)
/Users/jkwang/Desktop/nacl_sdk/pepper_canary/toolchain/mac_pnacl/bin/../x86_64-nacl/lib/libnacl.a(sysconf.o)
                              /Users/jkwang/Desktop/nacl_sdk/pepper_canary/toolchain/mac_pnacl/bin/../x86_64-nacl/lib/libnacl.a(malloc.o) (sysconf)
/Users/jkwang/Desktop/nacl_sdk/pepper_canary/toolchain/mac_pnacl/bin/../x86_64-nacl/lib/libcrt_common.a(lib_a-atexit.o)
                              /Users/jkwang/Desktop/nacl_sdk/pepper_canary/toolchain/mac_pnacl/bin/../x86_64-nacl/lib/libnacl.a(start.o) (atexit)
/Users/jkwang/Desktop/nacl_sdk/pepper_canary/toolchain/mac_pnacl/bin/../x86_64-nacl/lib/libcrt_common.a(lib_a-errno.o)
                              /Users/jkwang/Desktop/nacl_sdk/pepper_canary/toolchain/mac_pnacl/bin/../x86_64-nacl/lib/libnacl.a(nacl_irt.o) (__errno)
/Users/jkwang/Desktop/nacl_sdk/pepper_canary/toolchain/mac_pnacl/bin/../x86_64-nacl/lib/libcrt_common.a(lib_a-exit.o)
                              (exit)
/Users/jkwang/Desktop/nacl_sdk/pepper_canary/toolchain/mac_pnacl/bin/../x86_64-nacl/lib/libcrt_common.a(lib_a-fflush.o)
                              clang-newlib/Release/debugging_x86_64.o (fflush)
/Users/jkwang/Desktop/nacl_sdk/pepper_canary/toolchain/mac_pnacl/bin/../x86_64-nacl/lib/libcrt_common.a(lib_a-findfp.o)
                              /Users/jkwang/Desktop/nacl_sdk/pepper_canary/toolchain/mac_pnacl/bin/../x86_64-nacl/lib/libcrt_common.a(lib_a-fflush.o) (__sinit)
/Users/jkwang/Desktop/nacl_sdk/pepper_canary/toolchain/mac_pnacl/bin/../x86_64-nacl/lib/libcrt_common.a(lib_a-fini.o)
                              /Users/jkwang/Desktop/nacl_sdk/pepper_canary/toolchain/mac_pnacl/bin/../x86_64-nacl/lib/libnacl.a(start.o) (__libc_fini_array)
/Users/jkwang/Desktop/nacl_sdk/pepper_canary/toolchain/mac_pnacl/bin/../x86_64-nacl/lib/libcrt_common.a(lib_a-fprintf.o)
                              clang-newlib/Release/debugging_x86_64.o (fprintf)
/Users/jkwang/Desktop/nacl_sdk/pepper_canary/toolchain/mac_pnacl/bin/../x86_64-nacl/lib/libcrt_common.a(lib_a-fwalk.o)
                              /Users/jkwang/Desktop/nacl_sdk/pepper_canary/toolchain/mac_pnacl/bin/../x86_64-nacl/lib/libcrt_common.a(lib_a-findfp.o) (_fwalk)
/Users/jkwang/Desktop/nacl_sdk/pepper_canary/toolchain/mac_pnacl/bin/../x86_64-nacl/lib/libcrt_common.a(lib_a-fwrite.o)
                              /Users/jkwang/Desktop/nacl_sdk/pepper_canary/lib/clang-newlib_x86_64/Release/liberror_handling.a(error_handling_x86_64.o) (fwrite)
/Users/jkwang/Desktop/nacl_sdk/pepper_canary/toolchain/mac_pnacl/bin/../x86_64-nacl/lib/libcrt_common.a(lib_a-getenv.o)
                              /Users/jkwang/Desktop/nacl_sdk/pepper_canary/toolchain/mac_pnacl/bin/../x86_64-nacl/lib/libpthread.a(valgrind_annotations.o) (getenv)
/Users/jkwang/Desktop/nacl_sdk/pepper_canary/toolchain/mac_pnacl/bin/../x86_64-nacl/lib/libcrt_common.a(lib_a-getenv_r.o)
                              /Users/jkwang/Desktop/nacl_sdk/pepper_canary/toolchain/mac_pnacl/bin/../x86_64-nacl/lib/libcrt_common.a(lib_a-getenv.o) (_findenv_r)
/Users/jkwang/Desktop/nacl_sdk/pepper_canary/toolchain/mac_pnacl/bin/../x86_64-nacl/lib/libcrt_common.a(lib_a-impure.o)
                              /Users/jkwang/Desktop/nacl_sdk/pepper_canary/toolchain/mac_pnacl/bin/../x86_64-nacl/lib/libpthread.a(nc_thread.o) (__newlib_thread_exit)
/Users/jkwang/Desktop/nacl_sdk/pepper_canary/toolchain/mac_pnacl/bin/../x86_64-nacl/lib/libcrt_common.a(lib_a-init.o)
                              /Users/jkwang/Desktop/nacl_sdk/pepper_canary/toolchain/mac_pnacl/bin/../x86_64-nacl/lib/libnacl.a(start.o) (__libc_init_array)
/Users/jkwang/Desktop/nacl_sdk/pepper_canary/toolchain/mac_pnacl/bin/../x86_64-nacl/lib/libcrt_common.a(lib_a-memcpy.o)
                              /Users/jkwang/Desktop/nacl_sdk/pepper_canary/lib/clang-newlib_x86_64/Release/liberror_handling.a(string_stream_x86_64.o) (memcpy)
/Users/jkwang/Desktop/nacl_sdk/pepper_canary/toolchain/mac_pnacl/bin/../x86_64-nacl/lib/libcrt_common.a(lib_a-memset.o)
                              /Users/jkwang/Desktop/nacl_sdk/pepper_canary/toolchain/mac_pnacl/bin/../x86_64-nacl/lib/libnacl.a(malloc.o) (memset)
/Users/jkwang/Desktop/nacl_sdk/pepper_canary/toolchain/mac_pnacl/bin/../x86_64-nacl/lib/libcrt_common.a(lib_a-sleep.o)
                              /Users/jkwang/Desktop/nacl_sdk/pepper_canary/lib/clang-newlib_x86_64/Release/liberror_handling.a(error_handling_x86_64.o) (sleep)
/Users/jkwang/Desktop/nacl_sdk/pepper_canary/toolchain/mac_pnacl/bin/../x86_64-nacl/lib/libcrt_common.a(lib_a-stdio.o)
                              /Users/jkwang/Desktop/nacl_sdk/pepper_canary/toolchain/mac_pnacl/bin/../x86_64-nacl/lib/libcrt_common.a(lib_a-findfp.o) (__sclose)
/Users/jkwang/Desktop/nacl_sdk/pepper_canary/toolchain/mac_pnacl/bin/../x86_64-nacl/lib/libcrt_common.a(lib_a-strcat.o)
                              clang-newlib/Release/debugging_x86_64.o (strcat)
/Users/jkwang/Desktop/nacl_sdk/pepper_canary/toolchain/mac_pnacl/bin/../x86_64-nacl/lib/libcrt_common.a(lib_a-strcmp.o)
                              clang-newlib/Release/debugging_x86_64.o (strcmp)
/Users/jkwang/Desktop/nacl_sdk/pepper_canary/toolchain/mac_pnacl/bin/../x86_64-nacl/lib/libcrt_common.a(lib_a-strcpy.o)
                              /Users/jkwang/Desktop/nacl_sdk/pepper_canary/toolchain/mac_pnacl/bin/../x86_64-nacl/lib/libcrt_common.a(lib_a-strcat.o) (strcpy)
/Users/jkwang/Desktop/nacl_sdk/pepper_canary/toolchain/mac_pnacl/bin/../x86_64-nacl/lib/libcrt_common.a(lib_a-strlen.o)
                              clang-newlib/Release/debugging_x86_64.o (strlen)
/Users/jkwang/Desktop/nacl_sdk/pepper_canary/toolchain/mac_pnacl/bin/../x86_64-nacl/lib/libcrt_common.a(lib_a-strncmp.o)
                              /Users/jkwang/Desktop/nacl_sdk/pepper_canary/toolchain/mac_pnacl/bin/../x86_64-nacl/lib/libcrt_common.a(lib_a-getenv_r.o) (strncmp)
/Users/jkwang/Desktop/nacl_sdk/pepper_canary/toolchain/mac_pnacl/bin/../x86_64-nacl/lib/libcrt_common.a(lib_a-vfprintf.o)
                              /Users/jkwang/Desktop/nacl_sdk/pepper_canary/toolchain/mac_pnacl/bin/../x86_64-nacl/lib/libcrt_common.a(lib_a-fprintf.o) (_vfprintf_r)
/Users/jkwang/Desktop/nacl_sdk/pepper_canary/toolchain/mac_pnacl/bin/../x86_64-nacl/lib/libcrt_common.a(lib_a-vsnprintf.o)
                              /Users/jkwang/Desktop/nacl_sdk/pepper_canary/lib/clang-newlib_x86_64/Release/liberror_handling.a(string_stream_x86_64.o) (vsnprintf)
/Users/jkwang/Desktop/nacl_sdk/pepper_canary/toolchain/mac_pnacl/bin/../x86_64-nacl/lib/libcrt_common.a(lib_a-vsprintf.o)
                              /Users/jkwang/Desktop/nacl_sdk/pepper_canary/lib/clang-newlib_x86_64/Release/liberror_handling.a(string_stream_x86_64.o) (vsprintf)
/Users/jkwang/Desktop/nacl_sdk/pepper_canary/toolchain/mac_pnacl/bin/../x86_64-nacl/lib/libcrt_common.a(lib_a-wcrtomb.o)
                              /Users/jkwang/Desktop/nacl_sdk/pepper_canary/toolchain/mac_pnacl/bin/../x86_64-nacl/lib/libcrt_common.a(lib_a-vfprintf.o) (_wcrtomb_r)
/Users/jkwang/Desktop/nacl_sdk/pepper_canary/toolchain/mac_pnacl/bin/../x86_64-nacl/lib/libcrt_common.a(lib_a-wcsrtombs.o)
                              /Users/jkwang/Desktop/nacl_sdk/pepper_canary/toolchain/mac_pnacl/bin/../x86_64-nacl/lib/libcrt_common.a(lib_a-vfprintf.o) (_wcsrtombs_r)
/Users/jkwang/Desktop/nacl_sdk/pepper_canary/toolchain/mac_pnacl/bin/../x86_64-nacl/lib/libcrt_common.a(lib_a-wctomb_r.o)
                              /Users/jkwang/Desktop/nacl_sdk/pepper_canary/toolchain/mac_pnacl/bin/../x86_64-nacl/lib/libcrt_common.a(lib_a-wcrtomb.o) (__wctomb)
/Users/jkwang/Desktop/nacl_sdk/pepper_canary/toolchain/mac_pnacl/bin/../x86_64-nacl/lib/libcrt_common.a(lib_a-wsetup.o)
                              /Users/jkwang/Desktop/nacl_sdk/pepper_canary/toolchain/mac_pnacl/bin/../x86_64-nacl/lib/libcrt_common.a(lib_a-vfprintf.o) (__swsetup_r)
/Users/jkwang/Desktop/nacl_sdk/pepper_canary/toolchain/mac_pnacl/bin/../x86_64-nacl/lib/libcrt_common.a(lib_a-__atexit.o)
                              /Users/jkwang/Desktop/nacl_sdk/pepper_canary/toolchain/mac_pnacl/bin/../x86_64-nacl/lib/libcrt_common.a(lib_a-atexit.o) (__register_exitproc)
/Users/jkwang/Desktop/nacl_sdk/pepper_canary/toolchain/mac_pnacl/bin/../x86_64-nacl/lib/libcrt_common.a(lib_a-__call_atexit.o)
                              /Users/jkwang/Desktop/nacl_sdk/pepper_canary/toolchain/mac_pnacl/bin/../x86_64-nacl/lib/libcrt_common.a(lib_a-__atexit.o) (__atexit_lock)
/Users/jkwang/Desktop/nacl_sdk/pepper_canary/toolchain/mac_pnacl/bin/../x86_64-nacl/lib/libcrt_common.a(lib_a-dtoa.o)
                              /Users/jkwang/Desktop/nacl_sdk/pepper_canary/toolchain/mac_pnacl/bin/../x86_64-nacl/lib/libcrt_common.a(lib_a-vfprintf.o) (_dtoa_r)
/Users/jkwang/Desktop/nacl_sdk/pepper_canary/toolchain/mac_pnacl/bin/../x86_64-nacl/lib/libcrt_common.a(lib_a-envlock.o)
                              /Users/jkwang/Desktop/nacl_sdk/pepper_canary/toolchain/mac_pnacl/bin/../x86_64-nacl/lib/libcrt_common.a(lib_a-getenv_r.o) (__env_lock)
/Users/jkwang/Desktop/nacl_sdk/pepper_canary/toolchain/mac_pnacl/bin/../x86_64-nacl/lib/libcrt_common.a(lib_a-fclose.o)
                              /Users/jkwang/Desktop/nacl_sdk/pepper_canary/toolchain/mac_pnacl/bin/../x86_64-nacl/lib/libcrt_common.a(lib_a-findfp.o) (_fclose_r)
/Users/jkwang/Desktop/nacl_sdk/pepper_canary/toolchain/mac_pnacl/bin/../x86_64-nacl/lib/libcrt_common.a(lib_a-fvwrite.o)
                              /Users/jkwang/Desktop/nacl_sdk/pepper_canary/toolchain/mac_pnacl/bin/../x86_64-nacl/lib/libcrt_common.a(lib_a-fwrite.o) (__sfvwrite_r)
/Users/jkwang/Desktop/nacl_sdk/pepper_canary/toolchain/mac_pnacl/bin/../x86_64-nacl/lib/libcrt_common.a(lib_a-locale.o)
                              /Users/jkwang/Desktop/nacl_sdk/pepper_canary/toolchain/mac_pnacl/bin/../x86_64-nacl/lib/libcrt_common.a(lib_a-vfprintf.o) (__locale_charset)
/Users/jkwang/Desktop/nacl_sdk/pepper_canary/toolchain/mac_pnacl/bin/../x86_64-nacl/lib/libcrt_common.a(lib_a-makebuf.o)
                              /Users/jkwang/Desktop/nacl_sdk/pepper_canary/toolchain/mac_pnacl/bin/../x86_64-nacl/lib/libcrt_common.a(lib_a-wsetup.o) (__smakebuf_r)
/Users/jkwang/Desktop/nacl_sdk/pepper_canary/toolchain/mac_pnacl/bin/../x86_64-nacl/lib/libcrt_common.a(lib_a-mbtowc_r.o)
                              /Users/jkwang/Desktop/nacl_sdk/pepper_canary/toolchain/mac_pnacl/bin/../x86_64-nacl/lib/libcrt_common.a(lib_a-locale.o) (__ascii_mbtowc)
/Users/jkwang/Desktop/nacl_sdk/pepper_canary/toolchain/mac_pnacl/bin/../x86_64-nacl/lib/libcrt_common.a(lib_a-memchr.o)
                              /Users/jkwang/Desktop/nacl_sdk/pepper_canary/toolchain/mac_pnacl/bin/../x86_64-nacl/lib/libcrt_common.a(lib_a-vfprintf.o) (memchr)
/Users/jkwang/Desktop/nacl_sdk/pepper_canary/toolchain/mac_pnacl/bin/../x86_64-nacl/lib/libcrt_common.a(lib_a-memmove.o)
                              /Users/jkwang/Desktop/nacl_sdk/pepper_canary/toolchain/mac_pnacl/bin/../x86_64-nacl/lib/libcrt_common.a(lib_a-fvwrite.o) (memmove)
/Users/jkwang/Desktop/nacl_sdk/pepper_canary/toolchain/mac_pnacl/bin/../x86_64-nacl/lib/libcrt_common.a(lib_a-mprec.o)
                              /Users/jkwang/Desktop/nacl_sdk/pepper_canary/toolchain/mac_pnacl/bin/../x86_64-nacl/lib/libcrt_common.a(lib_a-dtoa.o) (_Balloc)
/Users/jkwang/Desktop/nacl_sdk/pepper_canary/toolchain/mac_pnacl/bin/../x86_64-nacl/lib/libcrt_common.a(lib_a-s_fpclassify.o)
                              /Users/jkwang/Desktop/nacl_sdk/pepper_canary/toolchain/mac_pnacl/bin/../x86_64-nacl/lib/libcrt_common.a(lib_a-vfprintf.o) (__fpclassifyd)
/Users/jkwang/Desktop/nacl_sdk/pepper_canary/toolchain/mac_pnacl/bin/../x86_64-nacl/lib/libcrt_common.a(lib_a-s_frexp.o)
                              /Users/jkwang/Desktop/nacl_sdk/pepper_canary/toolchain/mac_pnacl/bin/../x86_64-nacl/lib/libcrt_common.a(lib_a-vfprintf.o) (frexp)
/Users/jkwang/Desktop/nacl_sdk/pepper_canary/toolchain/mac_pnacl/bin/../x86_64-nacl/lib/libcrt_common.a(lib_a-strcasecmp.o)
                              /Users/jkwang/Desktop/nacl_sdk/pepper_canary/toolchain/mac_pnacl/bin/../x86_64-nacl/lib/libcrt_common.a(lib_a-locale.o) (strcasecmp)
/Users/jkwang/Desktop/nacl_sdk/pepper_canary/toolchain/mac_pnacl/bin/../x86_64-nacl/lib/libcrt_common.a(lib_a-strchr.o)
                              /Users/jkwang/Desktop/nacl_sdk/pepper_canary/toolchain/mac_pnacl/bin/../x86_64-nacl/lib/libcrt_common.a(lib_a-locale.o) (strchr)
/Users/jkwang/Desktop/nacl_sdk/pepper_canary/toolchain/mac_pnacl/bin/../x86_64-nacl/lib/libcrt_common.a(lib_a-strlcpy.o)
                              /Users/jkwang/Desktop/nacl_sdk/pepper_canary/toolchain/mac_pnacl/bin/../x86_64-nacl/lib/libcrt_common.a(lib_a-locale.o) (strlcpy)
/Users/jkwang/Desktop/nacl_sdk/pepper_canary/toolchain/mac_pnacl/bin/../x86_64-nacl/lib/libcrt_common.a(lib_a-strncasecmp.o)
                              /Users/jkwang/Desktop/nacl_sdk/pepper_canary/toolchain/mac_pnacl/bin/../x86_64-nacl/lib/libcrt_common.a(lib_a-locale.o) (strncasecmp)
/Users/jkwang/Desktop/nacl_sdk/pepper_canary/toolchain/mac_pnacl/bin/../x86_64-nacl/lib/libcrt_common.a(lib_a-strncpy.o)
                              /Users/jkwang/Desktop/nacl_sdk/pepper_canary/toolchain/mac_pnacl/bin/../x86_64-nacl/lib/libcrt_common.a(lib_a-vfprintf.o) (strncpy)
/Users/jkwang/Desktop/nacl_sdk/pepper_canary/toolchain/mac_pnacl/bin/../x86_64-nacl/lib/libcrt_common.a(lib_a-strtol.o)
                              /Users/jkwang/Desktop/nacl_sdk/pepper_canary/toolchain/mac_pnacl/bin/../x86_64-nacl/lib/libcrt_common.a(lib_a-locale.o) (_strtol_r)
/Users/jkwang/Desktop/nacl_sdk/pepper_canary/toolchain/mac_pnacl/bin/../x86_64-nacl/lib/libcrt_common.a(lib_a-svfprintf.o)
                              /Users/jkwang/Desktop/nacl_sdk/pepper_canary/toolchain/mac_pnacl/bin/../x86_64-nacl/lib/libcrt_common.a(lib_a-vsnprintf.o) (_svfprintf_r)
/Users/jkwang/Desktop/nacl_sdk/pepper_canary/toolchain/mac_pnacl/bin/../x86_64-nacl/lib/libcrt_common.a(lib_a-vfiprintf.o)
                              /Users/jkwang/Desktop/nacl_sdk/pepper_canary/toolchain/mac_pnacl/bin/../x86_64-nacl/lib/libcrt_common.a(lib_a-vfprintf.o) (__sprint_r)
/Users/jkwang/Desktop/nacl_sdk/pepper_canary/toolchain/mac_pnacl/bin/../x86_64-nacl/lib/libcrt_common.a(lib_a-wcsnrtombs.o)
                              /Users/jkwang/Desktop/nacl_sdk/pepper_canary/toolchain/mac_pnacl/bin/../x86_64-nacl/lib/libcrt_common.a(lib_a-wcsrtombs.o) (_wcsnrtombs_r)
/Users/jkwang/Desktop/nacl_sdk/pepper_canary/toolchain/mac_pnacl/bin/../x86_64-nacl/lib/libcrt_common.a(lib_a-ctype_.o)
                              /Users/jkwang/Desktop/nacl_sdk/pepper_canary/toolchain/mac_pnacl/bin/../x86_64-nacl/lib/libcrt_common.a(lib_a-strcasecmp.o) (__ctype_ptr__)
/Users/jkwang/Desktop/nacl_sdk/pepper_canary/toolchain/mac_pnacl/bin/../x86_64-nacl/lib/libcrt_common.a(lib_a-fputwc.o)
                              /Users/jkwang/Desktop/nacl_sdk/pepper_canary/toolchain/mac_pnacl/bin/../x86_64-nacl/lib/libcrt_common.a(lib_a-vfiprintf.o) (_fputwc_r)
/Users/jkwang/Desktop/nacl_sdk/pepper_canary/toolchain/mac_pnacl/bin/../x86_64-nacl/lib/libcrt_common.a(lib_a-svfiprintf.o)
                              /Users/jkwang/Desktop/nacl_sdk/pepper_canary/toolchain/mac_pnacl/bin/../x86_64-nacl/lib/libcrt_common.a(lib_a-svfprintf.o) (__ssprint_r)
/Users/jkwang/Desktop/nacl_sdk/pepper_canary/toolchain/mac_pnacl/bin/../x86_64-nacl/lib/libcrt_common.a(lib_a-wbuf.o)
                              /Users/jkwang/Desktop/nacl_sdk/pepper_canary/toolchain/mac_pnacl/bin/../x86_64-nacl/lib/libcrt_common.a(lib_a-fputwc.o) (__swbuf_r)
/Users/jkwang/Desktop/nacl_sdk/pepper_canary/toolchain/mac_pnacl/bin/../x86_64-nacl/lib/libnacl.a(close.o)
                              /Users/jkwang/Desktop/nacl_sdk/pepper_canary/toolchain/mac_pnacl/bin/../x86_64-nacl/lib/libcrt_common.a(lib_a-stdio.o) (close)
/Users/jkwang/Desktop/nacl_sdk/pepper_canary/toolchain/mac_pnacl/bin/../x86_64-nacl/lib/libnacl.a(fstat.o)
                              /Users/jkwang/Desktop/nacl_sdk/pepper_canary/toolchain/mac_pnacl/bin/../x86_64-nacl/lib/libcrt_common.a(lib_a-makebuf.o) (fstat)
/Users/jkwang/Desktop/nacl_sdk/pepper_canary/toolchain/mac_pnacl/bin/../x86_64-nacl/lib/libnacl.a(isatty.o)
                              /Users/jkwang/Desktop/nacl_sdk/pepper_canary/toolchain/mac_pnacl/bin/../x86_64-nacl/lib/libcrt_common.a(lib_a-makebuf.o) (isatty)
/Users/jkwang/Desktop/nacl_sdk/pepper_canary/toolchain/mac_pnacl/bin/../x86_64-nacl/lib/libnacl.a(lseek.o)
                              /Users/jkwang/Desktop/nacl_sdk/pepper_canary/toolchain/mac_pnacl/bin/../x86_64-nacl/lib/libcrt_common.a(lib_a-stdio.o) (lseek)
/Users/jkwang/Desktop/nacl_sdk/pepper_canary/toolchain/mac_pnacl/bin/../x86_64-nacl/lib/libnacl.a(nanosleep.o)
                              /Users/jkwang/Desktop/nacl_sdk/pepper_canary/toolchain/mac_pnacl/bin/../x86_64-nacl/lib/libcrt_common.a(lib_a-sleep.o) (nanosleep)
/Users/jkwang/Desktop/nacl_sdk/pepper_canary/toolchain/mac_pnacl/bin/../x86_64-nacl/lib/libnacl.a(nacl_irt_fdio.o)
                              /Users/jkwang/Desktop/nacl_sdk/pepper_canary/toolchain/mac_pnacl/bin/../x86_64-nacl/lib/libnacl.a(isatty.o) (__libnacl_irt_dev_fdio_init)
/Users/jkwang/Desktop/nacl_sdk/pepper_canary/toolchain/mac_pnacl/bin/../x86_64-nacl/lib/libnacl.a(read.o)
                              /Users/jkwang/Desktop/nacl_sdk/pepper_canary/toolchain/mac_pnacl/bin/../x86_64-nacl/lib/libcrt_common.a(lib_a-stdio.o) (read)
/Users/jkwang/Desktop/nacl_sdk/pepper_canary/toolchain/mac_pnacl/bin/../lib/clang/3.7.0/lib/x86_64-nacl/libgcc_eh.a(unwind-dw2-fde-glibc.o)
                              /Users/jkwang/Desktop/nacl_sdk/pepper_canary/toolchain/mac_pnacl/bin/../lib/clang/3.7.0/lib/x86_64-nacl/crtbeginT.o (__register_frame_info)

Allocating common symbols
Common symbol       size              file

__nacl_irt_query    0x4               /Users/jkwang/Desktop/nacl_sdk/pepper_canary/toolchain/mac_pnacl/bin/../x86_64-nacl/lib/libnacl.a(nacl_irt.o)
__libnacl_irt_dev_filename
                    0x40              /Users/jkwang/Desktop/nacl_sdk/pepper_canary/toolchain/mac_pnacl/bin/../x86_64-nacl/lib/libnacl.a(nacl_irt.o)
__nc_thread_initialized
                    0x4               /Users/jkwang/Desktop/nacl_sdk/pepper_canary/toolchain/mac_pnacl/bin/../x86_64-nacl/lib/libpthread.a(nc_thread.o)
g_PPAPIThread       0x4               clang-newlib/Release/debugging_x86_64.o
__libnacl_irt_clock
                    0x8               /Users/jkwang/Desktop/nacl_sdk/pepper_canary/toolchain/mac_pnacl/bin/../x86_64-nacl/lib/libnacl.a(nacl_irt.o)
__libnacl_irt_futex
                    0x8               /Users/jkwang/Desktop/nacl_sdk/pepper_canary/toolchain/mac_pnacl/bin/../x86_64-nacl/lib/libpthread.a(nc_init_irt.o)
g_Instance          0x4               clang-newlib/Release/debugging_x86_64.o
__nacl_initial_thread_stack_end
                    0x4               /Users/jkwang/Desktop/nacl_sdk/pepper_canary/toolchain/mac_pnacl/bin/../x86_64-nacl/lib/libnacl.a(start.o)
__libnacl_irt_memory
                    0xc               /Users/jkwang/Desktop/nacl_sdk/pepper_canary/toolchain/mac_pnacl/bin/../x86_64-nacl/lib/libnacl.a(nacl_irt.o)
__nc_initial_thread_id
                    0x4               /Users/jkwang/Desktop/nacl_sdk/pepper_canary/toolchain/mac_pnacl/bin/../x86_64-nacl/lib/libpthread.a(nc_thread.o)
__libnacl_irt_dev_fdio
                    0x38              /Users/jkwang/Desktop/nacl_sdk/pepper_canary/toolchain/mac_pnacl/bin/../x86_64-nacl/lib/libnacl.a(nacl_irt.o)
g_NexeThread        0x4               clang-newlib/Release/debugging_x86_64.o
__libnacl_irt_basic
                    0x18              /Users/jkwang/Desktop/nacl_sdk/pepper_canary/toolchain/mac_pnacl/bin/../x86_64-nacl/lib/libnacl.a(nacl_irt.o)
__libnacl_irt_thread
                    0xc               /Users/jkwang/Desktop/nacl_sdk/pepper_canary/toolchain/mac_pnacl/bin/../x86_64-nacl/lib/libpthread.a(nc_thread.o)
__libnacl_irt_tls   0x8               /Users/jkwang/Desktop/nacl_sdk/pepper_canary/toolchain/mac_pnacl/bin/../x86_64-nacl/lib/libnacl.a(nacl_irt.o)
__libnacl_irt_dev_getpid
                    0x4               /Users/jkwang/Desktop/nacl_sdk/pepper_canary/toolchain/mac_pnacl/bin/../x86_64-nacl/lib/libnacl.a(nacl_irt.o)

Discarded input sections

 .group         0x0000000000000000        0x8 /Users/jkwang/Desktop/nacl_sdk/pepper_canary/toolchain/mac_pnacl/bin/../lib/clang/3.7.0/lib/x86_64-nacl/crtbeginT.o
 .note.GNU-stack
                0x0000000000000000        0x0 /Users/jkwang/Desktop/nacl_sdk/pepper_canary/toolchain/mac_pnacl/bin/../lib/clang/3.7.0/lib/x86_64-nacl/crtbeginT.o
 .group         0x0000000000000000        0x8 clang-newlib/Release/debugging_x86_64.o
 .note.NaCl.ABI.x86-64
                0x0000000000000000       0x1c clang-newlib/Release/debugging_x86_64.o
 .note.GNU-stack
                0x0000000000000000        0x0 clang-newlib/Release/debugging_x86_64.o
 .group         0x0000000000000000        0x8 /Users/jkwang/Desktop/nacl_sdk/pepper_canary/lib/clang-newlib_x86_64/Release/liberror_handling.a(error_handling_x86_64.o)
 .note.NaCl.ABI.x86-64
                0x0000000000000000       0x1c /Users/jkwang/Desktop/nacl_sdk/pepper_canary/lib/clang-newlib_x86_64/Release/liberror_handling.a(error_handling_x86_64.o)
 .note.GNU-stack
                0x0000000000000000        0x0 /Users/jkwang/Desktop/nacl_sdk/pepper_canary/lib/clang-newlib_x86_64/Release/liberror_handling.a(error_handling_x86_64.o)
 .group         0x0000000000000000        0x8 /Users/jkwang/Desktop/nacl_sdk/pepper_canary/lib/clang-newlib_x86_64/Release/liberror_handling.a(string_stream_x86_64.o)
 .note.NaCl.ABI.x86-64
                0x0000000000000000       0x1c /Users/jkwang/Desktop/nacl_sdk/pepper_canary/lib/clang-newlib_x86_64/Release/liberror_handling.a(string_stream_x86_64.o)
 .note.GNU-stack
                0x0000000000000000        0x0 /Users/jkwang/Desktop/nacl_sdk/pepper_canary/lib/clang-newlib_x86_64/Release/liberror_handling.a(string_stream_x86_64.o)
 .group         0x0000000000000000        0x8 /Users/jkwang/Desktop/nacl_sdk/pepper_canary/toolchain/mac_pnacl/bin/../x86_64-nacl/lib/libppapi_stub.a(plugin_main_irt.o)
 .note.NaCl.ABI.x86-64
                0x0000000000000000       0x1c /Users/jkwang/Desktop/nacl_sdk/pepper_canary/toolchain/mac_pnacl/bin/../x86_64-nacl/lib/libppapi_stub.a(plugin_main_irt.o)
 .note.GNU-stack
                0x0000000000000000        0x0 /Users/jkwang/Desktop/nacl_sdk/pepper_canary/toolchain/mac_pnacl/bin/../x86_64-nacl/lib/libppapi_stub.a(plugin_main_irt.o)
 .group         0x0000000000000000        0x8 /Users/jkwang/Desktop/nacl_sdk/pepper_canary/toolchain/mac_pnacl/bin/../x86_64-nacl/lib/libppapi_stub.a(ppapi_plugin_main.o)
 .note.NaCl.ABI.x86-64
                0x0000000000000000       0x1c /Users/jkwang/Desktop/nacl_sdk/pepper_canary/toolchain/mac_pnacl/bin/../x86_64-nacl/lib/libppapi_stub.a(ppapi_plugin_main.o)
 .note.GNU-stack
                0x0000000000000000        0x0 /Users/jkwang/Desktop/nacl_sdk/pepper_canary/toolchain/mac_pnacl/bin/../x86_64-nacl/lib/libppapi_stub.a(ppapi_plugin_main.o)
 .group         0x0000000000000000        0x8 /Users/jkwang/Desktop/nacl_sdk/pepper_canary/toolchain/mac_pnacl/bin/../x86_64-nacl/lib/libppapi_stub.a(ppapi_plugin_start.o)
 .note.NaCl.ABI.x86-64
                0x0000000000000000       0x1c /Users/jkwang/Desktop/nacl_sdk/pepper_canary/toolchain/mac_pnacl/bin/../x86_64-nacl/lib/libppapi_stub.a(ppapi_plugin_start.o)
 .note.GNU-stack
                0x0000000000000000        0x0 /Users/jkwang/Desktop/nacl_sdk/pepper_canary/toolchain/mac_pnacl/bin/../x86_64-nacl/lib/libppapi_stub.a(ppapi_plugin_start.o)
 .group         0x0000000000000000        0x8 /Users/jkwang/Desktop/nacl_sdk/pepper_canary/toolchain/mac_pnacl/bin/../x86_64-nacl/lib/libppapi_stub.a(thread_creator.o)
 .note.NaCl.ABI.x86-64
                0x0000000000000000       0x1c /Users/jkwang/Desktop/nacl_sdk/pepper_canary/toolchain/mac_pnacl/bin/../x86_64-nacl/lib/libppapi_stub.a(thread_creator.o)
 .note.GNU-stack
                0x0000000000000000        0x0 /Users/jkwang/Desktop/nacl_sdk/pepper_canary/toolchain/mac_pnacl/bin/../x86_64-nacl/lib/libppapi_stub.a(thread_creator.o)
 .group         0x0000000000000000        0x8 /Users/jkwang/Desktop/nacl_sdk/pepper_canary/toolchain/mac_pnacl/bin/../x86_64-nacl/lib/libpthread.a(nc_thread.o)
 .note.NaCl.ABI.x86-64
                0x0000000000000000       0x1c /Users/jkwang/Desktop/nacl_sdk/pepper_canary/toolchain/mac_pnacl/bin/../x86_64-nacl/lib/libpthread.a(nc_thread.o)
 .note.GNU-stack
                0x0000000000000000        0x0 /Users/jkwang/Desktop/nacl_sdk/pepper_canary/toolchain/mac_pnacl/bin/../x86_64-nacl/lib/libpthread.a(nc_thread.o)
 .group         0x0000000000000000        0x8 /Users/jkwang/Desktop/nacl_sdk/pepper_canary/toolchain/mac_pnacl/bin/../x86_64-nacl/lib/libpthread.a(nc_mutex.o)
 .note.NaCl.ABI.x86-64
                0x0000000000000000       0x1c /Users/jkwang/Desktop/nacl_sdk/pepper_canary/toolchain/mac_pnacl/bin/../x86_64-nacl/lib/libpthread.a(nc_mutex.o)
 .note.GNU-stack
                0x0000000000000000        0x0 /Users/jkwang/Desktop/nacl_sdk/pepper_canary/toolchain/mac_pnacl/bin/../x86_64-nacl/lib/libpthread.a(nc_mutex.o)
 .group         0x0000000000000000        0x8 /Users/jkwang/Desktop/nacl_sdk/pepper_canary/toolchain/mac_pnacl/bin/../x86_64-nacl/lib/libpthread.a(nc_condvar.o)
 .note.NaCl.ABI.x86-64
                0x0000000000000000       0x1c /Users/jkwang/Desktop/nacl_sdk/pepper_canary/toolchain/mac_pnacl/bin/../x86_64-nacl/lib/libpthread.a(nc_condvar.o)
 .note.GNU-stack
                0x0000000000000000        0x0 /Users/jkwang/Desktop/nacl_sdk/pepper_canary/toolchain/mac_pnacl/bin/../x86_64-nacl/lib/libpthread.a(nc_condvar.o)
 .group         0x0000000000000000        0x8 /Users/jkwang/Desktop/nacl_sdk/pepper_canary/toolchain/mac_pnacl/bin/../x86_64-nacl/lib/libpthread.a(valgrind_annotations.o)
 .note.NaCl.ABI.x86-64
                0x0000000000000000       0x1c /Users/jkwang/Desktop/nacl_sdk/pepper_canary/toolchain/mac_pnacl/bin/../x86_64-nacl/lib/libpthread.a(valgrind_annotations.o)
 .note.GNU-stack
                0x0000000000000000        0x0 /Users/jkwang/Desktop/nacl_sdk/pepper_canary/toolchain/mac_pnacl/bin/../x86_64-nacl/lib/libpthread.a(valgrind_annotations.o)
 .group         0x0000000000000000        0x8 /Users/jkwang/Desktop/nacl_sdk/pepper_canary/toolchain/mac_pnacl/bin/../x86_64-nacl/lib/libpthread.a(nc_init_irt.o)
 .note.NaCl.ABI.x86-64
                0x0000000000000000       0x1c /Users/jkwang/Desktop/nacl_sdk/pepper_canary/toolchain/mac_pnacl/bin/../x86_64-nacl/lib/libpthread.a(nc_init_irt.o)
 .note.GNU-stack
                0x0000000000000000        0x0 /Users/jkwang/Desktop/nacl_sdk/pepper_canary/toolchain/mac_pnacl/bin/../x86_64-nacl/lib/libpthread.a(nc_init_irt.o)
 .group         0x0000000000000000        0x8 /Users/jkwang/Desktop/nacl_sdk/pepper_canary/toolchain/mac_pnacl/bin/../x86_64-nacl/lib/libnacl.a(nacl_irt.o)
 .note.NaCl.ABI.x86-64
                0x0000000000000000       0x1c /Users/jkwang/Desktop/nacl_sdk/pepper_canary/toolchain/mac_pnacl/bin/../x86_64-nacl/lib/libnacl.a(nacl_irt.o)
 .note.GNU-stack
                0x0000000000000000        0x0 /Users/jkwang/Desktop/nacl_sdk/pepper_canary/toolchain/mac_pnacl/bin/../x86_64-nacl/lib/libnacl.a(nacl_irt.o)
 .group         0x0000000000000000        0x8 /Users/jkwang/Desktop/nacl_sdk/pepper_canary/toolchain/mac_pnacl/bin/../x86_64-nacl/lib/libnacl.a(_exit.o)
 .note.NaCl.ABI.x86-64
                0x0000000000000000       0x1c /Users/jkwang/Desktop/nacl_sdk/pepper_canary/toolchain/mac_pnacl/bin/../x86_64-nacl/lib/libnacl.a(_exit.o)
 .note.GNU-stack
                0x0000000000000000        0x0 /Users/jkwang/Desktop/nacl_sdk/pepper_canary/toolchain/mac_pnacl/bin/../x86_64-nacl/lib/libnacl.a(_exit.o)
 .group         0x0000000000000000        0x8 /Users/jkwang/Desktop/nacl_sdk/pepper_canary/toolchain/mac_pnacl/bin/../x86_64-nacl/lib/libnacl.a(mmap.o)
 .note.NaCl.ABI.x86-64
                0x0000000000000000       0x1c /Users/jkwang/Desktop/nacl_sdk/pepper_canary/toolchain/mac_pnacl/bin/../x86_64-nacl/lib/libnacl.a(mmap.o)
 .note.GNU-stack
                0x0000000000000000        0x0 /Users/jkwang/Desktop/nacl_sdk/pepper_canary/toolchain/mac_pnacl/bin/../x86_64-nacl/lib/libnacl.a(mmap.o)
 .group         0x0000000000000000        0x8 /Users/jkwang/Desktop/nacl_sdk/pepper_canary/toolchain/mac_pnacl/bin/../x86_64-nacl/lib/libnacl.a(munmap.o)
 .note.NaCl.ABI.x86-64
                0x0000000000000000       0x1c /Users/jkwang/Desktop/nacl_sdk/pepper_canary/toolchain/mac_pnacl/bin/../x86_64-nacl/lib/libnacl.a(munmap.o)
 .note.GNU-stack
                0x0000000000000000        0x0 /Users/jkwang/Desktop/nacl_sdk/pepper_canary/toolchain/mac_pnacl/bin/../x86_64-nacl/lib/libnacl.a(munmap.o)
 .group         0x0000000000000000        0x8 /Users/jkwang/Desktop/nacl_sdk/pepper_canary/toolchain/mac_pnacl/bin/../x86_64-nacl/lib/libnacl.a(nacl_interface_query.o)
 .note.NaCl.ABI.x86-64
                0x0000000000000000       0x1c /Users/jkwang/Desktop/nacl_sdk/pepper_canary/toolchain/mac_pnacl/bin/../x86_64-nacl/lib/libnacl.a(nacl_interface_query.o)
 .note.GNU-stack
                0x0000000000000000        0x0 /Users/jkwang/Desktop/nacl_sdk/pepper_canary/toolchain/mac_pnacl/bin/../x86_64-nacl/lib/libnacl.a(nacl_interface_query.o)
 .group         0x0000000000000000        0x8 /Users/jkwang/Desktop/nacl_sdk/pepper_canary/toolchain/mac_pnacl/bin/../x86_64-nacl/lib/libnacl.a(write.o)
 .note.NaCl.ABI.x86-64
                0x0000000000000000       0x1c /Users/jkwang/Desktop/nacl_sdk/pepper_canary/toolchain/mac_pnacl/bin/../x86_64-nacl/lib/libnacl.a(write.o)
 .note.GNU-stack
                0x0000000000000000        0x0 /Users/jkwang/Desktop/nacl_sdk/pepper_canary/toolchain/mac_pnacl/bin/../x86_64-nacl/lib/libnacl.a(write.o)
 .group         0x0000000000000000        0x8 /Users/jkwang/Desktop/nacl_sdk/pepper_canary/toolchain/mac_pnacl/bin/../x86_64-nacl/lib/libnacl.a(environ.o)
 .note.NaCl.ABI.x86-64
                0x0000000000000000       0x1c /Users/jkwang/Desktop/nacl_sdk/pepper_canary/toolchain/mac_pnacl/bin/../x86_64-nacl/lib/libnacl.a(environ.o)
 .note.GNU-stack
                0x0000000000000000        0x0 /Users/jkwang/Desktop/nacl_sdk/pepper_canary/toolchain/mac_pnacl/bin/../x86_64-nacl/lib/libnacl.a(environ.o)
 .group         0x0000000000000000        0x8 /Users/jkwang/Desktop/nacl_sdk/pepper_canary/toolchain/mac_pnacl/bin/../x86_64-nacl/lib/libnacl.a(malloc.o)
 .note.NaCl.ABI.x86-64
                0x0000000000000000       0x1c /Users/jkwang/Desktop/nacl_sdk/pepper_canary/toolchain/mac_pnacl/bin/../x86_64-nacl/lib/libnacl.a(malloc.o)
 .note.GNU-stack
                0x0000000000000000        0x0 /Users/jkwang/Desktop/nacl_sdk/pepper_canary/toolchain/mac_pnacl/bin/../x86_64-nacl/lib/libnacl.a(malloc.o)
 .group         0x0000000000000000        0x8 /Users/jkwang/Desktop/nacl_sdk/pepper_canary/toolchain/mac_pnacl/bin/../x86_64-nacl/lib/libnacl.a(start.o)
 .note.NaCl.ABI.x86-64
                0x0000000000000000       0x1c /Users/jkwang/Desktop/nacl_sdk/pepper_canary/toolchain/mac_pnacl/bin/../x86_64-nacl/lib/libnacl.a(start.o)
 .note.GNU-stack
                0x0000000000000000        0x0 /Users/jkwang/Desktop/nacl_sdk/pepper_canary/toolchain/mac_pnacl/bin/../x86_64-nacl/lib/libnacl.a(start.o)
 .group         0x0000000000000000        0x8 /Users/jkwang/Desktop/nacl_sdk/pepper_canary/toolchain/mac_pnacl/bin/../x86_64-nacl/lib/libnacl.a(nacl_add_tp.o)
 .note.NaCl.ABI.x86-64
                0x0000000000000000       0x1c /Users/jkwang/Desktop/nacl_sdk/pepper_canary/toolchain/mac_pnacl/bin/../x86_64-nacl/lib/libnacl.a(nacl_add_tp.o)
 .note.GNU-stack
                0x0000000000000000        0x0 /Users/jkwang/Desktop/nacl_sdk/pepper_canary/toolchain/mac_pnacl/bin/../x86_64-nacl/lib/libnacl.a(nacl_add_tp.o)
 .group         0x0000000000000000        0x8 /Users/jkwang/Desktop/nacl_sdk/pepper_canary/toolchain/mac_pnacl/bin/../x86_64-nacl/lib/libnacl.a(nacl_read_tp.o)
 .note.NaCl.ABI.x86-64
                0x0000000000000000       0x1c /Users/jkwang/Desktop/nacl_sdk/pepper_canary/toolchain/mac_pnacl/bin/../x86_64-nacl/lib/libnacl.a(nacl_read_tp.o)
 .note.GNU-stack
                0x0000000000000000        0x0 /Users/jkwang/Desktop/nacl_sdk/pepper_canary/toolchain/mac_pnacl/bin/../x86_64-nacl/lib/libnacl.a(nacl_read_tp.o)
 .group         0x0000000000000000        0x8 /Users/jkwang/Desktop/nacl_sdk/pepper_canary/toolchain/mac_pnacl/bin/../x86_64-nacl/lib/libnacl.a(pthread_initialize_minimal.o)
 .note.NaCl.ABI.x86-64
                0x0000000000000000       0x1c /Users/jkwang/Desktop/nacl_sdk/pepper_canary/toolchain/mac_pnacl/bin/../x86_64-nacl/lib/libnacl.a(pthread_initialize_minimal.o)
 .note.GNU-stack
                0x0000000000000000        0x0 /Users/jkwang/Desktop/nacl_sdk/pepper_canary/toolchain/mac_pnacl/bin/../x86_64-nacl/lib/libnacl.a(pthread_initialize_minimal.o)
 .group         0x0000000000000000        0x8 /Users/jkwang/Desktop/nacl_sdk/pepper_canary/toolchain/mac_pnacl/bin/../x86_64-nacl/lib/libnacl.a(tls.o)
 .note.NaCl.ABI.x86-64
                0x0000000000000000       0x1c /Users/jkwang/Desktop/nacl_sdk/pepper_canary/toolchain/mac_pnacl/bin/../x86_64-nacl/lib/libnacl.a(tls.o)
 .note.GNU-stack
                0x0000000000000000        0x0 /Users/jkwang/Desktop/nacl_sdk/pepper_canary/toolchain/mac_pnacl/bin/../x86_64-nacl/lib/libnacl.a(tls.o)
 .group         0x0000000000000000        0x8 /Users/jkwang/Desktop/nacl_sdk/pepper_canary/toolchain/mac_pnacl/bin/../x86_64-nacl/lib/libnacl.a(nacl_irt_init.o)
 .note.NaCl.ABI.x86-64
                0x0000000000000000       0x1c /Users/jkwang/Desktop/nacl_sdk/pepper_canary/toolchain/mac_pnacl/bin/../x86_64-nacl/lib/libnacl.a(nacl_irt_init.o)
 .note.GNU-stack
                0x0000000000000000        0x0 /Users/jkwang/Desktop/nacl_sdk/pepper_canary/toolchain/mac_pnacl/bin/../x86_64-nacl/lib/libnacl.a(nacl_irt_init.o)
 .group         0x0000000000000000        0x8 /Users/jkwang/Desktop/nacl_sdk/pepper_canary/toolchain/mac_pnacl/bin/../x86_64-nacl/lib/libnacl.a(nacl_tls_get.o)
 .note.NaCl.ABI.x86-64
                0x0000000000000000       0x1c /Users/jkwang/Desktop/nacl_sdk/pepper_canary/toolchain/mac_pnacl/bin/../x86_64-nacl/lib/libnacl.a(nacl_tls_get.o)
 .note.GNU-stack
                0x0000000000000000        0x0 /Users/jkwang/Desktop/nacl_sdk/pepper_canary/toolchain/mac_pnacl/bin/../x86_64-nacl/lib/libnacl.a(nacl_tls_get.o)
 .group         0x0000000000000000        0x8 /Users/jkwang/Desktop/nacl_sdk/pepper_canary/toolchain/mac_pnacl/bin/../x86_64-nacl/lib/libnacl.a(nacl_tls_init.o)
 .note.NaCl.ABI.x86-64
                0x0000000000000000       0x1c /Users/jkwang/Desktop/nacl_sdk/pepper_canary/toolchain/mac_pnacl/bin/../x86_64-nacl/lib/libnacl.a(nacl_tls_init.o)
 .note.GNU-stack
                0x0000000000000000        0x0 /Users/jkwang/Desktop/nacl_sdk/pepper_canary/toolchain/mac_pnacl/bin/../x86_64-nacl/lib/libnacl.a(nacl_tls_init.o)
 .group         0x0000000000000000        0x8 /Users/jkwang/Desktop/nacl_sdk/pepper_canary/toolchain/mac_pnacl/bin/../x86_64-nacl/lib/libnacl.a(abort.o)
 .note.NaCl.ABI.x86-64
                0x0000000000000000       0x1c /Users/jkwang/Desktop/nacl_sdk/pepper_canary/toolchain/mac_pnacl/bin/../x86_64-nacl/lib/libnacl.a(abort.o)
 .note.GNU-stack
                0x0000000000000000        0x0 /Users/jkwang/Desktop/nacl_sdk/pepper_canary/toolchain/mac_pnacl/bin/../x86_64-nacl/lib/libnacl.a(abort.o)
 .group         0x0000000000000000        0x8 /Users/jkwang/Desktop/nacl_sdk/pepper_canary/toolchain/mac_pnacl/bin/../x86_64-nacl/lib/libnacl.a(sched_yield.o)
 .note.NaCl.ABI.x86-64
                0x0000000000000000       0x1c /Users/jkwang/Desktop/nacl_sdk/pepper_canary/toolchain/mac_pnacl/bin/../x86_64-nacl/lib/libnacl.a(sched_yield.o)
 .note.GNU-stack
                0x0000000000000000        0x0 /Users/jkwang/Desktop/nacl_sdk/pepper_canary/toolchain/mac_pnacl/bin/../x86_64-nacl/lib/libnacl.a(sched_yield.o)
 .group         0x0000000000000000        0x8 /Users/jkwang/Desktop/nacl_sdk/pepper_canary/toolchain/mac_pnacl/bin/../x86_64-nacl/lib/libnacl.a(sysconf.o)
 .note.NaCl.ABI.x86-64
                0x0000000000000000       0x1c /Users/jkwang/Desktop/nacl_sdk/pepper_canary/toolchain/mac_pnacl/bin/../x86_64-nacl/lib/libnacl.a(sysconf.o)
 .note.GNU-stack
                0x0000000000000000        0x0 /Users/jkwang/Desktop/nacl_sdk/pepper_canary/toolchain/mac_pnacl/bin/../x86_64-nacl/lib/libnacl.a(sysconf.o)
 .group         0x0000000000000000        0x8 /Users/jkwang/Desktop/nacl_sdk/pepper_canary/toolchain/mac_pnacl/bin/../x86_64-nacl/lib/libcrt_common.a(lib_a-atexit.o)
 .note.NaCl.ABI.x86-64
                0x0000000000000000       0x1c /Users/jkwang/Desktop/nacl_sdk/pepper_canary/toolchain/mac_pnacl/bin/../x86_64-nacl/lib/libcrt_common.a(lib_a-atexit.o)
 .note.GNU-stack
                0x0000000000000000        0x0 /Users/jkwang/Desktop/nacl_sdk/pepper_canary/toolchain/mac_pnacl/bin/../x86_64-nacl/lib/libcrt_common.a(lib_a-atexit.o)
 .group         0x0000000000000000        0x8 /Users/jkwang/Desktop/nacl_sdk/pepper_canary/toolchain/mac_pnacl/bin/../x86_64-nacl/lib/libcrt_common.a(lib_a-errno.o)
 .note.NaCl.ABI.x86-64
                0x0000000000000000       0x1c /Users/jkwang/Desktop/nacl_sdk/pepper_canary/toolchain/mac_pnacl/bin/../x86_64-nacl/lib/libcrt_common.a(lib_a-errno.o)
 .note.GNU-stack
                0x0000000000000000        0x0 /Users/jkwang/Desktop/nacl_sdk/pepper_canary/toolchain/mac_pnacl/bin/../x86_64-nacl/lib/libcrt_common.a(lib_a-errno.o)
 .group         0x0000000000000000        0x8 /Users/jkwang/Desktop/nacl_sdk/pepper_canary/toolchain/mac_pnacl/bin/../x86_64-nacl/lib/libcrt_common.a(lib_a-exit.o)
 .note.NaCl.ABI.x86-64
                0x0000000000000000       0x1c /Users/jkwang/Desktop/nacl_sdk/pepper_canary/toolchain/mac_pnacl/bin/../x86_64-nacl/lib/libcrt_common.a(lib_a-exit.o)
 .note.GNU-stack
                0x0000000000000000        0x0 /Users/jkwang/Desktop/nacl_sdk/pepper_canary/toolchain/mac_pnacl/bin/../x86_64-nacl/lib/libcrt_common.a(lib_a-exit.o)
 .group         0x0000000000000000        0x8 /Users/jkwang/Desktop/nacl_sdk/pepper_canary/toolchain/mac_pnacl/bin/../x86_64-nacl/lib/libcrt_common.a(lib_a-fflush.o)
 .note.NaCl.ABI.x86-64
                0x0000000000000000       0x1c /Users/jkwang/Desktop/nacl_sdk/pepper_canary/toolchain/mac_pnacl/bin/../x86_64-nacl/lib/libcrt_common.a(lib_a-fflush.o)
 .note.GNU-stack
                0x0000000000000000        0x0 /Users/jkwang/Desktop/nacl_sdk/pepper_canary/toolchain/mac_pnacl/bin/../x86_64-nacl/lib/libcrt_common.a(lib_a-fflush.o)
 .group         0x0000000000000000        0x8 /Users/jkwang/Desktop/nacl_sdk/pepper_canary/toolchain/mac_pnacl/bin/../x86_64-nacl/lib/libcrt_common.a(lib_a-findfp.o)
 .note.NaCl.ABI.x86-64
                0x0000000000000000       0x1c /Users/jkwang/Desktop/nacl_sdk/pepper_canary/toolchain/mac_pnacl/bin/../x86_64-nacl/lib/libcrt_common.a(lib_a-findfp.o)
 .note.GNU-stack
                0x0000000000000000        0x0 /Users/jkwang/Desktop/nacl_sdk/pepper_canary/toolchain/mac_pnacl/bin/../x86_64-nacl/lib/libcrt_common.a(lib_a-findfp.o)
 .group         0x0000000000000000        0x8 /Users/jkwang/Desktop/nacl_sdk/pepper_canary/toolchain/mac_pnacl/bin/../x86_64-nacl/lib/libcrt_common.a(lib_a-fini.o)
 .note.NaCl.ABI.x86-64
                0x0000000000000000       0x1c /Users/jkwang/Desktop/nacl_sdk/pepper_canary/toolchain/mac_pnacl/bin/../x86_64-nacl/lib/libcrt_common.a(lib_a-fini.o)
 .note.GNU-stack
                0x0000000000000000        0x0 /Users/jkwang/Desktop/nacl_sdk/pepper_canary/toolchain/mac_pnacl/bin/../x86_64-nacl/lib/libcrt_common.a(lib_a-fini.o)
 .group         0x0000000000000000        0x8 /Users/jkwang/Desktop/nacl_sdk/pepper_canary/toolchain/mac_pnacl/bin/../x86_64-nacl/lib/libcrt_common.a(lib_a-fprintf.o)
 .note.NaCl.ABI.x86-64
                0x0000000000000000       0x1c /Users/jkwang/Desktop/nacl_sdk/pepper_canary/toolchain/mac_pnacl/bin/../x86_64-nacl/lib/libcrt_common.a(lib_a-fprintf.o)
 .note.GNU-stack
                0x0000000000000000        0x0 /Users/jkwang/Desktop/nacl_sdk/pepper_canary/toolchain/mac_pnacl/bin/../x86_64-nacl/lib/libcrt_common.a(lib_a-fprintf.o)
 .group         0x0000000000000000        0x8 /Users/jkwang/Desktop/nacl_sdk/pepper_canary/toolchain/mac_pnacl/bin/../x86_64-nacl/lib/libcrt_common.a(lib_a-fwalk.o)
 .note.NaCl.ABI.x86-64
                0x0000000000000000       0x1c /Users/jkwang/Desktop/nacl_sdk/pepper_canary/toolchain/mac_pnacl/bin/../x86_64-nacl/lib/libcrt_common.a(lib_a-fwalk.o)
 .note.GNU-stack
                0x0000000000000000        0x0 /Users/jkwang/Desktop/nacl_sdk/pepper_canary/toolchain/mac_pnacl/bin/../x86_64-nacl/lib/libcrt_common.a(lib_a-fwalk.o)
 .group         0x0000000000000000        0x8 /Users/jkwang/Desktop/nacl_sdk/pepper_canary/toolchain/mac_pnacl/bin/../x86_64-nacl/lib/libcrt_common.a(lib_a-fwrite.o)
 .note.NaCl.ABI.x86-64
                0x0000000000000000       0x1c /Users/jkwang/Desktop/nacl_sdk/pepper_canary/toolchain/mac_pnacl/bin/../x86_64-nacl/lib/libcrt_common.a(lib_a-fwrite.o)
 .note.GNU-stack
                0x0000000000000000        0x0 /Users/jkwang/Desktop/nacl_sdk/pepper_canary/toolchain/mac_pnacl/bin/../x86_64-nacl/lib/libcrt_common.a(lib_a-fwrite.o)
 .group         0x0000000000000000        0x8 /Users/jkwang/Desktop/nacl_sdk/pepper_canary/toolchain/mac_pnacl/bin/../x86_64-nacl/lib/libcrt_common.a(lib_a-getenv.o)
 .note.NaCl.ABI.x86-64
                0x0000000000000000       0x1c /Users/jkwang/Desktop/nacl_sdk/pepper_canary/toolchain/mac_pnacl/bin/../x86_64-nacl/lib/libcrt_common.a(lib_a-getenv.o)
 .note.GNU-stack
                0x0000000000000000        0x0 /Users/jkwang/Desktop/nacl_sdk/pepper_canary/toolchain/mac_pnacl/bin/../x86_64-nacl/lib/libcrt_common.a(lib_a-getenv.o)
 .group         0x0000000000000000        0x8 /Users/jkwang/Desktop/nacl_sdk/pepper_canary/toolchain/mac_pnacl/bin/../x86_64-nacl/lib/libcrt_common.a(lib_a-getenv_r.o)
 .note.NaCl.ABI.x86-64
                0x0000000000000000       0x1c /Users/jkwang/Desktop/nacl_sdk/pepper_canary/toolchain/mac_pnacl/bin/../x86_64-nacl/lib/libcrt_common.a(lib_a-getenv_r.o)
 .note.GNU-stack
                0x0000000000000000        0x0 /Users/jkwang/Desktop/nacl_sdk/pepper_canary/toolchain/mac_pnacl/bin/../x86_64-nacl/lib/libcrt_common.a(lib_a-getenv_r.o)
 .group         0x0000000000000000        0x8 /Users/jkwang/Desktop/nacl_sdk/pepper_canary/toolchain/mac_pnacl/bin/../x86_64-nacl/lib/libcrt_common.a(lib_a-impure.o)
 .note.NaCl.ABI.x86-64
                0x0000000000000000       0x1c /Users/jkwang/Desktop/nacl_sdk/pepper_canary/toolchain/mac_pnacl/bin/../x86_64-nacl/lib/libcrt_common.a(lib_a-impure.o)
 .note.GNU-stack
                0x0000000000000000        0x0 /Users/jkwang/Desktop/nacl_sdk/pepper_canary/toolchain/mac_pnacl/bin/../x86_64-nacl/lib/libcrt_common.a(lib_a-impure.o)
 .group         0x0000000000000000        0x8 /Users/jkwang/Desktop/nacl_sdk/pepper_canary/toolchain/mac_pnacl/bin/../x86_64-nacl/lib/libcrt_common.a(lib_a-init.o)
 .note.NaCl.ABI.x86-64
                0x0000000000000000       0x1c /Users/jkwang/Desktop/nacl_sdk/pepper_canary/toolchain/mac_pnacl/bin/../x86_64-nacl/lib/libcrt_common.a(lib_a-init.o)
 .note.GNU-stack
                0x0000000000000000        0x0 /Users/jkwang/Desktop/nacl_sdk/pepper_canary/toolchain/mac_pnacl/bin/../x86_64-nacl/lib/libcrt_common.a(lib_a-init.o)
 .group         0x0000000000000000        0x8 /Users/jkwang/Desktop/nacl_sdk/pepper_canary/toolchain/mac_pnacl/bin/../x86_64-nacl/lib/libcrt_common.a(lib_a-memcpy.o)
 .note.NaCl.ABI.x86-64
                0x0000000000000000       0x1c /Users/jkwang/Desktop/nacl_sdk/pepper_canary/toolchain/mac_pnacl/bin/../x86_64-nacl/lib/libcrt_common.a(lib_a-memcpy.o)
 .group         0x0000000000000000        0x8 /Users/jkwang/Desktop/nacl_sdk/pepper_canary/toolchain/mac_pnacl/bin/../x86_64-nacl/lib/libcrt_common.a(lib_a-memset.o)
 .note.NaCl.ABI.x86-64
                0x0000000000000000       0x1c /Users/jkwang/Desktop/nacl_sdk/pepper_canary/toolchain/mac_pnacl/bin/../x86_64-nacl/lib/libcrt_common.a(lib_a-memset.o)
 .group         0x0000000000000000        0x8 /Users/jkwang/Desktop/nacl_sdk/pepper_canary/toolchain/mac_pnacl/bin/../x86_64-nacl/lib/libcrt_common.a(lib_a-sleep.o)
 .note.NaCl.ABI.x86-64
                0x0000000000000000       0x1c /Users/jkwang/Desktop/nacl_sdk/pepper_canary/toolchain/mac_pnacl/bin/../x86_64-nacl/lib/libcrt_common.a(lib_a-sleep.o)
 .note.GNU-stack
                0x0000000000000000        0x0 /Users/jkwang/Desktop/nacl_sdk/pepper_canary/toolchain/mac_pnacl/bin/../x86_64-nacl/lib/libcrt_common.a(lib_a-sleep.o)
 .group         0x0000000000000000        0x8 /Users/jkwang/Desktop/nacl_sdk/pepper_canary/toolchain/mac_pnacl/bin/../x86_64-nacl/lib/libcrt_common.a(lib_a-stdio.o)
 .note.NaCl.ABI.x86-64
                0x0000000000000000       0x1c /Users/jkwang/Desktop/nacl_sdk/pepper_canary/toolchain/mac_pnacl/bin/../x86_64-nacl/lib/libcrt_common.a(lib_a-stdio.o)
 .note.GNU-stack
                0x0000000000000000        0x0 /Users/jkwang/Desktop/nacl_sdk/pepper_canary/toolchain/mac_pnacl/bin/../x86_64-nacl/lib/libcrt_common.a(lib_a-stdio.o)
 .group         0x0000000000000000        0x8 /Users/jkwang/Desktop/nacl_sdk/pepper_canary/toolchain/mac_pnacl/bin/../x86_64-nacl/lib/libcrt_common.a(lib_a-strcat.o)
 .note.NaCl.ABI.x86-64
                0x0000000000000000       0x1c /Users/jkwang/Desktop/nacl_sdk/pepper_canary/toolchain/mac_pnacl/bin/../x86_64-nacl/lib/libcrt_common.a(lib_a-strcat.o)
 .note.GNU-stack
                0x0000000000000000        0x0 /Users/jkwang/Desktop/nacl_sdk/pepper_canary/toolchain/mac_pnacl/bin/../x86_64-nacl/lib/libcrt_common.a(lib_a-strcat.o)
 .group         0x0000000000000000        0x8 /Users/jkwang/Desktop/nacl_sdk/pepper_canary/toolchain/mac_pnacl/bin/../x86_64-nacl/lib/libcrt_common.a(lib_a-strcmp.o)
 .note.NaCl.ABI.x86-64
                0x0000000000000000       0x1c /Users/jkwang/Desktop/nacl_sdk/pepper_canary/toolchain/mac_pnacl/bin/../x86_64-nacl/lib/libcrt_common.a(lib_a-strcmp.o)
 .note.GNU-stack
                0x0000000000000000        0x0 /Users/jkwang/Desktop/nacl_sdk/pepper_canary/toolchain/mac_pnacl/bin/../x86_64-nacl/lib/libcrt_common.a(lib_a-strcmp.o)
 .group         0x0000000000000000        0x8 /Users/jkwang/Desktop/nacl_sdk/pepper_canary/toolchain/mac_pnacl/bin/../x86_64-nacl/lib/libcrt_common.a(lib_a-strcpy.o)
 .note.NaCl.ABI.x86-64
                0x0000000000000000       0x1c /Users/jkwang/Desktop/nacl_sdk/pepper_canary/toolchain/mac_pnacl/bin/../x86_64-nacl/lib/libcrt_common.a(lib_a-strcpy.o)
 .note.GNU-stack
                0x0000000000000000        0x0 /Users/jkwang/Desktop/nacl_sdk/pepper_canary/toolchain/mac_pnacl/bin/../x86_64-nacl/lib/libcrt_common.a(lib_a-strcpy.o)
 .group         0x0000000000000000        0x8 /Users/jkwang/Desktop/nacl_sdk/pepper_canary/toolchain/mac_pnacl/bin/../x86_64-nacl/lib/libcrt_common.a(lib_a-strlen.o)
 .note.NaCl.ABI.x86-64
                0x0000000000000000       0x1c /Users/jkwang/Desktop/nacl_sdk/pepper_canary/toolchain/mac_pnacl/bin/../x86_64-nacl/lib/libcrt_common.a(lib_a-strlen.o)
 .note.GNU-stack
                0x0000000000000000        0x0 /Users/jkwang/Desktop/nacl_sdk/pepper_canary/toolchain/mac_pnacl/bin/../x86_64-nacl/lib/libcrt_common.a(lib_a-strlen.o)
 .group         0x0000000000000000        0x8 /Users/jkwang/Desktop/nacl_sdk/pepper_canary/toolchain/mac_pnacl/bin/../x86_64-nacl/lib/libcrt_common.a(lib_a-strncmp.o)
 .note.NaCl.ABI.x86-64
                0x0000000000000000       0x1c /Users/jkwang/Desktop/nacl_sdk/pepper_canary/toolchain/mac_pnacl/bin/../x86_64-nacl/lib/libcrt_common.a(lib_a-strncmp.o)
 .note.GNU-stack
                0x0000000000000000        0x0 /Users/jkwang/Desktop/nacl_sdk/pepper_canary/toolchain/mac_pnacl/bin/../x86_64-nacl/lib/libcrt_common.a(lib_a-strncmp.o)
 .group         0x0000000000000000        0x8 /Users/jkwang/Desktop/nacl_sdk/pepper_canary/toolchain/mac_pnacl/bin/../x86_64-nacl/lib/libcrt_common.a(lib_a-vfprintf.o)
 .note.NaCl.ABI.x86-64
                0x0000000000000000       0x1c /Users/jkwang/Desktop/nacl_sdk/pepper_canary/toolchain/mac_pnacl/bin/../x86_64-nacl/lib/libcrt_common.a(lib_a-vfprintf.o)
 .note.GNU-stack
                0x0000000000000000        0x0 /Users/jkwang/Desktop/nacl_sdk/pepper_canary/toolchain/mac_pnacl/bin/../x86_64-nacl/lib/libcrt_common.a(lib_a-vfprintf.o)
 .group         0x0000000000000000        0x8 /Users/jkwang/Desktop/nacl_sdk/pepper_canary/toolchain/mac_pnacl/bin/../x86_64-nacl/lib/libcrt_common.a(lib_a-vsnprintf.o)
 .note.NaCl.ABI.x86-64
                0x0000000000000000       0x1c /Users/jkwang/Desktop/nacl_sdk/pepper_canary/toolchain/mac_pnacl/bin/../x86_64-nacl/lib/libcrt_common.a(lib_a-vsnprintf.o)
 .note.GNU-stack
                0x0000000000000000        0x0 /Users/jkwang/Desktop/nacl_sdk/pepper_canary/toolchain/mac_pnacl/bin/../x86_64-nacl/lib/libcrt_common.a(lib_a-vsnprintf.o)
 .group         0x0000000000000000        0x8 /Users/jkwang/Desktop/nacl_sdk/pepper_canary/toolchain/mac_pnacl/bin/../x86_64-nacl/lib/libcrt_common.a(lib_a-vsprintf.o)
 .note.NaCl.ABI.x86-64
                0x0000000000000000       0x1c /Users/jkwang/Desktop/nacl_sdk/pepper_canary/toolchain/mac_pnacl/bin/../x86_64-nacl/lib/libcrt_common.a(lib_a-vsprintf.o)
 .note.GNU-stack
                0x0000000000000000        0x0 /Users/jkwang/Desktop/nacl_sdk/pepper_canary/toolchain/mac_pnacl/bin/../x86_64-nacl/lib/libcrt_common.a(lib_a-vsprintf.o)
 .group         0x0000000000000000        0x8 /Users/jkwang/Desktop/nacl_sdk/pepper_canary/toolchain/mac_pnacl/bin/../x86_64-nacl/lib/libcrt_common.a(lib_a-wcrtomb.o)
 .note.NaCl.ABI.x86-64
                0x0000000000000000       0x1c /Users/jkwang/Desktop/nacl_sdk/pepper_canary/toolchain/mac_pnacl/bin/../x86_64-nacl/lib/libcrt_common.a(lib_a-wcrtomb.o)
 .note.GNU-stack
                0x0000000000000000        0x0 /Users/jkwang/Desktop/nacl_sdk/pepper_canary/toolchain/mac_pnacl/bin/../x86_64-nacl/lib/libcrt_common.a(lib_a-wcrtomb.o)
 .group         0x0000000000000000        0x8 /Users/jkwang/Desktop/nacl_sdk/pepper_canary/toolchain/mac_pnacl/bin/../x86_64-nacl/lib/libcrt_common.a(lib_a-wcsrtombs.o)
 .note.NaCl.ABI.x86-64
                0x0000000000000000       0x1c /Users/jkwang/Desktop/nacl_sdk/pepper_canary/toolchain/mac_pnacl/bin/../x86_64-nacl/lib/libcrt_common.a(lib_a-wcsrtombs.o)
 .note.GNU-stack
                0x0000000000000000        0x0 /Users/jkwang/Desktop/nacl_sdk/pepper_canary/toolchain/mac_pnacl/bin/../x86_64-nacl/lib/libcrt_common.a(lib_a-wcsrtombs.o)
 .group         0x0000000000000000        0x8 /Users/jkwang/Desktop/nacl_sdk/pepper_canary/toolchain/mac_pnacl/bin/../x86_64-nacl/lib/libcrt_common.a(lib_a-wctomb_r.o)
 .note.NaCl.ABI.x86-64
                0x0000000000000000       0x1c /Users/jkwang/Desktop/nacl_sdk/pepper_canary/toolchain/mac_pnacl/bin/../x86_64-nacl/lib/libcrt_common.a(lib_a-wctomb_r.o)
 .note.GNU-stack
                0x0000000000000000        0x0 /Users/jkwang/Desktop/nacl_sdk/pepper_canary/toolchain/mac_pnacl/bin/../x86_64-nacl/lib/libcrt_common.a(lib_a-wctomb_r.o)
 .group         0x0000000000000000        0x8 /Users/jkwang/Desktop/nacl_sdk/pepper_canary/toolchain/mac_pnacl/bin/../x86_64-nacl/lib/libcrt_common.a(lib_a-wsetup.o)
 .note.NaCl.ABI.x86-64
                0x0000000000000000       0x1c /Users/jkwang/Desktop/nacl_sdk/pepper_canary/toolchain/mac_pnacl/bin/../x86_64-nacl/lib/libcrt_common.a(lib_a-wsetup.o)
 .note.GNU-stack
                0x0000000000000000        0x0 /Users/jkwang/Desktop/nacl_sdk/pepper_canary/toolchain/mac_pnacl/bin/../x86_64-nacl/lib/libcrt_common.a(lib_a-wsetup.o)
 .group         0x0000000000000000        0x8 /Users/jkwang/Desktop/nacl_sdk/pepper_canary/toolchain/mac_pnacl/bin/../x86_64-nacl/lib/libcrt_common.a(lib_a-__atexit.o)
 .note.NaCl.ABI.x86-64
                0x0000000000000000       0x1c /Users/jkwang/Desktop/nacl_sdk/pepper_canary/toolchain/mac_pnacl/bin/../x86_64-nacl/lib/libcrt_common.a(lib_a-__atexit.o)
 .note.GNU-stack
                0x0000000000000000        0x0 /Users/jkwang/Desktop/nacl_sdk/pepper_canary/toolchain/mac_pnacl/bin/../x86_64-nacl/lib/libcrt_common.a(lib_a-__atexit.o)
 .group         0x0000000000000000        0x8 /Users/jkwang/Desktop/nacl_sdk/pepper_canary/toolchain/mac_pnacl/bin/../x86_64-nacl/lib/libcrt_common.a(lib_a-__call_atexit.o)
 .note.NaCl.ABI.x86-64
                0x0000000000000000       0x1c /Users/jkwang/Desktop/nacl_sdk/pepper_canary/toolchain/mac_pnacl/bin/../x86_64-nacl/lib/libcrt_common.a(lib_a-__call_atexit.o)
 .note.GNU-stack
                0x0000000000000000        0x0 /Users/jkwang/Desktop/nacl_sdk/pepper_canary/toolchain/mac_pnacl/bin/../x86_64-nacl/lib/libcrt_common.a(lib_a-__call_atexit.o)
 .group         0x0000000000000000        0x8 /Users/jkwang/Desktop/nacl_sdk/pepper_canary/toolchain/mac_pnacl/bin/../x86_64-nacl/lib/libcrt_common.a(lib_a-dtoa.o)
 .note.NaCl.ABI.x86-64
                0x0000000000000000       0x1c /Users/jkwang/Desktop/nacl_sdk/pepper_canary/toolchain/mac_pnacl/bin/../x86_64-nacl/lib/libcrt_common.a(lib_a-dtoa.o)
 .note.GNU-stack
                0x0000000000000000        0x0 /Users/jkwang/Desktop/nacl_sdk/pepper_canary/toolchain/mac_pnacl/bin/../x86_64-nacl/lib/libcrt_common.a(lib_a-dtoa.o)
 .group         0x0000000000000000        0x8 /Users/jkwang/Desktop/nacl_sdk/pepper_canary/toolchain/mac_pnacl/bin/../x86_64-nacl/lib/libcrt_common.a(lib_a-envlock.o)
 .note.NaCl.ABI.x86-64
                0x0000000000000000       0x1c /Users/jkwang/Desktop/nacl_sdk/pepper_canary/toolchain/mac_pnacl/bin/../x86_64-nacl/lib/libcrt_common.a(lib_a-envlock.o)
 .note.GNU-stack
                0x0000000000000000        0x0 /Users/jkwang/Desktop/nacl_sdk/pepper_canary/toolchain/mac_pnacl/bin/../x86_64-nacl/lib/libcrt_common.a(lib_a-envlock.o)
 .group         0x0000000000000000        0x8 /Users/jkwang/Desktop/nacl_sdk/pepper_canary/toolchain/mac_pnacl/bin/../x86_64-nacl/lib/libcrt_common.a(lib_a-fclose.o)
 .note.NaCl.ABI.x86-64
                0x0000000000000000       0x1c /Users/jkwang/Desktop/nacl_sdk/pepper_canary/toolchain/mac_pnacl/bin/../x86_64-nacl/lib/libcrt_common.a(lib_a-fclose.o)
 .note.GNU-stack
                0x0000000000000000        0x0 /Users/jkwang/Desktop/nacl_sdk/pepper_canary/toolchain/mac_pnacl/bin/../x86_64-nacl/lib/libcrt_common.a(lib_a-fclose.o)
 .group         0x0000000000000000        0x8 /Users/jkwang/Desktop/nacl_sdk/pepper_canary/toolchain/mac_pnacl/bin/../x86_64-nacl/lib/libcrt_common.a(lib_a-fvwrite.o)
 .note.NaCl.ABI.x86-64
                0x0000000000000000       0x1c /Users/jkwang/Desktop/nacl_sdk/pepper_canary/toolchain/mac_pnacl/bin/../x86_64-nacl/lib/libcrt_common.a(lib_a-fvwrite.o)
 .note.GNU-stack
                0x0000000000000000        0x0 /Users/jkwang/Desktop/nacl_sdk/pepper_canary/toolchain/mac_pnacl/bin/../x86_64-nacl/lib/libcrt_common.a(lib_a-fvwrite.o)
 .group         0x0000000000000000        0x8 /Users/jkwang/Desktop/nacl_sdk/pepper_canary/toolchain/mac_pnacl/bin/../x86_64-nacl/lib/libcrt_common.a(lib_a-locale.o)
 .note.NaCl.ABI.x86-64
                0x0000000000000000       0x1c /Users/jkwang/Desktop/nacl_sdk/pepper_canary/toolchain/mac_pnacl/bin/../x86_64-nacl/lib/libcrt_common.a(lib_a-locale.o)
 .note.GNU-stack
                0x0000000000000000        0x0 /Users/jkwang/Desktop/nacl_sdk/pepper_canary/toolchain/mac_pnacl/bin/../x86_64-nacl/lib/libcrt_common.a(lib_a-locale.o)
 .group         0x0000000000000000        0x8 /Users/jkwang/Desktop/nacl_sdk/pepper_canary/toolchain/mac_pnacl/bin/../x86_64-nacl/lib/libcrt_common.a(lib_a-makebuf.o)
 .note.NaCl.ABI.x86-64
                0x0000000000000000       0x1c /Users/jkwang/Desktop/nacl_sdk/pepper_canary/toolchain/mac_pnacl/bin/../x86_64-nacl/lib/libcrt_common.a(lib_a-makebuf.o)
 .note.GNU-stack
                0x0000000000000000        0x0 /Users/jkwang/Desktop/nacl_sdk/pepper_canary/toolchain/mac_pnacl/bin/../x86_64-nacl/lib/libcrt_common.a(lib_a-makebuf.o)
 .group         0x0000000000000000        0x8 /Users/jkwang/Desktop/nacl_sdk/pepper_canary/toolchain/mac_pnacl/bin/../x86_64-nacl/lib/libcrt_common.a(lib_a-mbtowc_r.o)
 .note.NaCl.ABI.x86-64
                0x0000000000000000       0x1c /Users/jkwang/Desktop/nacl_sdk/pepper_canary/toolchain/mac_pnacl/bin/../x86_64-nacl/lib/libcrt_common.a(lib_a-mbtowc_r.o)
 .note.GNU-stack
                0x0000000000000000        0x0 /Users/jkwang/Desktop/nacl_sdk/pepper_canary/toolchain/mac_pnacl/bin/../x86_64-nacl/lib/libcrt_common.a(lib_a-mbtowc_r.o)
 .group         0x0000000000000000        0x8 /Users/jkwang/Desktop/nacl_sdk/pepper_canary/toolchain/mac_pnacl/bin/../x86_64-nacl/lib/libcrt_common.a(lib_a-memchr.o)
 .note.NaCl.ABI.x86-64
                0x0000000000000000       0x1c /Users/jkwang/Desktop/nacl_sdk/pepper_canary/toolchain/mac_pnacl/bin/../x86_64-nacl/lib/libcrt_common.a(lib_a-memchr.o)
 .note.GNU-stack
                0x0000000000000000        0x0 /Users/jkwang/Desktop/nacl_sdk/pepper_canary/toolchain/mac_pnacl/bin/../x86_64-nacl/lib/libcrt_common.a(lib_a-memchr.o)
 .group         0x0000000000000000        0x8 /Users/jkwang/Desktop/nacl_sdk/pepper_canary/toolchain/mac_pnacl/bin/../x86_64-nacl/lib/libcrt_common.a(lib_a-memmove.o)
 .note.NaCl.ABI.x86-64
                0x0000000000000000       0x1c /Users/jkwang/Desktop/nacl_sdk/pepper_canary/toolchain/mac_pnacl/bin/../x86_64-nacl/lib/libcrt_common.a(lib_a-memmove.o)
 .note.GNU-stack
                0x0000000000000000        0x0 /Users/jkwang/Desktop/nacl_sdk/pepper_canary/toolchain/mac_pnacl/bin/../x86_64-nacl/lib/libcrt_common.a(lib_a-memmove.o)
 .group         0x0000000000000000        0x8 /Users/jkwang/Desktop/nacl_sdk/pepper_canary/toolchain/mac_pnacl/bin/../x86_64-nacl/lib/libcrt_common.a(lib_a-mprec.o)
 .note.NaCl.ABI.x86-64
                0x0000000000000000       0x1c /Users/jkwang/Desktop/nacl_sdk/pepper_canary/toolchain/mac_pnacl/bin/../x86_64-nacl/lib/libcrt_common.a(lib_a-mprec.o)
 .note.GNU-stack
                0x0000000000000000        0x0 /Users/jkwang/Desktop/nacl_sdk/pepper_canary/toolchain/mac_pnacl/bin/../x86_64-nacl/lib/libcrt_common.a(lib_a-mprec.o)
 .group         0x0000000000000000        0x8 /Users/jkwang/Desktop/nacl_sdk/pepper_canary/toolchain/mac_pnacl/bin/../x86_64-nacl/lib/libcrt_common.a(lib_a-s_fpclassify.o)
 .note.NaCl.ABI.x86-64
                0x0000000000000000       0x1c /Users/jkwang/Desktop/nacl_sdk/pepper_canary/toolchain/mac_pnacl/bin/../x86_64-nacl/lib/libcrt_common.a(lib_a-s_fpclassify.o)
 .note.GNU-stack
                0x0000000000000000        0x0 /Users/jkwang/Desktop/nacl_sdk/pepper_canary/toolchain/mac_pnacl/bin/../x86_64-nacl/lib/libcrt_common.a(lib_a-s_fpclassify.o)
 .group         0x0000000000000000        0x8 /Users/jkwang/Desktop/nacl_sdk/pepper_canary/toolchain/mac_pnacl/bin/../x86_64-nacl/lib/libcrt_common.a(lib_a-s_frexp.o)
 .note.NaCl.ABI.x86-64
                0x0000000000000000       0x1c /Users/jkwang/Desktop/nacl_sdk/pepper_canary/toolchain/mac_pnacl/bin/../x86_64-nacl/lib/libcrt_common.a(lib_a-s_frexp.o)
 .note.GNU-stack
                0x0000000000000000        0x0 /Users/jkwang/Desktop/nacl_sdk/pepper_canary/toolchain/mac_pnacl/bin/../x86_64-nacl/lib/libcrt_common.a(lib_a-s_frexp.o)
 .group         0x0000000000000000        0x8 /Users/jkwang/Desktop/nacl_sdk/pepper_canary/toolchain/mac_pnacl/bin/../x86_64-nacl/lib/libcrt_common.a(lib_a-strcasecmp.o)
 .note.NaCl.ABI.x86-64
                0x0000000000000000       0x1c /Users/jkwang/Desktop/nacl_sdk/pepper_canary/toolchain/mac_pnacl/bin/../x86_64-nacl/lib/libcrt_common.a(lib_a-strcasecmp.o)
 .note.GNU-stack
                0x0000000000000000        0x0 /Users/jkwang/Desktop/nacl_sdk/pepper_canary/toolchain/mac_pnacl/bin/../x86_64-nacl/lib/libcrt_common.a(lib_a-strcasecmp.o)
 .group         0x0000000000000000        0x8 /Users/jkwang/Desktop/nacl_sdk/pepper_canary/toolchain/mac_pnacl/bin/../x86_64-nacl/lib/libcrt_common.a(lib_a-strchr.o)
 .note.NaCl.ABI.x86-64
                0x0000000000000000       0x1c /Users/jkwang/Desktop/nacl_sdk/pepper_canary/toolchain/mac_pnacl/bin/../x86_64-nacl/lib/libcrt_common.a(lib_a-strchr.o)
 .note.GNU-stack
                0x0000000000000000        0x0 /Users/jkwang/Desktop/nacl_sdk/pepper_canary/toolchain/mac_pnacl/bin/../x86_64-nacl/lib/libcrt_common.a(lib_a-strchr.o)
 .group         0x0000000000000000        0x8 /Users/jkwang/Desktop/nacl_sdk/pepper_canary/toolchain/mac_pnacl/bin/../x86_64-nacl/lib/libcrt_common.a(lib_a-strlcpy.o)
 .note.NaCl.ABI.x86-64
                0x0000000000000000       0x1c /Users/jkwang/Desktop/nacl_sdk/pepper_canary/toolchain/mac_pnacl/bin/../x86_64-nacl/lib/libcrt_common.a(lib_a-strlcpy.o)
 .note.GNU-stack
                0x0000000000000000        0x0 /Users/jkwang/Desktop/nacl_sdk/pepper_canary/toolchain/mac_pnacl/bin/../x86_64-nacl/lib/libcrt_common.a(lib_a-strlcpy.o)
 .group         0x0000000000000000        0x8 /Users/jkwang/Desktop/nacl_sdk/pepper_canary/toolchain/mac_pnacl/bin/../x86_64-nacl/lib/libcrt_common.a(lib_a-strncasecmp.o)
 .note.NaCl.ABI.x86-64
                0x0000000000000000       0x1c /Users/jkwang/Desktop/nacl_sdk/pepper_canary/toolchain/mac_pnacl/bin/../x86_64-nacl/lib/libcrt_common.a(lib_a-strncasecmp.o)
 .note.GNU-stack
                0x0000000000000000        0x0 /Users/jkwang/Desktop/nacl_sdk/pepper_canary/toolchain/mac_pnacl/bin/../x86_64-nacl/lib/libcrt_common.a(lib_a-strncasecmp.o)
 .group         0x0000000000000000        0x8 /Users/jkwang/Desktop/nacl_sdk/pepper_canary/toolchain/mac_pnacl/bin/../x86_64-nacl/lib/libcrt_common.a(lib_a-strncpy.o)
 .note.NaCl.ABI.x86-64
                0x0000000000000000       0x1c /Users/jkwang/Desktop/nacl_sdk/pepper_canary/toolchain/mac_pnacl/bin/../x86_64-nacl/lib/libcrt_common.a(lib_a-strncpy.o)
 .note.GNU-stack
                0x0000000000000000        0x0 /Users/jkwang/Desktop/nacl_sdk/pepper_canary/toolchain/mac_pnacl/bin/../x86_64-nacl/lib/libcrt_common.a(lib_a-strncpy.o)
 .group         0x0000000000000000        0x8 /Users/jkwang/Desktop/nacl_sdk/pepper_canary/toolchain/mac_pnacl/bin/../x86_64-nacl/lib/libcrt_common.a(lib_a-strtol.o)
 .note.NaCl.ABI.x86-64
                0x0000000000000000       0x1c /Users/jkwang/Desktop/nacl_sdk/pepper_canary/toolchain/mac_pnacl/bin/../x86_64-nacl/lib/libcrt_common.a(lib_a-strtol.o)
 .note.GNU-stack
                0x0000000000000000        0x0 /Users/jkwang/Desktop/nacl_sdk/pepper_canary/toolchain/mac_pnacl/bin/../x86_64-nacl/lib/libcrt_common.a(lib_a-strtol.o)
 .group         0x0000000000000000        0x8 /Users/jkwang/Desktop/nacl_sdk/pepper_canary/toolchain/mac_pnacl/bin/../x86_64-nacl/lib/libcrt_common.a(lib_a-svfprintf.o)
 .note.NaCl.ABI.x86-64
                0x0000000000000000       0x1c /Users/jkwang/Desktop/nacl_sdk/pepper_canary/toolchain/mac_pnacl/bin/../x86_64-nacl/lib/libcrt_common.a(lib_a-svfprintf.o)
 .note.GNU-stack
                0x0000000000000000        0x0 /Users/jkwang/Desktop/nacl_sdk/pepper_canary/toolchain/mac_pnacl/bin/../x86_64-nacl/lib/libcrt_common.a(lib_a-svfprintf.o)
 .group         0x0000000000000000        0x8 /Users/jkwang/Desktop/nacl_sdk/pepper_canary/toolchain/mac_pnacl/bin/../x86_64-nacl/lib/libcrt_common.a(lib_a-vfiprintf.o)
 .note.NaCl.ABI.x86-64
                0x0000000000000000       0x1c /Users/jkwang/Desktop/nacl_sdk/pepper_canary/toolchain/mac_pnacl/bin/../x86_64-nacl/lib/libcrt_common.a(lib_a-vfiprintf.o)
 .note.GNU-stack
                0x0000000000000000        0x0 /Users/jkwang/Desktop/nacl_sdk/pepper_canary/toolchain/mac_pnacl/bin/../x86_64-nacl/lib/libcrt_common.a(lib_a-vfiprintf.o)
 .group         0x0000000000000000        0x8 /Users/jkwang/Desktop/nacl_sdk/pepper_canary/toolchain/mac_pnacl/bin/../x86_64-nacl/lib/libcrt_common.a(lib_a-wcsnrtombs.o)
 .note.NaCl.ABI.x86-64
                0x0000000000000000       0x1c /Users/jkwang/Desktop/nacl_sdk/pepper_canary/toolchain/mac_pnacl/bin/../x86_64-nacl/lib/libcrt_common.a(lib_a-wcsnrtombs.o)
 .note.GNU-stack
                0x0000000000000000        0x0 /Users/jkwang/Desktop/nacl_sdk/pepper_canary/toolchain/mac_pnacl/bin/../x86_64-nacl/lib/libcrt_common.a(lib_a-wcsnrtombs.o)
 .group         0x0000000000000000        0x8 /Users/jkwang/Desktop/nacl_sdk/pepper_canary/toolchain/mac_pnacl/bin/../x86_64-nacl/lib/libcrt_common.a(lib_a-ctype_.o)
 .note.NaCl.ABI.x86-64
                0x0000000000000000       0x1c /Users/jkwang/Desktop/nacl_sdk/pepper_canary/toolchain/mac_pnacl/bin/../x86_64-nacl/lib/libcrt_common.a(lib_a-ctype_.o)
 .note.GNU-stack
                0x0000000000000000        0x0 /Users/jkwang/Desktop/nacl_sdk/pepper_canary/toolchain/mac_pnacl/bin/../x86_64-nacl/lib/libcrt_common.a(lib_a-ctype_.o)
 .group         0x0000000000000000        0x8 /Users/jkwang/Desktop/nacl_sdk/pepper_canary/toolchain/mac_pnacl/bin/../x86_64-nacl/lib/libcrt_common.a(lib_a-fputwc.o)
 .note.NaCl.ABI.x86-64
                0x0000000000000000       0x1c /Users/jkwang/Desktop/nacl_sdk/pepper_canary/toolchain/mac_pnacl/bin/../x86_64-nacl/lib/libcrt_common.a(lib_a-fputwc.o)
 .note.GNU-stack
                0x0000000000000000        0x0 /Users/jkwang/Desktop/nacl_sdk/pepper_canary/toolchain/mac_pnacl/bin/../x86_64-nacl/lib/libcrt_common.a(lib_a-fputwc.o)
 .group         0x0000000000000000        0x8 /Users/jkwang/Desktop/nacl_sdk/pepper_canary/toolchain/mac_pnacl/bin/../x86_64-nacl/lib/libcrt_common.a(lib_a-svfiprintf.o)
 .note.NaCl.ABI.x86-64
                0x0000000000000000       0x1c /Users/jkwang/Desktop/nacl_sdk/pepper_canary/toolchain/mac_pnacl/bin/../x86_64-nacl/lib/libcrt_common.a(lib_a-svfiprintf.o)
 .note.GNU-stack
                0x0000000000000000        0x0 /Users/jkwang/Desktop/nacl_sdk/pepper_canary/toolchain/mac_pnacl/bin/../x86_64-nacl/lib/libcrt_common.a(lib_a-svfiprintf.o)
 .group         0x0000000000000000        0x8 /Users/jkwang/Desktop/nacl_sdk/pepper_canary/toolchain/mac_pnacl/bin/../x86_64-nacl/lib/libcrt_common.a(lib_a-wbuf.o)
 .note.NaCl.ABI.x86-64
                0x0000000000000000       0x1c /Users/jkwang/Desktop/nacl_sdk/pepper_canary/toolchain/mac_pnacl/bin/../x86_64-nacl/lib/libcrt_common.a(lib_a-wbuf.o)
 .note.GNU-stack
                0x0000000000000000        0x0 /Users/jkwang/Desktop/nacl_sdk/pepper_canary/toolchain/mac_pnacl/bin/../x86_64-nacl/lib/libcrt_common.a(lib_a-wbuf.o)
 .group         0x0000000000000000        0x8 /Users/jkwang/Desktop/nacl_sdk/pepper_canary/toolchain/mac_pnacl/bin/../x86_64-nacl/lib/libnacl.a(close.o)
 .note.NaCl.ABI.x86-64
                0x0000000000000000       0x1c /Users/jkwang/Desktop/nacl_sdk/pepper_canary/toolchain/mac_pnacl/bin/../x86_64-nacl/lib/libnacl.a(close.o)
 .note.GNU-stack
                0x0000000000000000        0x0 /Users/jkwang/Desktop/nacl_sdk/pepper_canary/toolchain/mac_pnacl/bin/../x86_64-nacl/lib/libnacl.a(close.o)
 .group         0x0000000000000000        0x8 /Users/jkwang/Desktop/nacl_sdk/pepper_canary/toolchain/mac_pnacl/bin/../x86_64-nacl/lib/libnacl.a(fstat.o)
 .note.NaCl.ABI.x86-64
                0x0000000000000000       0x1c /Users/jkwang/Desktop/nacl_sdk/pepper_canary/toolchain/mac_pnacl/bin/../x86_64-nacl/lib/libnacl.a(fstat.o)
 .note.GNU-stack
                0x0000000000000000        0x0 /Users/jkwang/Desktop/nacl_sdk/pepper_canary/toolchain/mac_pnacl/bin/../x86_64-nacl/lib/libnacl.a(fstat.o)
 .group         0x0000000000000000        0x8 /Users/jkwang/Desktop/nacl_sdk/pepper_canary/toolchain/mac_pnacl/bin/../x86_64-nacl/lib/libnacl.a(isatty.o)
 .note.NaCl.ABI.x86-64
                0x0000000000000000       0x1c /Users/jkwang/Desktop/nacl_sdk/pepper_canary/toolchain/mac_pnacl/bin/../x86_64-nacl/lib/libnacl.a(isatty.o)
 .note.GNU-stack
                0x0000000000000000        0x0 /Users/jkwang/Desktop/nacl_sdk/pepper_canary/toolchain/mac_pnacl/bin/../x86_64-nacl/lib/libnacl.a(isatty.o)
 .group         0x0000000000000000        0x8 /Users/jkwang/Desktop/nacl_sdk/pepper_canary/toolchain/mac_pnacl/bin/../x86_64-nacl/lib/libnacl.a(lseek.o)
 .note.NaCl.ABI.x86-64
                0x0000000000000000       0x1c /Users/jkwang/Desktop/nacl_sdk/pepper_canary/toolchain/mac_pnacl/bin/../x86_64-nacl/lib/libnacl.a(lseek.o)
 .note.GNU-stack
                0x0000000000000000        0x0 /Users/jkwang/Desktop/nacl_sdk/pepper_canary/toolchain/mac_pnacl/bin/../x86_64-nacl/lib/libnacl.a(lseek.o)
 .group         0x0000000000000000        0x8 /Users/jkwang/Desktop/nacl_sdk/pepper_canary/toolchain/mac_pnacl/bin/../x86_64-nacl/lib/libnacl.a(nanosleep.o)
 .note.NaCl.ABI.x86-64
                0x0000000000000000       0x1c /Users/jkwang/Desktop/nacl_sdk/pepper_canary/toolchain/mac_pnacl/bin/../x86_64-nacl/lib/libnacl.a(nanosleep.o)
 .note.GNU-stack
                0x0000000000000000        0x0 /Users/jkwang/Desktop/nacl_sdk/pepper_canary/toolchain/mac_pnacl/bin/../x86_64-nacl/lib/libnacl.a(nanosleep.o)
 .group         0x0000000000000000        0x8 /Users/jkwang/Desktop/nacl_sdk/pepper_canary/toolchain/mac_pnacl/bin/../x86_64-nacl/lib/libnacl.a(nacl_irt_fdio.o)
 .note.NaCl.ABI.x86-64
                0x0000000000000000       0x1c /Users/jkwang/Desktop/nacl_sdk/pepper_canary/toolchain/mac_pnacl/bin/../x86_64-nacl/lib/libnacl.a(nacl_irt_fdio.o)
 .note.GNU-stack
                0x0000000000000000        0x0 /Users/jkwang/Desktop/nacl_sdk/pepper_canary/toolchain/mac_pnacl/bin/../x86_64-nacl/lib/libnacl.a(nacl_irt_fdio.o)
 .group         0x0000000000000000        0x8 /Users/jkwang/Desktop/nacl_sdk/pepper_canary/toolchain/mac_pnacl/bin/../x86_64-nacl/lib/libnacl.a(read.o)
 .note.NaCl.ABI.x86-64
                0x0000000000000000       0x1c /Users/jkwang/Desktop/nacl_sdk/pepper_canary/toolchain/mac_pnacl/bin/../x86_64-nacl/lib/libnacl.a(read.o)
 .note.GNU-stack
                0x0000000000000000        0x0 /Users/jkwang/Desktop/nacl_sdk/pepper_canary/toolchain/mac_pnacl/bin/../x86_64-nacl/lib/libnacl.a(read.o)
 .note.GNU-stack
                0x0000000000000000        0x0 /Users/jkwang/Desktop/nacl_sdk/pepper_canary/toolchain/mac_pnacl/bin/../lib/clang/3.7.0/lib/x86_64-nacl/libgcc_eh.a(unwind-dw2-fde-glibc.o)
 .group         0x0000000000000000        0x8 /Users/jkwang/Desktop/nacl_sdk/pepper_canary/toolchain/mac_pnacl/bin/../lib/clang/3.7.0/lib/x86_64-nacl/crtend.o
 .note.NaCl.ABI.x86-64
                0x0000000000000000       0x1c /Users/jkwang/Desktop/nacl_sdk/pepper_canary/toolchain/mac_pnacl/bin/../lib/clang/3.7.0/lib/x86_64-nacl/crtend.o
 .note.GNU-stack
                0x0000000000000000        0x0 /Users/jkwang/Desktop/nacl_sdk/pepper_canary/toolchain/mac_pnacl/bin/../lib/clang/3.7.0/lib/x86_64-nacl/crtend.o

Memory Configuration

Name             Origin             Length             Attributes
*default*        0x0000000000000000 0xffffffffffffffff

Linker script and memory map

LOAD /Users/jkwang/Desktop/nacl_sdk/pepper_canary/toolchain/mac_pnacl/bin/../x86_64-nacl/lib/crt1.o
LOAD /Users/jkwang/Desktop/nacl_sdk/pepper_canary/toolchain/mac_pnacl/bin/../x86_64-nacl/lib/crti.o
LOAD /Users/jkwang/Desktop/nacl_sdk/pepper_canary/toolchain/mac_pnacl/bin/../lib/clang/3.7.0/lib/x86_64-nacl/crtbeginT.o
LOAD clang-newlib/Release/debugging_x86_64.o
LOAD /Users/jkwang/Desktop/nacl_sdk/pepper_canary/lib/clang-newlib_x86_64/Release/liberror_handling.a
LOAD /Users/jkwang/Desktop/nacl_sdk/pepper_canary/toolchain/mac_pnacl/bin/../x86_64-nacl/lib/libppapi.a
LOAD /Users/jkwang/Desktop/nacl_sdk/pepper_canary/toolchain/mac_pnacl/bin/../x86_64-nacl/lib/libppapi_stub.a
LOAD /Users/jkwang/Desktop/nacl_sdk/pepper_canary/toolchain/mac_pnacl/bin/../x86_64-nacl/lib/libpthread.a
LOAD /Users/jkwang/Desktop/nacl_sdk/pepper_canary/toolchain/mac_pnacl/bin/../x86_64-nacl/lib/libc++.a
LOAD /Users/jkwang/Desktop/nacl_sdk/pepper_canary/toolchain/mac_pnacl/bin/../x86_64-nacl/lib/libm.a
START GROUP
LOAD /Users/jkwang/Desktop/nacl_sdk/pepper_canary/toolchain/mac_pnacl/bin/../x86_64-nacl/lib/libc.a
START GROUP
LOAD /Users/jkwang/Desktop/nacl_sdk/pepper_canary/toolchain/mac_pnacl/bin/../x86_64-nacl/lib/libnacl.a
LOAD /Users/jkwang/Desktop/nacl_sdk/pepper_canary/toolchain/mac_pnacl/bin/../x86_64-nacl/lib/libcrt_common.a
END GROUP
LOAD /Users/jkwang/Desktop/nacl_sdk/pepper_canary/toolchain/mac_pnacl/bin/../x86_64-nacl/lib/libpthread.a
LOAD /Users/jkwang/Desktop/nacl_sdk/pepper_canary/toolchain/mac_pnacl/bin/../lib/clang/3.7.0/lib/x86_64-nacl/libgcc.a
LOAD /Users/jkwang/Desktop/nacl_sdk/pepper_canary/toolchain/mac_pnacl/bin/../lib/clang/3.7.0/lib/x86_64-nacl/libgcc_eh.a
END GROUP
LOAD /Users/jkwang/Desktop/nacl_sdk/pepper_canary/toolchain/mac_pnacl/bin/../lib/clang/3.7.0/lib/x86_64-nacl/crtend.o
LOAD /Users/jkwang/Desktop/nacl_sdk/pepper_canary/toolchain/mac_pnacl/bin/../x86_64-nacl/lib/crtn.o
                0x0000000000020000                PROVIDE (__executable_start, 0x20000)
                0x0000000000020000                . = 0x20000

.init
 *(SORT(.init))

.plt            0x0000000000020000        0x0
 *(.plt)
 *(.iplt)
 .iplt          0x0000000000000000        0x0 /Users/jkwang/Desktop/nacl_sdk/pepper_canary/toolchain/mac_pnacl/bin/../lib/clang/3.7.0/lib/x86_64-nacl/crtbeginT.o

.text           0x0000000000020000    0x295a0
 *(.text.unlikely .text.*_unlikely .text.unlikely.*)
 *(.text.exit .text.exit.*)
 .text.exit     0x0000000000020000       0x80 /Users/jkwang/Desktop/nacl_sdk/pepper_canary/toolchain/mac_pnacl/bin/../x86_64-nacl/lib/libcrt_common.a(lib_a-exit.o)
                0x0000000000020000                exit
 *(.text.startup .text.startup.*)
 *(.text.hot .text.hot.*)
 *(.text .stub .text.* .gnu.linkonce.t.*)
 .text          0x0000000000020080       0x40 /Users/jkwang/Desktop/nacl_sdk/pepper_canary/toolchain/mac_pnacl/bin/../x86_64-nacl/lib/crti.o
                0x0000000000020080                _init
                0x00000000000200a0                _fini
 .text          0x00000000000200c0       0x60 /Users/jkwang/Desktop/nacl_sdk/pepper_canary/toolchain/mac_pnacl/bin/../lib/clang/3.7.0/lib/x86_64-nacl/crtbeginT.o
 .text          0x0000000000020120      0x6e0 clang-newlib/Release/debugging_x86_64.o
                0x0000000000020120                layer5
                0x0000000000020160                layer4
                0x00000000000201a0                layer3
                0x00000000000201e0                layer2
                0x0000000000020220                layer1
                0x0000000000020260                NexeMain
                0x00000000000202c0                PostMessage
                0x0000000000020440                DumpJson
                0x0000000000020500                PPP_InitializeModule
                0x00000000000205a0                PPP_GetInterface
                0x00000000000207e0                PPP_ShutdownModule
 .text          0x0000000000020800      0x960 /Users/jkwang/Desktop/nacl_sdk/pepper_canary/lib/clang-newlib_x86_64/Release/liberror_handling.a(error_handling_x86_64.o)
                0x0000000000020800                EHGetTopFrame
                0x0000000000020860                EHUnwindFrame
                0x00000000000208e0                EHDefaultJsonHandler
                0x0000000000020cc0                EHRequestExceptionsRaw
                0x0000000000020ec0                EHRequestExceptionStackOnThread
                0x00000000000210c0                EHRequestExceptionsJson
                0x0000000000021120                EHHanderInstalled
 .text          0x0000000000021160      0x260 /Users/jkwang/Desktop/nacl_sdk/pepper_canary/lib/clang-newlib_x86_64/Release/liberror_handling.a(string_stream_x86_64.o)
                0x0000000000021160                ssinit
                0x00000000000211a0                ssfree
                0x0000000000021200                ssvprintf
                0x0000000000021300                ssprintf
 .text          0x00000000000213c0        0x0 /Users/jkwang/Desktop/nacl_sdk/pepper_canary/toolchain/mac_pnacl/bin/../x86_64-nacl/lib/libppapi_stub.a(plugin_main_irt.o)
 .text.main     0x00000000000213c0       0x20 /Users/jkwang/Desktop/nacl_sdk/pepper_canary/toolchain/mac_pnacl/bin/../x86_64-nacl/lib/libppapi_stub.a(plugin_main_irt.o)
                0x00000000000213c0                main
 .text          0x00000000000213e0        0x0 /Users/jkwang/Desktop/nacl_sdk/pepper_canary/toolchain/mac_pnacl/bin/../x86_64-nacl/lib/libppapi_stub.a(ppapi_plugin_main.o)
 .text.PpapiPluginMain
                0x00000000000213e0       0x20 /Users/jkwang/Desktop/nacl_sdk/pepper_canary/toolchain/mac_pnacl/bin/../x86_64-nacl/lib/libppapi_stub.a(ppapi_plugin_main.o)
                0x00000000000213e0                PpapiPluginMain
 .text          0x0000000000021400        0x0 /Users/jkwang/Desktop/nacl_sdk/pepper_canary/toolchain/mac_pnacl/bin/../x86_64-nacl/lib/libppapi_stub.a(ppapi_plugin_start.o)
 .text.PpapiPluginStart
                0x0000000000021400      0x140 /Users/jkwang/Desktop/nacl_sdk/pepper_canary/toolchain/mac_pnacl/bin/../x86_64-nacl/lib/libppapi_stub.a(ppapi_plugin_start.o)
                0x0000000000021400                PpapiPluginStart
 .text.fatal_error
                0x0000000000021540       0x60 /Users/jkwang/Desktop/nacl_sdk/pepper_canary/toolchain/mac_pnacl/bin/../x86_64-nacl/lib/libppapi_stub.a(ppapi_plugin_start.o)
 .text          0x00000000000215a0        0x0 /Users/jkwang/Desktop/nacl_sdk/pepper_canary/toolchain/mac_pnacl/bin/../x86_64-nacl/lib/libppapi_stub.a(thread_creator.o)
 .text.__nacl_register_thread_creator
                0x00000000000215a0       0x40 /Users/jkwang/Desktop/nacl_sdk/pepper_canary/toolchain/mac_pnacl/bin/../x86_64-nacl/lib/libppapi_stub.a(thread_creator.o)
                0x00000000000215a0                __nacl_register_thread_creator
 .text.thread_create
                0x00000000000215e0       0x40 /Users/jkwang/Desktop/nacl_sdk/pepper_canary/toolchain/mac_pnacl/bin/../x86_64-nacl/lib/libppapi_stub.a(thread_creator.o)
 .text.thread_join
                0x0000000000021620       0x20 /Users/jkwang/Desktop/nacl_sdk/pepper_canary/toolchain/mac_pnacl/bin/../x86_64-nacl/lib/libppapi_stub.a(thread_creator.o)
 .text          0x0000000000021640     0x1ba0 /Users/jkwang/Desktop/nacl_sdk/pepper_canary/toolchain/mac_pnacl/bin/../x86_64-nacl/lib/libpthread.a(nc_thread.o)
                0x0000000000021640                __nc_initialize_globals
                0x00000000000216c0                __nc_initialize_unjoinable_thread
                0x0000000000021780                __pthread_initialize
                0x00000000000218c0                pthread_create
                0x0000000000021f40                pthread_cleanup_push
                0x0000000000021fc0                pthread_cleanup_pop
                0x00000000000220a0                pthread_exit
                0x0000000000022600                __nc_tsd_exit
                0x00000000000227c0                pthread_join
                0x0000000000022980                pthread_self
                0x00000000000229c0                pthread_detach
                0x0000000000022aa0                pthread_kill
                0x0000000000022ac0                pthread_equal
                0x0000000000022ae0                pthread_setschedprio
                0x0000000000022b60                pthread_attr_init
                0x0000000000022ba0                pthread_attr_destroy
                0x0000000000022bc0                pthread_attr_setdetachstate
                0x0000000000022be0                pthread_attr_getdetachstate
                0x0000000000022c00                pthread_attr_setscope
                0x0000000000022c40                pthread_attr_getscope
                0x0000000000022c60                pthread_attr_setstacksize
                0x0000000000022ca0                pthread_attr_getstacksize
                0x0000000000022ce0                __local_lock_init
                0x0000000000022d60                __local_lock_init_recursive
                0x0000000000022de0                __local_lock_close
                0x0000000000022e00                __local_lock_close_recursive
                0x0000000000022e20                __local_lock_acquire
                0x0000000000022e40                __local_lock_acquire_recursive
                0x0000000000022e60                __local_lock_try_acquire
                0x0000000000022ea0                __local_lock_try_acquire_recursive
                0x0000000000022ee0                __local_lock_release
                0x0000000000022f00                __local_lock_release_recursive
                0x0000000000022f20                pthread_key_create
                0x0000000000022fe0                pthread_key_delete
                0x0000000000023040                pthread_setspecific
                0x0000000000023160                pthread_getspecific
 .text          0x00000000000231e0      0x880 /Users/jkwang/Desktop/nacl_sdk/pepper_canary/toolchain/mac_pnacl/bin/../x86_64-nacl/lib/libpthread.a(nc_mutex.o)
                0x00000000000231e0                pthread_mutex_init
                0x0000000000023240                pthread_mutex_destroy
                0x00000000000232a0                pthread_mutex_trylock
                0x0000000000023340                pthread_mutex_lock
                0x00000000000234e0                pthread_mutex_timedlock
                0x0000000000023700                pthread_mutex_unlock
                0x0000000000023820                pthread_once
                0x0000000000023980                pthread_mutexattr_init
                0x00000000000239a0                pthread_mutexattr_destroy
                0x00000000000239c0                pthread_mutexattr_settype
                0x00000000000239e0                pthread_mutexattr_gettype
                0x0000000000023a00                pthread_mutexattr_setpshared
                0x0000000000023a40                pthread_mutexattr_getpshared
 .text          0x0000000000023a60      0x3c0 /Users/jkwang/Desktop/nacl_sdk/pepper_canary/toolchain/mac_pnacl/bin/../x86_64-nacl/lib/libpthread.a(nc_condvar.o)
                0x0000000000023a60                pthread_cond_init
                0x0000000000023a80                pthread_cond_destroy
                0x0000000000023aa0                pthread_cond_signal
                0x0000000000023b00                pthread_cond_broadcast
                0x0000000000023b60                pthread_cond_wait
                0x0000000000023c40                pthread_cond_timedwait_abs
                0x0000000000023d20                pthread_condattr_init
                0x0000000000023d40                pthread_condattr_destroy
                0x0000000000023d60                pthread_condattr_getpshared
                0x0000000000023d80                pthread_condattr_setpshared
                0x0000000000023dc0                pthread_condattr_getclock
                0x0000000000023de0                pthread_condattr_setclock
 .text          0x0000000000023e20      0x500 /Users/jkwang/Desktop/nacl_sdk/pepper_canary/toolchain/mac_pnacl/bin/../x86_64-nacl/lib/libpthread.a(valgrind_annotations.o)
                0x0000000000023e20                NACL_AnnotateRWLockCreate
                0x0000000000023e40                NACL_AnnotateRWLockDestroy
                0x0000000000023e60                NACL_AnnotateRWLockAcquired
                0x0000000000023e80                NACL_AnnotateRWLockReleased
                0x0000000000023ea0                NACL_AnnotateBarrierInit
                0x0000000000023ec0                NACL_AnnotateBarrierWaitBefore
                0x0000000000023ee0                NACL_AnnotateBarrierWaitAfter
                0x0000000000023f00                NACL_AnnotateBarrierDestroy
                0x0000000000023f20                NACL_AnnotateCondVarWait
                0x0000000000023f40                NACL_AnnotateCondVarSignal
                0x0000000000023f60                NACL_AnnotateCondVarSignalAll
                0x0000000000023f80                NACL_AnnotateHappensBefore
                0x0000000000023fa0                NACL_AnnotateHappensAfter
                0x0000000000023fc0                NACL_AnnotatePublishMemoryRange
                0x0000000000023fe0                NACL_AnnotateUnpublishMemoryRange
                0x0000000000024000                NACL_AnnotatePCQCreate
                0x0000000000024020                NACL_AnnotatePCQDestroy
                0x0000000000024040                NACL_AnnotatePCQPut
                0x0000000000024060                NACL_AnnotatePCQGet
                0x0000000000024080                NACL_AnnotateNewMemory
                0x00000000000240a0                NACL_AnnotateExpectRace
                0x00000000000240c0                NACL_AnnotateFlushExpectedRaces
                0x00000000000240e0                NACL_AnnotateBenignRace
                0x0000000000024100                NACL_AnnotateBenignRaceSized
                0x0000000000024120                NACL_AnnotateMutexIsUsedAsCondVar
                0x0000000000024140                NACL_AnnotateMutexIsNotPHB
                0x0000000000024160                NACL_AnnotateTraceMemory
                0x0000000000024180                NACL_AnnotateThreadName
                0x00000000000241a0                NACL_AnnotateIgnoreReadsBegin
                0x00000000000241c0                NACL_AnnotateIgnoreReadsEnd
                0x00000000000241e0                NACL_AnnotateIgnoreWritesBegin
                0x0000000000024200                NACL_AnnotateIgnoreWritesEnd
                0x0000000000024220                NACL_AnnotateIgnoreSyncBegin
                0x0000000000024240                NACL_AnnotateIgnoreSyncEnd
                0x0000000000024260                NACL_AnnotateEnableRaceDetection
                0x0000000000024280                NACL_AnnotateNoOp
                0x00000000000242a0                NACL_AnnotateFlushState
                0x00000000000242c0                RunningOnValgrind
 .text          0x0000000000024320       0x40 /Users/jkwang/Desktop/nacl_sdk/pepper_canary/toolchain/mac_pnacl/bin/../x86_64-nacl/lib/libpthread.a(nc_init_irt.o)
                0x0000000000024320                __nc_initialize_interfaces
 .text          0x0000000000024360      0x320 /Users/jkwang/Desktop/nacl_sdk/pepper_canary/toolchain/mac_pnacl/bin/../x86_64-nacl/lib/libnacl.a(nacl_irt.o)
                0x0000000000024460                __libnacl_irt_query
                0x0000000000024560                __libnacl_mandatory_irt_query
                0x00000000000245e0                __libnacl_irt_init_fn
 .text          0x0000000000024680       0x40 /Users/jkwang/Desktop/nacl_sdk/pepper_canary/toolchain/mac_pnacl/bin/../x86_64-nacl/lib/libnacl.a(_exit.o)
                0x0000000000024680                _exit
 .text          0x00000000000246c0       0xa0 /Users/jkwang/Desktop/nacl_sdk/pepper_canary/toolchain/mac_pnacl/bin/../x86_64-nacl/lib/libnacl.a(mmap.o)
                0x00000000000246c0                mmap
 .text          0x0000000000024760       0x60 /Users/jkwang/Desktop/nacl_sdk/pepper_canary/toolchain/mac_pnacl/bin/../x86_64-nacl/lib/libnacl.a(munmap.o)
                0x0000000000024760                munmap
 .text          0x00000000000247c0       0x40 /Users/jkwang/Desktop/nacl_sdk/pepper_canary/toolchain/mac_pnacl/bin/../x86_64-nacl/lib/libnacl.a(nacl_interface_query.o)
                0x00000000000247c0                nacl_interface_query
 .text          0x0000000000024800       0xa0 /Users/jkwang/Desktop/nacl_sdk/pepper_canary/toolchain/mac_pnacl/bin/../x86_64-nacl/lib/libnacl.a(write.o)
                0x0000000000024800                write
 .text          0x00000000000248a0        0x0 /Users/jkwang/Desktop/nacl_sdk/pepper_canary/toolchain/mac_pnacl/bin/../x86_64-nacl/lib/libnacl.a(environ.o)
 .text          0x00000000000248a0     0x5ee0 /Users/jkwang/Desktop/nacl_sdk/pepper_canary/toolchain/mac_pnacl/bin/../x86_64-nacl/lib/libnacl.a(malloc.o)
                0x00000000000248a0                malloc
                0x0000000000026720                free
                0x0000000000027b00                calloc
                0x0000000000027ba0                realloc
                0x0000000000028320                realloc_in_place
                0x0000000000028440                memalign
                0x00000000000286e0                posix_memalign
                0x00000000000287a0                valloc
                0x0000000000028900                pvalloc
                0x0000000000028a60                independent_calloc
                0x0000000000028fe0                independent_comalloc
                0x0000000000029000                bulk_free
                0x00000000000291c0                malloc_trim
                0x0000000000029380                malloc_footprint
                0x00000000000293a0                malloc_max_footprint
                0x00000000000293c0                malloc_footprint_limit
                0x00000000000293e0                malloc_set_footprint_limit
                0x0000000000029420                mallinfo
                0x0000000000029740                malloc_stats
                0x0000000000029a80                mallopt
                0x0000000000029c20                malloc_usable_size
                0x0000000000029c60                _malloc_r
                0x0000000000029c80                _calloc_r
                0x0000000000029d20                _realloc_r
                0x0000000000029d40                _free_r
 .text          0x000000000002a780      0x140 /Users/jkwang/Desktop/nacl_sdk/pepper_canary/toolchain/mac_pnacl/bin/../x86_64-nacl/lib/libnacl.a(start.o)
                0x000000000002a780                _start
 .text          0x000000000002a8c0       0x40 /Users/jkwang/Desktop/nacl_sdk/pepper_canary/toolchain/mac_pnacl/bin/../x86_64-nacl/lib/libnacl.a(nacl_add_tp.o)
                0x000000000002a8c0                __nacl_add_tp
 .text          0x000000000002a900       0x20 /Users/jkwang/Desktop/nacl_sdk/pepper_canary/toolchain/mac_pnacl/bin/../x86_64-nacl/lib/libnacl.a(nacl_read_tp.o)
                0x000000000002a900                __nacl_read_tp
 .text          0x000000000002a920       0xe0 /Users/jkwang/Desktop/nacl_sdk/pepper_canary/toolchain/mac_pnacl/bin/../x86_64-nacl/lib/libnacl.a(pthread_initialize_minimal.o)
                0x000000000002a920                __pthread_initialize_minimal
 .text          0x000000000002aa00      0x380 /Users/jkwang/Desktop/nacl_sdk/pepper_canary/toolchain/mac_pnacl/bin/../x86_64-nacl/lib/libnacl.a(tls.o)
                0x000000000002aa00                __nacl_tls_initialize_memory
                0x000000000002ad20                __nacl_tls_combined_size
 .text          0x000000000002ad80      0x180 /Users/jkwang/Desktop/nacl_sdk/pepper_canary/toolchain/mac_pnacl/bin/../x86_64-nacl/lib/libnacl.a(nacl_irt_init.o)
                0x000000000002ad80                __libnacl_irt_init
 .text          0x000000000002af00       0x20 /Users/jkwang/Desktop/nacl_sdk/pepper_canary/toolchain/mac_pnacl/bin/../x86_64-nacl/lib/libnacl.a(nacl_tls_get.o)
                0x000000000002af00                nacl_tls_get
 .text          0x000000000002af20       0x20 /Users/jkwang/Desktop/nacl_sdk/pepper_canary/toolchain/mac_pnacl/bin/../x86_64-nacl/lib/libnacl.a(nacl_tls_init.o)
                0x000000000002af20                nacl_tls_init
 .text          0x000000000002af40       0x40 /Users/jkwang/Desktop/nacl_sdk/pepper_canary/toolchain/mac_pnacl/bin/../x86_64-nacl/lib/libnacl.a(abort.o)
                0x000000000002af40                abort
 .text          0x000000000002af80       0x60 /Users/jkwang/Desktop/nacl_sdk/pepper_canary/toolchain/mac_pnacl/bin/../x86_64-nacl/lib/libnacl.a(sched_yield.o)
                0x000000000002af80                sched_yield
 .text          0x000000000002afe0       0xa0 /Users/jkwang/Desktop/nacl_sdk/pepper_canary/toolchain/mac_pnacl/bin/../x86_64-nacl/lib/libnacl.a(sysconf.o)
                0x000000000002afe0                sysconf
 .text          0x000000000002b080        0x0 /Users/jkwang/Desktop/nacl_sdk/pepper_canary/toolchain/mac_pnacl/bin/../x86_64-nacl/lib/libcrt_common.a(lib_a-atexit.o)
 .text.atexit   0x000000000002b080       0x40 /Users/jkwang/Desktop/nacl_sdk/pepper_canary/toolchain/mac_pnacl/bin/../x86_64-nacl/lib/libcrt_common.a(lib_a-atexit.o)
                0x000000000002b080                atexit
 .text          0x000000000002b0c0        0x0 /Users/jkwang/Desktop/nacl_sdk/pepper_canary/toolchain/mac_pnacl/bin/../x86_64-nacl/lib/libcrt_common.a(lib_a-errno.o)
 .text.__errno  0x000000000002b0c0       0x60 /Users/jkwang/Desktop/nacl_sdk/pepper_canary/toolchain/mac_pnacl/bin/../x86_64-nacl/lib/libcrt_common.a(lib_a-errno.o)
                0x000000000002b0c0                __errno
 .text          0x000000000002b120        0x0 /Users/jkwang/Desktop/nacl_sdk/pepper_canary/toolchain/mac_pnacl/bin/../x86_64-nacl/lib/libcrt_common.a(lib_a-exit.o)
 .text          0x000000000002b120        0x0 /Users/jkwang/Desktop/nacl_sdk/pepper_canary/toolchain/mac_pnacl/bin/../x86_64-nacl/lib/libcrt_common.a(lib_a-fflush.o)
 .text.__sflush_r
                0x000000000002b120      0x360 /Users/jkwang/Desktop/nacl_sdk/pepper_canary/toolchain/mac_pnacl/bin/../x86_64-nacl/lib/libcrt_common.a(lib_a-fflush.o)
                0x000000000002b120                __sflush_r
 .text._fflush_r
                0x000000000002b480      0x100 /Users/jkwang/Desktop/nacl_sdk/pepper_canary/toolchain/mac_pnacl/bin/../x86_64-nacl/lib/libcrt_common.a(lib_a-fflush.o)
                0x000000000002b480                _fflush_r
 .text.fflush   0x000000000002b580      0x160 /Users/jkwang/Desktop/nacl_sdk/pepper_canary/toolchain/mac_pnacl/bin/../x86_64-nacl/lib/libcrt_common.a(lib_a-fflush.o)
                0x000000000002b580                fflush
 .text          0x000000000002b6e0        0x0 /Users/jkwang/Desktop/nacl_sdk/pepper_canary/toolchain/mac_pnacl/bin/../x86_64-nacl/lib/libcrt_common.a(lib_a-findfp.o)
 .text.__sfmoreglue
                0x000000000002b6e0       0xc0 /Users/jkwang/Desktop/nacl_sdk/pepper_canary/toolchain/mac_pnacl/bin/../x86_64-nacl/lib/libcrt_common.a(lib_a-findfp.o)
                0x000000000002b6e0                __sfmoreglue
 .text.__sfp    0x000000000002b7a0      0x2a0 /Users/jkwang/Desktop/nacl_sdk/pepper_canary/toolchain/mac_pnacl/bin/../x86_64-nacl/lib/libcrt_common.a(lib_a-findfp.o)
                0x000000000002b7a0                __sfp
 .text.__sinit  0x000000000002ba40      0x420 /Users/jkwang/Desktop/nacl_sdk/pepper_canary/toolchain/mac_pnacl/bin/../x86_64-nacl/lib/libcrt_common.a(lib_a-findfp.o)
                0x000000000002ba40                __sinit
 .text.__sfp_lock_acquire
                0x000000000002be60       0x20 /Users/jkwang/Desktop/nacl_sdk/pepper_canary/toolchain/mac_pnacl/bin/../x86_64-nacl/lib/libcrt_common.a(lib_a-findfp.o)
                0x000000000002be60                __sfp_lock_acquire
 .text.__sfp_lock_release
                0x000000000002be80       0x20 /Users/jkwang/Desktop/nacl_sdk/pepper_canary/toolchain/mac_pnacl/bin/../x86_64-nacl/lib/libcrt_common.a(lib_a-findfp.o)
                0x000000000002be80                __sfp_lock_release
 .text._cleanup_r
                0x000000000002bea0       0x20 /Users/jkwang/Desktop/nacl_sdk/pepper_canary/toolchain/mac_pnacl/bin/../x86_64-nacl/lib/libcrt_common.a(lib_a-findfp.o)
                0x000000000002bea0                _cleanup_r
 .text._cleanup
                0x000000000002bec0       0x40 /Users/jkwang/Desktop/nacl_sdk/pepper_canary/toolchain/mac_pnacl/bin/../x86_64-nacl/lib/libcrt_common.a(lib_a-findfp.o)
                0x000000000002bec0                _cleanup
 .text.__sinit_lock_acquire
                0x000000000002bf00       0x20 /Users/jkwang/Desktop/nacl_sdk/pepper_canary/toolchain/mac_pnacl/bin/../x86_64-nacl/lib/libcrt_common.a(lib_a-findfp.o)
                0x000000000002bf00                __sinit_lock_acquire
 .text.__sinit_lock_release
                0x000000000002bf20       0x20 /Users/jkwang/Desktop/nacl_sdk/pepper_canary/toolchain/mac_pnacl/bin/../x86_64-nacl/lib/libcrt_common.a(lib_a-findfp.o)
                0x000000000002bf20                __sinit_lock_release
 .text.__fp_lock_all
                0x000000000002bf40       0x80 /Users/jkwang/Desktop/nacl_sdk/pepper_canary/toolchain/mac_pnacl/bin/../x86_64-nacl/lib/libcrt_common.a(lib_a-findfp.o)
                0x000000000002bf40                __fp_lock_all
 .text.__fp_lock
                0x000000000002bfc0       0x40 /Users/jkwang/Desktop/nacl_sdk/pepper_canary/toolchain/mac_pnacl/bin/../x86_64-nacl/lib/libcrt_common.a(lib_a-findfp.o)
 .text.__fp_unlock_all
                0x000000000002c000       0x60 /Users/jkwang/Desktop/nacl_sdk/pepper_canary/toolchain/mac_pnacl/bin/../x86_64-nacl/lib/libcrt_common.a(lib_a-findfp.o)
                0x000000000002c000                __fp_unlock_all
 .text.__fp_unlock
                0x000000000002c060       0x40 /Users/jkwang/Desktop/nacl_sdk/pepper_canary/toolchain/mac_pnacl/bin/../x86_64-nacl/lib/libcrt_common.a(lib_a-findfp.o)
 .text          0x000000000002c0a0        0x0 /Users/jkwang/Desktop/nacl_sdk/pepper_canary/toolchain/mac_pnacl/bin/../x86_64-nacl/lib/libcrt_common.a(lib_a-fini.o)
 .text.__libc_fini_array
                0x000000000002c0a0       0xa0 /Users/jkwang/Desktop/nacl_sdk/pepper_canary/toolchain/mac_pnacl/bin/../x86_64-nacl/lib/libcrt_common.a(lib_a-fini.o)
                0x000000000002c0a0                __libc_fini_array
 .text          0x000000000002c140        0x0 /Users/jkwang/Desktop/nacl_sdk/pepper_canary/toolchain/mac_pnacl/bin/../x86_64-nacl/lib/libcrt_common.a(lib_a-fprintf.o)
 .text._fprintf_r
                0x000000000002c140       0xe0 /Users/jkwang/Desktop/nacl_sdk/pepper_canary/toolchain/mac_pnacl/bin/../x86_64-nacl/lib/libcrt_common.a(lib_a-fprintf.o)
                0x000000000002c140                _fprintf_r
 .text.fprintf  0x000000000002c220      0x120 /Users/jkwang/Desktop/nacl_sdk/pepper_canary/toolchain/mac_pnacl/bin/../x86_64-nacl/lib/libcrt_common.a(lib_a-fprintf.o)
                0x000000000002c220                fprintf
 .text          0x000000000002c340        0x0 /Users/jkwang/Desktop/nacl_sdk/pepper_canary/toolchain/mac_pnacl/bin/../x86_64-nacl/lib/libcrt_common.a(lib_a-fwalk.o)
 .text._fwalk   0x000000000002c340      0x1c0 /Users/jkwang/Desktop/nacl_sdk/pepper_canary/toolchain/mac_pnacl/bin/../x86_64-nacl/lib/libcrt_common.a(lib_a-fwalk.o)
                0x000000000002c340                _fwalk
 .text._fwalk_reent
                0x000000000002c500      0x160 /Users/jkwang/Desktop/nacl_sdk/pepper_canary/toolchain/mac_pnacl/bin/../x86_64-nacl/lib/libcrt_common.a(lib_a-fwalk.o)
                0x000000000002c500                _fwalk_reent
 .text          0x000000000002c660        0x0 /Users/jkwang/Desktop/nacl_sdk/pepper_canary/toolchain/mac_pnacl/bin/../x86_64-nacl/lib/libcrt_common.a(lib_a-fwrite.o)
 .text._fwrite_r
                0x000000000002c660      0x180 /Users/jkwang/Desktop/nacl_sdk/pepper_canary/toolchain/mac_pnacl/bin/../x86_64-nacl/lib/libcrt_common.a(lib_a-fwrite.o)
                0x000000000002c660                _fwrite_r
 .text.fwrite   0x000000000002c7e0       0x80 /Users/jkwang/Desktop/nacl_sdk/pepper_canary/toolchain/mac_pnacl/bin/../x86_64-nacl/lib/libcrt_common.a(lib_a-fwrite.o)
                0x000000000002c7e0                fwrite
 .text          0x000000000002c860        0x0 /Users/jkwang/Desktop/nacl_sdk/pepper_canary/toolchain/mac_pnacl/bin/../x86_64-nacl/lib/libcrt_common.a(lib_a-getenv.o)
 .text._findenv
                0x000000000002c860       0x60 /Users/jkwang/Desktop/nacl_sdk/pepper_canary/toolchain/mac_pnacl/bin/../x86_64-nacl/lib/libcrt_common.a(lib_a-getenv.o)
                0x000000000002c860                _findenv
 .text.getenv   0x000000000002c8c0       0x80 /Users/jkwang/Desktop/nacl_sdk/pepper_canary/toolchain/mac_pnacl/bin/../x86_64-nacl/lib/libcrt_common.a(lib_a-getenv.o)
                0x000000000002c8c0                getenv
 .text          0x000000000002c940        0x0 /Users/jkwang/Desktop/nacl_sdk/pepper_canary/toolchain/mac_pnacl/bin/../x86_64-nacl/lib/libcrt_common.a(lib_a-getenv_r.o)
 .text._findenv_r
                0x000000000002c940      0x160 /Users/jkwang/Desktop/nacl_sdk/pepper_canary/toolchain/mac_pnacl/bin/../x86_64-nacl/lib/libcrt_common.a(lib_a-getenv_r.o)
                0x000000000002c940                _findenv_r
 .text._getenv_r
                0x000000000002caa0       0x60 /Users/jkwang/Desktop/nacl_sdk/pepper_canary/toolchain/mac_pnacl/bin/../x86_64-nacl/lib/libcrt_common.a(lib_a-getenv_r.o)
                0x000000000002caa0                _getenv_r
 .text          0x000000000002cb00        0x0 /Users/jkwang/Desktop/nacl_sdk/pepper_canary/toolchain/mac_pnacl/bin/../x86_64-nacl/lib/libcrt_common.a(lib_a-impure.o)
 .text.__newlib_thread_init
                0x000000000002cb00       0x80 /Users/jkwang/Desktop/nacl_sdk/pepper_canary/toolchain/mac_pnacl/bin/../x86_64-nacl/lib/libcrt_common.a(lib_a-impure.o)
                0x000000000002cb00                __newlib_thread_init
 .text.__newlib_thread_exit
                0x000000000002cb80       0x40 /Users/jkwang/Desktop/nacl_sdk/pepper_canary/toolchain/mac_pnacl/bin/../x86_64-nacl/lib/libcrt_common.a(lib_a-impure.o)
                0x000000000002cb80                __newlib_thread_exit
 .text          0x000000000002cbc0        0x0 /Users/jkwang/Desktop/nacl_sdk/pepper_canary/toolchain/mac_pnacl/bin/../x86_64-nacl/lib/libcrt_common.a(lib_a-init.o)
 .text.__libc_init_array
                0x000000000002cbc0      0x120 /Users/jkwang/Desktop/nacl_sdk/pepper_canary/toolchain/mac_pnacl/bin/../x86_64-nacl/lib/libcrt_common.a(lib_a-init.o)
                0x000000000002cbc0                __libc_init_array
 .text          0x000000000002cce0      0x1c0 /Users/jkwang/Desktop/nacl_sdk/pepper_canary/toolchain/mac_pnacl/bin/../x86_64-nacl/lib/libcrt_common.a(lib_a-memcpy.o)
                0x000000000002cce0                memcpy
 .text          0x000000000002cea0      0x14f /Users/jkwang/Desktop/nacl_sdk/pepper_canary/toolchain/mac_pnacl/bin/../x86_64-nacl/lib/libcrt_common.a(lib_a-memset.o)
                0x000000000002cea0                memset
 *fill*         0x000000000002cfef        0x1 
 .text          0x000000000002cff0        0x0 /Users/jkwang/Desktop/nacl_sdk/pepper_canary/toolchain/mac_pnacl/bin/../x86_64-nacl/lib/libcrt_common.a(lib_a-sleep.o)
 *fill*         0x000000000002cff0       0x10 
 .text.sleep    0x000000000002d000       0xa0 /Users/jkwang/Desktop/nacl_sdk/pepper_canary/toolchain/mac_pnacl/bin/../x86_64-nacl/lib/libcrt_common.a(lib_a-sleep.o)
                0x000000000002d000                sleep
 .text          0x000000000002d0a0        0x0 /Users/jkwang/Desktop/nacl_sdk/pepper_canary/toolchain/mac_pnacl/bin/../x86_64-nacl/lib/libcrt_common.a(lib_a-stdio.o)
 .text.__sread  0x000000000002d0a0       0x60 /Users/jkwang/Desktop/nacl_sdk/pepper_canary/toolchain/mac_pnacl/bin/../x86_64-nacl/lib/libcrt_common.a(lib_a-stdio.o)
                0x000000000002d0a0                __sread
 .text.__seofread
                0x000000000002d100       0x40 /Users/jkwang/Desktop/nacl_sdk/pepper_canary/toolchain/mac_pnacl/bin/../x86_64-nacl/lib/libcrt_common.a(lib_a-stdio.o)
                0x000000000002d100                __seofread
 .text.__swrite
                0x000000000002d140       0xa0 /Users/jkwang/Desktop/nacl_sdk/pepper_canary/toolchain/mac_pnacl/bin/../x86_64-nacl/lib/libcrt_common.a(lib_a-stdio.o)
                0x000000000002d140                __swrite
 .text.__sseek  0x000000000002d1e0       0xa0 /Users/jkwang/Desktop/nacl_sdk/pepper_canary/toolchain/mac_pnacl/bin/../x86_64-nacl/lib/libcrt_common.a(lib_a-stdio.o)
                0x000000000002d1e0                __sseek
 .text.__sclose
                0x000000000002d280       0x40 /Users/jkwang/Desktop/nacl_sdk/pepper_canary/toolchain/mac_pnacl/bin/../x86_64-nacl/lib/libcrt_common.a(lib_a-stdio.o)
                0x000000000002d280                __sclose
 .text          0x000000000002d2c0        0x0 /Users/jkwang/Desktop/nacl_sdk/pepper_canary/toolchain/mac_pnacl/bin/../x86_64-nacl/lib/libcrt_common.a(lib_a-strcat.o)
 .text.strcat   0x000000000002d2c0       0xa0 /Users/jkwang/Desktop/nacl_sdk/pepper_canary/toolchain/mac_pnacl/bin/../x86_64-nacl/lib/libcrt_common.a(lib_a-strcat.o)
                0x000000000002d2c0                strcat
 .text          0x000000000002d360        0x0 /Users/jkwang/Desktop/nacl_sdk/pepper_canary/toolchain/mac_pnacl/bin/../x86_64-nacl/lib/libcrt_common.a(lib_a-strcmp.o)
 .text.strcmp   0x000000000002d360       0xc0 /Users/jkwang/Desktop/nacl_sdk/pepper_canary/toolchain/mac_pnacl/bin/../x86_64-nacl/lib/libcrt_common.a(lib_a-strcmp.o)
                0x000000000002d360                strcmp
 .text          0x000000000002d420        0x0 /Users/jkwang/Desktop/nacl_sdk/pepper_canary/toolchain/mac_pnacl/bin/../x86_64-nacl/lib/libcrt_common.a(lib_a-strcpy.o)
 .text.strcpy   0x000000000002d420       0xc0 /Users/jkwang/Desktop/nacl_sdk/pepper_canary/toolchain/mac_pnacl/bin/../x86_64-nacl/lib/libcrt_common.a(lib_a-strcpy.o)
                0x000000000002d420                strcpy
 .text          0x000000000002d4e0        0x0 /Users/jkwang/Desktop/nacl_sdk/pepper_canary/toolchain/mac_pnacl/bin/../x86_64-nacl/lib/libcrt_common.a(lib_a-strlen.o)
 .text.strlen   0x000000000002d4e0       0xa0 /Users/jkwang/Desktop/nacl_sdk/pepper_canary/toolchain/mac_pnacl/bin/../x86_64-nacl/lib/libcrt_common.a(lib_a-strlen.o)
                0x000000000002d4e0                strlen
 .text          0x000000000002d580        0x0 /Users/jkwang/Desktop/nacl_sdk/pepper_canary/toolchain/mac_pnacl/bin/../x86_64-nacl/lib/libcrt_common.a(lib_a-strncmp.o)
 .text.strncmp  0x000000000002d580      0x100 /Users/jkwang/Desktop/nacl_sdk/pepper_canary/toolchain/mac_pnacl/bin/../x86_64-nacl/lib/libcrt_common.a(lib_a-strncmp.o)
                0x000000000002d580                strncmp
 .text          0x000000000002d680        0x0 /Users/jkwang/Desktop/nacl_sdk/pepper_canary/toolchain/mac_pnacl/bin/../x86_64-nacl/lib/libcrt_common.a(lib_a-vfprintf.o)
 .text.vfprintf
                0x000000000002d680       0x60 /Users/jkwang/Desktop/nacl_sdk/pepper_canary/toolchain/mac_pnacl/bin/../x86_64-nacl/lib/libcrt_common.a(lib_a-vfprintf.o)
                0x000000000002d680                vfprintf
 .text._vfprintf_r
                0x000000000002d6e0     0x4700 /Users/jkwang/Desktop/nacl_sdk/pepper_canary/toolchain/mac_pnacl/bin/../x86_64-nacl/lib/libcrt_common.a(lib_a-vfprintf.o)
                0x000000000002d6e0                _vfprintf_r
 .text.__sbprintf
                0x0000000000031de0      0x180 /Users/jkwang/Desktop/nacl_sdk/pepper_canary/toolchain/mac_pnacl/bin/../x86_64-nacl/lib/libcrt_common.a(lib_a-vfprintf.o)
 .text          0x0000000000031f60        0x0 /Users/jkwang/Desktop/nacl_sdk/pepper_canary/toolchain/mac_pnacl/bin/../x86_64-nacl/lib/libcrt_common.a(lib_a-vsnprintf.o)
 .text.vsnprintf
                0x0000000000031f60      0x140 /Users/jkwang/Desktop/nacl_sdk/pepper_canary/toolchain/mac_pnacl/bin/../x86_64-nacl/lib/libcrt_common.a(lib_a-vsnprintf.o)
                0x0000000000031f60                vsnprintf
 .text._vsnprintf_r
                0x00000000000320a0      0x100 /Users/jkwang/Desktop/nacl_sdk/pepper_canary/toolchain/mac_pnacl/bin/../x86_64-nacl/lib/libcrt_common.a(lib_a-vsnprintf.o)
                0x00000000000320a0                _vsnprintf_r
 .text          0x00000000000321a0        0x0 /Users/jkwang/Desktop/nacl_sdk/pepper_canary/toolchain/mac_pnacl/bin/../x86_64-nacl/lib/libcrt_common.a(lib_a-vsprintf.o)
 .text.vsprintf
                0x00000000000321a0       0xe0 /Users/jkwang/Desktop/nacl_sdk/pepper_canary/toolchain/mac_pnacl/bin/../x86_64-nacl/lib/libcrt_common.a(lib_a-vsprintf.o)
                0x00000000000321a0                vsprintf
 .text._vsprintf_r
                0x0000000000032280       0xa0 /Users/jkwang/Desktop/nacl_sdk/pepper_canary/toolchain/mac_pnacl/bin/../x86_64-nacl/lib/libcrt_common.a(lib_a-vsprintf.o)
                0x0000000000032280                _vsprintf_r
 .text          0x0000000000032320        0x0 /Users/jkwang/Desktop/nacl_sdk/pepper_canary/toolchain/mac_pnacl/bin/../x86_64-nacl/lib/libcrt_common.a(lib_a-wcrtomb.o)
 .text._wcrtomb_r
                0x0000000000032320      0x140 /Users/jkwang/Desktop/nacl_sdk/pepper_canary/toolchain/mac_pnacl/bin/../x86_64-nacl/lib/libcrt_common.a(lib_a-wcrtomb.o)
                0x0000000000032320                _wcrtomb_r
 .text.wcrtomb  0x0000000000032460      0x140 /Users/jkwang/Desktop/nacl_sdk/pepper_canary/toolchain/mac_pnacl/bin/../x86_64-nacl/lib/libcrt_common.a(lib_a-wcrtomb.o)
                0x0000000000032460                wcrtomb
 .text          0x00000000000325a0        0x0 /Users/jkwang/Desktop/nacl_sdk/pepper_canary/toolchain/mac_pnacl/bin/../x86_64-nacl/lib/libcrt_common.a(lib_a-wcsrtombs.o)
 .text._wcsrtombs_r
                0x00000000000325a0       0x40 /Users/jkwang/Desktop/nacl_sdk/pepper_canary/toolchain/mac_pnacl/bin/../x86_64-nacl/lib/libcrt_common.a(lib_a-wcsrtombs.o)
                0x00000000000325a0                _wcsrtombs_r
 .text.wcsrtombs
                0x00000000000325e0       0x80 /Users/jkwang/Desktop/nacl_sdk/pepper_canary/toolchain/mac_pnacl/bin/../x86_64-nacl/lib/libcrt_common.a(lib_a-wcsrtombs.o)
                0x00000000000325e0                wcsrtombs
 .text          0x0000000000032660        0x0 /Users/jkwang/Desktop/nacl_sdk/pepper_canary/toolchain/mac_pnacl/bin/../x86_64-nacl/lib/libcrt_common.a(lib_a-wctomb_r.o)
 .text.__ascii_wctomb
                0x0000000000032660       0x80 /Users/jkwang/Desktop/nacl_sdk/pepper_canary/toolchain/mac_pnacl/bin/../x86_64-nacl/lib/libcrt_common.a(lib_a-wctomb_r.o)
                0x0000000000032660                __ascii_wctomb
 .text._wctomb_r
                0x00000000000326e0       0x80 /Users/jkwang/Desktop/nacl_sdk/pepper_canary/toolchain/mac_pnacl/bin/../x86_64-nacl/lib/libcrt_common.a(lib_a-wctomb_r.o)
                0x00000000000326e0                _wctomb_r
 .text.__utf8_wctomb
                0x0000000000032760      0x1c0 /Users/jkwang/Desktop/nacl_sdk/pepper_canary/toolchain/mac_pnacl/bin/../x86_64-nacl/lib/libcrt_common.a(lib_a-wctomb_r.o)
                0x0000000000032760                __utf8_wctomb
 .text.__sjis_wctomb
                0x0000000000032920       0xe0 /Users/jkwang/Desktop/nacl_sdk/pepper_canary/toolchain/mac_pnacl/bin/../x86_64-nacl/lib/libcrt_common.a(lib_a-wctomb_r.o)
                0x0000000000032920                __sjis_wctomb
 .text.__eucjp_wctomb
                0x0000000000032a00      0x160 /Users/jkwang/Desktop/nacl_sdk/pepper_canary/toolchain/mac_pnacl/bin/../x86_64-nacl/lib/libcrt_common.a(lib_a-wctomb_r.o)
                0x0000000000032a00                __eucjp_wctomb
 .text.__jis_wctomb
                0x0000000000032b60      0x160 /Users/jkwang/Desktop/nacl_sdk/pepper_canary/toolchain/mac_pnacl/bin/../x86_64-nacl/lib/libcrt_common.a(lib_a-wctomb_r.o)
                0x0000000000032b60                __jis_wctomb
 .text          0x0000000000032cc0        0x0 /Users/jkwang/Desktop/nacl_sdk/pepper_canary/toolchain/mac_pnacl/bin/../x86_64-nacl/lib/libcrt_common.a(lib_a-wsetup.o)
 .text.__swsetup_r
                0x0000000000032cc0      0x200 /Users/jkwang/Desktop/nacl_sdk/pepper_canary/toolchain/mac_pnacl/bin/../x86_64-nacl/lib/libcrt_common.a(lib_a-wsetup.o)
                0x0000000000032cc0                __swsetup_r
 .text          0x0000000000032ec0        0x0 /Users/jkwang/Desktop/nacl_sdk/pepper_canary/toolchain/mac_pnacl/bin/../x86_64-nacl/lib/libcrt_common.a(lib_a-__atexit.o)
 .text.__register_exitproc
                0x0000000000032ec0      0x240 /Users/jkwang/Desktop/nacl_sdk/pepper_canary/toolchain/mac_pnacl/bin/../x86_64-nacl/lib/libcrt_common.a(lib_a-__atexit.o)
                0x0000000000032ec0                __register_exitproc
 .text          0x0000000000033100        0x0 /Users/jkwang/Desktop/nacl_sdk/pepper_canary/toolchain/mac_pnacl/bin/../x86_64-nacl/lib/libcrt_common.a(lib_a-__call_atexit.o)
 .text.__call_exitprocs
                0x0000000000033100      0x2a0 /Users/jkwang/Desktop/nacl_sdk/pepper_canary/toolchain/mac_pnacl/bin/../x86_64-nacl/lib/libcrt_common.a(lib_a-__call_atexit.o)
                0x0000000000033100                __call_exitprocs
 .text          0x00000000000333a0        0x0 /Users/jkwang/Desktop/nacl_sdk/pepper_canary/toolchain/mac_pnacl/bin/../x86_64-nacl/lib/libcrt_common.a(lib_a-dtoa.o)
 .text._dtoa_r  0x00000000000333a0     0x1740 /Users/jkwang/Desktop/nacl_sdk/pepper_canary/toolchain/mac_pnacl/bin/../x86_64-nacl/lib/libcrt_common.a(lib_a-dtoa.o)
                0x00000000000333a0                _dtoa_r
 .text.quorem   0x0000000000034ae0      0x2c0 /Users/jkwang/Desktop/nacl_sdk/pepper_canary/toolchain/mac_pnacl/bin/../x86_64-nacl/lib/libcrt_common.a(lib_a-dtoa.o)
 .text          0x0000000000034da0        0x0 /Users/jkwang/Desktop/nacl_sdk/pepper_canary/toolchain/mac_pnacl/bin/../x86_64-nacl/lib/libcrt_common.a(lib_a-envlock.o)
 .text.__env_lock
                0x0000000000034da0       0x20 /Users/jkwang/Desktop/nacl_sdk/pepper_canary/toolchain/mac_pnacl/bin/../x86_64-nacl/lib/libcrt_common.a(lib_a-envlock.o)
                0x0000000000034da0                __env_lock
 .text.__env_unlock
                0x0000000000034dc0       0x20 /Users/jkwang/Desktop/nacl_sdk/pepper_canary/toolchain/mac_pnacl/bin/../x86_64-nacl/lib/libcrt_common.a(lib_a-envlock.o)
                0x0000000000034dc0                __env_unlock
 .text          0x0000000000034de0        0x0 /Users/jkwang/Desktop/nacl_sdk/pepper_canary/toolchain/mac_pnacl/bin/../x86_64-nacl/lib/libcrt_common.a(lib_a-fclose.o)
 .text._fclose_r
                0x0000000000034de0      0x260 /Users/jkwang/Desktop/nacl_sdk/pepper_canary/toolchain/mac_pnacl/bin/../x86_64-nacl/lib/libcrt_common.a(lib_a-fclose.o)
                0x0000000000034de0                _fclose_r
 .text.fclose   0x0000000000035040       0x60 /Users/jkwang/Desktop/nacl_sdk/pepper_canary/toolchain/mac_pnacl/bin/../x86_64-nacl/lib/libcrt_common.a(lib_a-fclose.o)
                0x0000000000035040                fclose
 .text          0x00000000000350a0        0x0 /Users/jkwang/Desktop/nacl_sdk/pepper_canary/toolchain/mac_pnacl/bin/../x86_64-nacl/lib/libcrt_common.a(lib_a-fvwrite.o)
 .text.__sfvwrite_r
                0x00000000000350a0      0x6c0 /Users/jkwang/Desktop/nacl_sdk/pepper_canary/toolchain/mac_pnacl/bin/../x86_64-nacl/lib/libcrt_common.a(lib_a-fvwrite.o)
                0x00000000000350a0                __sfvwrite_r
 .text          0x0000000000035760        0x0 /Users/jkwang/Desktop/nacl_sdk/pepper_canary/toolchain/mac_pnacl/bin/../x86_64-nacl/lib/libcrt_common.a(lib_a-locale.o)
 .text._setlocale_r
                0x0000000000035760      0x920 /Users/jkwang/Desktop/nacl_sdk/pepper_canary/toolchain/mac_pnacl/bin/../x86_64-nacl/lib/libcrt_common.a(lib_a-locale.o)
                0x0000000000035760                _setlocale_r
 .text.currentlocale
                0x0000000000036080      0x220 /Users/jkwang/Desktop/nacl_sdk/pepper_canary/toolchain/mac_pnacl/bin/../x86_64-nacl/lib/libcrt_common.a(lib_a-locale.o)
 .text.loadlocale
                0x00000000000362a0      0xba0 /Users/jkwang/Desktop/nacl_sdk/pepper_canary/toolchain/mac_pnacl/bin/../x86_64-nacl/lib/libcrt_common.a(lib_a-locale.o)
 .text.__locale_charset
                0x0000000000036e40       0x40 /Users/jkwang/Desktop/nacl_sdk/pepper_canary/toolchain/mac_pnacl/bin/../x86_64-nacl/lib/libcrt_common.a(lib_a-locale.o)
                0x0000000000036e40                __locale_charset
 .text.__locale_mb_cur_max
                0x0000000000036e80       0x40 /Users/jkwang/Desktop/nacl_sdk/pepper_canary/toolchain/mac_pnacl/bin/../x86_64-nacl/lib/libcrt_common.a(lib_a-locale.o)
                0x0000000000036e80                __locale_mb_cur_max
 .text.__locale_msgcharset
                0x0000000000036ec0       0x40 /Users/jkwang/Desktop/nacl_sdk/pepper_canary/toolchain/mac_pnacl/bin/../x86_64-nacl/lib/libcrt_common.a(lib_a-locale.o)
                0x0000000000036ec0                __locale_msgcharset
 .text.__locale_cjk_lang
                0x0000000000036f00       0x40 /Users/jkwang/Desktop/nacl_sdk/pepper_canary/toolchain/mac_pnacl/bin/../x86_64-nacl/lib/libcrt_common.a(lib_a-locale.o)
                0x0000000000036f00                __locale_cjk_lang
 .text._localeconv_r
                0x0000000000036f40       0x40 /Users/jkwang/Desktop/nacl_sdk/pepper_canary/toolchain/mac_pnacl/bin/../x86_64-nacl/lib/libcrt_common.a(lib_a-locale.o)
                0x0000000000036f40                _localeconv_r
 .text.setlocale
                0x0000000000036f80       0x60 /Users/jkwang/Desktop/nacl_sdk/pepper_canary/toolchain/mac_pnacl/bin/../x86_64-nacl/lib/libcrt_common.a(lib_a-locale.o)
                0x0000000000036f80                setlocale
 .text.localeconv
                0x0000000000036fe0       0x40 /Users/jkwang/Desktop/nacl_sdk/pepper_canary/toolchain/mac_pnacl/bin/../x86_64-nacl/lib/libcrt_common.a(lib_a-locale.o)
                0x0000000000036fe0                localeconv
 .text          0x0000000000037020        0x0 /Users/jkwang/Desktop/nacl_sdk/pepper_canary/toolchain/mac_pnacl/bin/../x86_64-nacl/lib/libcrt_common.a(lib_a-makebuf.o)
 .text.__smakebuf_r
                0x0000000000037020      0x200 /Users/jkwang/Desktop/nacl_sdk/pepper_canary/toolchain/mac_pnacl/bin/../x86_64-nacl/lib/libcrt_common.a(lib_a-makebuf.o)
                0x0000000000037020                __smakebuf_r
 .text          0x0000000000037220        0x0 /Users/jkwang/Desktop/nacl_sdk/pepper_canary/toolchain/mac_pnacl/bin/../x86_64-nacl/lib/libcrt_common.a(lib_a-mbtowc_r.o)
 .text.__ascii_mbtowc
                0x0000000000037220       0x60 /Users/jkwang/Desktop/nacl_sdk/pepper_canary/toolchain/mac_pnacl/bin/../x86_64-nacl/lib/libcrt_common.a(lib_a-mbtowc_r.o)
                0x0000000000037220                __ascii_mbtowc
 .text._mbtowc_r
                0x0000000000037280       0x80 /Users/jkwang/Desktop/nacl_sdk/pepper_canary/toolchain/mac_pnacl/bin/../x86_64-nacl/lib/libcrt_common.a(lib_a-mbtowc_r.o)
                0x0000000000037280                _mbtowc_r
 .text.__utf8_mbtowc
                0x0000000000037300      0x500 /Users/jkwang/Desktop/nacl_sdk/pepper_canary/toolchain/mac_pnacl/bin/../x86_64-nacl/lib/libcrt_common.a(lib_a-mbtowc_r.o)
                0x0000000000037300                __utf8_mbtowc
 .text.__sjis_mbtowc
                0x0000000000037800      0x180 /Users/jkwang/Desktop/nacl_sdk/pepper_canary/toolchain/mac_pnacl/bin/../x86_64-nacl/lib/libcrt_common.a(lib_a-mbtowc_r.o)
                0x0000000000037800                __sjis_mbtowc
 .text.__eucjp_mbtowc
                0x0000000000037980      0x200 /Users/jkwang/Desktop/nacl_sdk/pepper_canary/toolchain/mac_pnacl/bin/../x86_64-nacl/lib/libcrt_common.a(lib_a-mbtowc_r.o)
                0x0000000000037980                __eucjp_mbtowc
 .text.__jis_mbtowc
                0x0000000000037b80      0x2a0 /Users/jkwang/Desktop/nacl_sdk/pepper_canary/toolchain/mac_pnacl/bin/../x86_64-nacl/lib/libcrt_common.a(lib_a-mbtowc_r.o)
                0x0000000000037b80                __jis_mbtowc
 .text          0x0000000000037e20        0x0 /Users/jkwang/Desktop/nacl_sdk/pepper_canary/toolchain/mac_pnacl/bin/../x86_64-nacl/lib/libcrt_common.a(lib_a-memchr.o)
 .text.memchr   0x0000000000037e20      0x120 /Users/jkwang/Desktop/nacl_sdk/pepper_canary/toolchain/mac_pnacl/bin/../x86_64-nacl/lib/libcrt_common.a(lib_a-memchr.o)
                0x0000000000037e20                memchr
 .text          0x0000000000037f40        0x0 /Users/jkwang/Desktop/nacl_sdk/pepper_canary/toolchain/mac_pnacl/bin/../x86_64-nacl/lib/libcrt_common.a(lib_a-memmove.o)
 .text.memmove  0x0000000000037f40      0x860 /Users/jkwang/Desktop/nacl_sdk/pepper_canary/toolchain/mac_pnacl/bin/../x86_64-nacl/lib/libcrt_common.a(lib_a-memmove.o)
                0x0000000000037f40                memmove
 .text          0x00000000000387a0        0x0 /Users/jkwang/Desktop/nacl_sdk/pepper_canary/toolchain/mac_pnacl/bin/../x86_64-nacl/lib/libcrt_common.a(lib_a-mprec.o)
 .text._Balloc  0x00000000000387a0      0x100 /Users/jkwang/Desktop/nacl_sdk/pepper_canary/toolchain/mac_pnacl/bin/../x86_64-nacl/lib/libcrt_common.a(lib_a-mprec.o)
                0x00000000000387a0                _Balloc
 .text._Bfree   0x00000000000388a0       0x60 /Users/jkwang/Desktop/nacl_sdk/pepper_canary/toolchain/mac_pnacl/bin/../x86_64-nacl/lib/libcrt_common.a(lib_a-mprec.o)
                0x00000000000388a0                _Bfree
 .text.__multadd
                0x0000000000038900      0x240 /Users/jkwang/Desktop/nacl_sdk/pepper_canary/toolchain/mac_pnacl/bin/../x86_64-nacl/lib/libcrt_common.a(lib_a-mprec.o)
                0x0000000000038900                __multadd
 .text.__s2b    0x0000000000038b40      0x240 /Users/jkwang/Desktop/nacl_sdk/pepper_canary/toolchain/mac_pnacl/bin/../x86_64-nacl/lib/libcrt_common.a(lib_a-mprec.o)
                0x0000000000038b40                __s2b
 .text.__hi0bits
                0x0000000000038d80       0xa0 /Users/jkwang/Desktop/nacl_sdk/pepper_canary/toolchain/mac_pnacl/bin/../x86_64-nacl/lib/libcrt_common.a(lib_a-mprec.o)
                0x0000000000038d80                __hi0bits
 .text.__lo0bits
                0x0000000000038e20      0x120 /Users/jkwang/Desktop/nacl_sdk/pepper_canary/toolchain/mac_pnacl/bin/../x86_64-nacl/lib/libcrt_common.a(lib_a-mprec.o)
                0x0000000000038e20                __lo0bits
 .text.__i2b    0x0000000000038f40      0x120 /Users/jkwang/Desktop/nacl_sdk/pepper_canary/toolchain/mac_pnacl/bin/../x86_64-nacl/lib/libcrt_common.a(lib_a-mprec.o)
                0x0000000000038f40                __i2b
 .text.__multiply
                0x0000000000039060      0x4c0 /Users/jkwang/Desktop/nacl_sdk/pepper_canary/toolchain/mac_pnacl/bin/../x86_64-nacl/lib/libcrt_common.a(lib_a-mprec.o)
                0x0000000000039060                __multiply
 .text.__pow5mult
                0x0000000000039520      0x260 /Users/jkwang/Desktop/nacl_sdk/pepper_canary/toolchain/mac_pnacl/bin/../x86_64-nacl/lib/libcrt_common.a(lib_a-mprec.o)
                0x0000000000039520                __pow5mult
 .text.__lshift
                0x0000000000039780      0x6c0 /Users/jkwang/Desktop/nacl_sdk/pepper_canary/toolchain/mac_pnacl/bin/../x86_64-nacl/lib/libcrt_common.a(lib_a-mprec.o)
                0x0000000000039780                __lshift
 .text.__mcmp   0x0000000000039e40       0xa0 /Users/jkwang/Desktop/nacl_sdk/pepper_canary/toolchain/mac_pnacl/bin/../x86_64-nacl/lib/libcrt_common.a(lib_a-mprec.o)
                0x0000000000039e40                __mcmp
 .text.__mdiff  0x0000000000039ee0      0x480 /Users/jkwang/Desktop/nacl_sdk/pepper_canary/toolchain/mac_pnacl/bin/../x86_64-nacl/lib/libcrt_common.a(lib_a-mprec.o)
                0x0000000000039ee0                __mdiff
 .text.__ulp    0x000000000003a360       0xe0 /Users/jkwang/Desktop/nacl_sdk/pepper_canary/toolchain/mac_pnacl/bin/../x86_64-nacl/lib/libcrt_common.a(lib_a-mprec.o)
                0x000000000003a360                __ulp
 .text.__b2d    0x000000000003a440      0x1c0 /Users/jkwang/Desktop/nacl_sdk/pepper_canary/toolchain/mac_pnacl/bin/../x86_64-nacl/lib/libcrt_common.a(lib_a-mprec.o)
                0x000000000003a440                __b2d
 .text.__d2b    0x000000000003a600      0x3e0 /Users/jkwang/Desktop/nacl_sdk/pepper_canary/toolchain/mac_pnacl/bin/../x86_64-nacl/lib/libcrt_common.a(lib_a-mprec.o)
                0x000000000003a600                __d2b
 .text.__ratio  0x000000000003a9e0      0x100 /Users/jkwang/Desktop/nacl_sdk/pepper_canary/toolchain/mac_pnacl/bin/../x86_64-nacl/lib/libcrt_common.a(lib_a-mprec.o)
                0x000000000003a9e0                __ratio
 .text._mprec_log10
                0x000000000003aae0       0x80 /Users/jkwang/Desktop/nacl_sdk/pepper_canary/toolchain/mac_pnacl/bin/../x86_64-nacl/lib/libcrt_common.a(lib_a-mprec.o)
                0x000000000003aae0                _mprec_log10
 .text.__copybits
                0x000000000003ab60      0x3c0 /Users/jkwang/Desktop/nacl_sdk/pepper_canary/toolchain/mac_pnacl/bin/../x86_64-nacl/lib/libcrt_common.a(lib_a-mprec.o)
                0x000000000003ab60                __copybits
 .text.__any_on
                0x000000000003af20       0xa0 /Users/jkwang/Desktop/nacl_sdk/pepper_canary/toolchain/mac_pnacl/bin/../x86_64-nacl/lib/libcrt_common.a(lib_a-mprec.o)
                0x000000000003af20                __any_on
 .text          0x000000000003afc0        0x0 /Users/jkwang/Desktop/nacl_sdk/pepper_canary/toolchain/mac_pnacl/bin/../x86_64-nacl/lib/libcrt_common.a(lib_a-s_fpclassify.o)
 .text.__fpclassifyd
                0x000000000003afc0       0xa0 /Users/jkwang/Desktop/nacl_sdk/pepper_canary/toolchain/mac_pnacl/bin/../x86_64-nacl/lib/libcrt_common.a(lib_a-s_fpclassify.o)
                0x000000000003afc0                __fpclassifyd
 .text          0x000000000003b060        0x0 /Users/jkwang/Desktop/nacl_sdk/pepper_canary/toolchain/mac_pnacl/bin/../x86_64-nacl/lib/libcrt_common.a(lib_a-s_frexp.o)
 .text.frexp    0x000000000003b060       0xe0 /Users/jkwang/Desktop/nacl_sdk/pepper_canary/toolchain/mac_pnacl/bin/../x86_64-nacl/lib/libcrt_common.a(lib_a-s_frexp.o)
                0x000000000003b060                frexp
 .text          0x000000000003b140        0x0 /Users/jkwang/Desktop/nacl_sdk/pepper_canary/toolchain/mac_pnacl/bin/../x86_64-nacl/lib/libcrt_common.a(lib_a-strcasecmp.o)
 .text.strcasecmp
                0x000000000003b140       0xa0 /Users/jkwang/Desktop/nacl_sdk/pepper_canary/toolchain/mac_pnacl/bin/../x86_64-nacl/lib/libcrt_common.a(lib_a-strcasecmp.o)
                0x000000000003b140                strcasecmp
 .text          0x000000000003b1e0        0x0 /Users/jkwang/Desktop/nacl_sdk/pepper_canary/toolchain/mac_pnacl/bin/../x86_64-nacl/lib/libcrt_common.a(lib_a-strchr.o)
 .text.strchr   0x000000000003b1e0      0x1c0 /Users/jkwang/Desktop/nacl_sdk/pepper_canary/toolchain/mac_pnacl/bin/../x86_64-nacl/lib/libcrt_common.a(lib_a-strchr.o)
                0x000000000003b1e0                strchr
 .text          0x000000000003b3a0        0x0 /Users/jkwang/Desktop/nacl_sdk/pepper_canary/toolchain/mac_pnacl/bin/../x86_64-nacl/lib/libcrt_common.a(lib_a-strlcpy.o)
 .text.strlcpy  0x000000000003b3a0       0x80 /Users/jkwang/Desktop/nacl_sdk/pepper_canary/toolchain/mac_pnacl/bin/../x86_64-nacl/lib/libcrt_common.a(lib_a-strlcpy.o)
                0x000000000003b3a0                strlcpy
 .text          0x000000000003b420        0x0 /Users/jkwang/Desktop/nacl_sdk/pepper_canary/toolchain/mac_pnacl/bin/../x86_64-nacl/lib/libcrt_common.a(lib_a-strncasecmp.o)
 .text.strncasecmp
                0x000000000003b420       0xa0 /Users/jkwang/Desktop/nacl_sdk/pepper_canary/toolchain/mac_pnacl/bin/../x86_64-nacl/lib/libcrt_common.a(lib_a-strncasecmp.o)
                0x000000000003b420                strncasecmp
 .text          0x000000000003b4c0        0x0 /Users/jkwang/Desktop/nacl_sdk/pepper_canary/toolchain/mac_pnacl/bin/../x86_64-nacl/lib/libcrt_common.a(lib_a-strncpy.o)
 .text.strncpy  0x000000000003b4c0      0x1a0 /Users/jkwang/Desktop/nacl_sdk/pepper_canary/toolchain/mac_pnacl/bin/../x86_64-nacl/lib/libcrt_common.a(lib_a-strncpy.o)
                0x000000000003b4c0                strncpy
 .text          0x000000000003b660        0x0 /Users/jkwang/Desktop/nacl_sdk/pepper_canary/toolchain/mac_pnacl/bin/../x86_64-nacl/lib/libcrt_common.a(lib_a-strtol.o)
 .text._strtol_r
                0x000000000003b660      0x200 /Users/jkwang/Desktop/nacl_sdk/pepper_canary/toolchain/mac_pnacl/bin/../x86_64-nacl/lib/libcrt_common.a(lib_a-strtol.o)
                0x000000000003b660                _strtol_r
 .text.strtol   0x000000000003b860       0x60 /Users/jkwang/Desktop/nacl_sdk/pepper_canary/toolchain/mac_pnacl/bin/../x86_64-nacl/lib/libcrt_common.a(lib_a-strtol.o)
                0x000000000003b860                strtol
 .text          0x000000000003b8c0        0x0 /Users/jkwang/Desktop/nacl_sdk/pepper_canary/toolchain/mac_pnacl/bin/../x86_64-nacl/lib/libcrt_common.a(lib_a-svfprintf.o)
 .text._svfprintf_r
                0x000000000003b8c0     0x43c0 /Users/jkwang/Desktop/nacl_sdk/pepper_canary/toolchain/mac_pnacl/bin/../x86_64-nacl/lib/libcrt_common.a(lib_a-svfprintf.o)
                0x000000000003b8c0                _svfprintf_r
 .text          0x000000000003fc80        0x0 /Users/jkwang/Desktop/nacl_sdk/pepper_canary/toolchain/mac_pnacl/bin/../x86_64-nacl/lib/libcrt_common.a(lib_a-vfiprintf.o)
 .text.__sprint_r
                0x000000000003fc80      0x140 /Users/jkwang/Desktop/nacl_sdk/pepper_canary/toolchain/mac_pnacl/bin/../x86_64-nacl/lib/libcrt_common.a(lib_a-vfiprintf.o)
                0x000000000003fc80                __sprint_r
 .text.vfiprintf
                0x000000000003fdc0       0x60 /Users/jkwang/Desktop/nacl_sdk/pepper_canary/toolchain/mac_pnacl/bin/../x86_64-nacl/lib/libcrt_common.a(lib_a-vfiprintf.o)
                0x000000000003fdc0                vfiprintf
 .text._vfiprintf_r
                0x000000000003fe20     0x3740 /Users/jkwang/Desktop/nacl_sdk/pepper_canary/toolchain/mac_pnacl/bin/../x86_64-nacl/lib/libcrt_common.a(lib_a-vfiprintf.o)
                0x000000000003fe20                _vfiprintf_r
 .text.__sbprintf
                0x0000000000043560      0x180 /Users/jkwang/Desktop/nacl_sdk/pepper_canary/toolchain/mac_pnacl/bin/../x86_64-nacl/lib/libcrt_common.a(lib_a-vfiprintf.o)
 .text          0x00000000000436e0        0x0 /Users/jkwang/Desktop/nacl_sdk/pepper_canary/toolchain/mac_pnacl/bin/../x86_64-nacl/lib/libcrt_common.a(lib_a-wcsnrtombs.o)
 .text._wcsnrtombs_r
                0x00000000000436e0      0x3a0 /Users/jkwang/Desktop/nacl_sdk/pepper_canary/toolchain/mac_pnacl/bin/../x86_64-nacl/lib/libcrt_common.a(lib_a-wcsnrtombs.o)
                0x00000000000436e0                _wcsnrtombs_r
 .text.wcsnrtombs
                0x0000000000043a80       0xa0 /Users/jkwang/Desktop/nacl_sdk/pepper_canary/toolchain/mac_pnacl/bin/../x86_64-nacl/lib/libcrt_common.a(lib_a-wcsnrtombs.o)
                0x0000000000043a80                wcsnrtombs
 .text          0x0000000000043b20        0x0 /Users/jkwang/Desktop/nacl_sdk/pepper_canary/toolchain/mac_pnacl/bin/../x86_64-nacl/lib/libcrt_common.a(lib_a-ctype_.o)
 .text.__set_ctype
                0x0000000000043b20       0x40 /Users/jkwang/Desktop/nacl_sdk/pepper_canary/toolchain/mac_pnacl/bin/../x86_64-nacl/lib/libcrt_common.a(lib_a-ctype_.o)
                0x0000000000043b20                __set_ctype
 .text          0x0000000000043b60        0x0 /Users/jkwang/Desktop/nacl_sdk/pepper_canary/toolchain/mac_pnacl/bin/../x86_64-nacl/lib/libcrt_common.a(lib_a-fputwc.o)
 .text._fputwc_r
                0x0000000000043b60      0x240 /Users/jkwang/Desktop/nacl_sdk/pepper_canary/toolchain/mac_pnacl/bin/../x86_64-nacl/lib/libcrt_common.a(lib_a-fputwc.o)
                0x0000000000043b60                _fputwc_r
 .text.fputwc   0x0000000000043da0       0xa0 /Users/jkwang/Desktop/nacl_sdk/pepper_canary/toolchain/mac_pnacl/bin/../x86_64-nacl/lib/libcrt_common.a(lib_a-fputwc.o)
                0x0000000000043da0                fputwc
 .text          0x0000000000043e40        0x0 /Users/jkwang/Desktop/nacl_sdk/pepper_canary/toolchain/mac_pnacl/bin/../x86_64-nacl/lib/libcrt_common.a(lib_a-svfiprintf.o)
 .text.__ssprint_r
                0x0000000000043e40      0x300 /Users/jkwang/Desktop/nacl_sdk/pepper_canary/toolchain/mac_pnacl/bin/../x86_64-nacl/lib/libcrt_common.a(lib_a-svfiprintf.o)
                0x0000000000043e40                __ssprint_r
 .text._svfiprintf_r
                0x0000000000044140     0x24c0 /Users/jkwang/Desktop/nacl_sdk/pepper_canary/toolchain/mac_pnacl/bin/../x86_64-nacl/lib/libcrt_common.a(lib_a-svfiprintf.o)
                0x0000000000044140                _svfiprintf_r
 .text          0x0000000000046600        0x0 /Users/jkwang/Desktop/nacl_sdk/pepper_canary/toolchain/mac_pnacl/bin/../x86_64-nacl/lib/libcrt_common.a(lib_a-wbuf.o)
 .text.__swbuf_r
                0x0000000000046600      0x1a0 /Users/jkwang/Desktop/nacl_sdk/pepper_canary/toolchain/mac_pnacl/bin/../x86_64-nacl/lib/libcrt_common.a(lib_a-wbuf.o)
                0x0000000000046600                __swbuf_r
 .text.__swbuf  0x00000000000467a0       0x60 /Users/jkwang/Desktop/nacl_sdk/pepper_canary/toolchain/mac_pnacl/bin/../x86_64-nacl/lib/libcrt_common.a(lib_a-wbuf.o)
                0x00000000000467a0                __swbuf
 .text          0x0000000000046800       0x60 /Users/jkwang/Desktop/nacl_sdk/pepper_canary/toolchain/mac_pnacl/bin/../x86_64-nacl/lib/libnacl.a(close.o)
                0x0000000000046800                close
 .text          0x0000000000046860       0x60 /Users/jkwang/Desktop/nacl_sdk/pepper_canary/toolchain/mac_pnacl/bin/../x86_64-nacl/lib/libnacl.a(fstat.o)
                0x0000000000046860                fstat
 .text          0x00000000000468c0       0xc0 /Users/jkwang/Desktop/nacl_sdk/pepper_canary/toolchain/mac_pnacl/bin/../x86_64-nacl/lib/libnacl.a(isatty.o)
                0x00000000000468c0                isatty
 .text          0x0000000000046980       0xa0 /Users/jkwang/Desktop/nacl_sdk/pepper_canary/toolchain/mac_pnacl/bin/../x86_64-nacl/lib/libnacl.a(lseek.o)
                0x0000000000046980                lseek
 .text          0x0000000000046a20       0x60 /Users/jkwang/Desktop/nacl_sdk/pepper_canary/toolchain/mac_pnacl/bin/../x86_64-nacl/lib/libnacl.a(nanosleep.o)
                0x0000000000046a20                nanosleep
 .text          0x0000000000046a80       0x80 /Users/jkwang/Desktop/nacl_sdk/pepper_canary/toolchain/mac_pnacl/bin/../x86_64-nacl/lib/libnacl.a(nacl_irt_fdio.o)
                0x0000000000046a80                __libnacl_irt_dev_fdio_init
 .text          0x0000000000046b00       0xa0 /Users/jkwang/Desktop/nacl_sdk/pepper_canary/toolchain/mac_pnacl/bin/../x86_64-nacl/lib/libnacl.a(read.o)
                0x0000000000046b00                read
 .text          0x0000000000046ba0     0x2a00 /Users/jkwang/Desktop/nacl_sdk/pepper_canary/toolchain/mac_pnacl/bin/../lib/clang/3.7.0/lib/x86_64-nacl/libgcc_eh.a(unwind-dw2-fde-glibc.o)
                0x0000000000046ba0                __register_frame_info_bases
                0x0000000000046c40                __register_frame_info
                0x0000000000046ce0                __register_frame_info_table_bases
                0x0000000000046d60                __register_frame_info_table
                0x0000000000047e20                __register_frame_table
                0x0000000000047ec0                __register_frame
                0x0000000000049040                _Unwind_Find_FDE
                0x0000000000049300                __deregister_frame_info_bases
                0x0000000000049500                __deregister_frame_info
                0x0000000000049520                __deregister_frame
 .text          0x00000000000495a0        0x0 /Users/jkwang/Desktop/nacl_sdk/pepper_canary/toolchain/mac_pnacl/bin/../lib/clang/3.7.0/lib/x86_64-nacl/crtend.o
 .text          0x00000000000495a0        0x0 /Users/jkwang/Desktop/nacl_sdk/pepper_canary/toolchain/mac_pnacl/bin/../x86_64-nacl/lib/crtn.o
 *(.gnu.warning)

.fini
 *(SORT(.fini))
                0x00000000000495a0                PROVIDE (__etext, .)
                0x00000000000495a0                PROVIDE (_etext, .)
                0x00000000000495a0                PROVIDE (etext, .)
                0x0000000010020190                . = (0x10020000 + SIZEOF_HEADERS)

.interp
 *(.interp)

.note.NaCl.ABI.x86-64
                0x0000000010020190       0x1c
 .note.NaCl.ABI.x86-64
                0x0000000010020190       0x1c /Users/jkwang/Desktop/nacl_sdk/pepper_canary/toolchain/mac_pnacl/bin/../lib/clang/3.7.0/lib/x86_64-nacl/crtbeginT.o

.note.gnu.build-id
                0x00000000100201ac       0x24
 *(.note.gnu.build-id)
 .note.gnu.build-id
                0x00000000100201ac       0x24 /Users/jkwang/Desktop/nacl_sdk/pepper_canary/toolchain/mac_pnacl/bin/../x86_64-nacl/lib/crti.o

.hash
 *(.hash)

.gnu.hash
 *(.gnu.hash)

.dynsym
 *(.dynsym)

.dynstr
 *(.dynstr)

.gnu.version
 *(.gnu.version)

.gnu.version_d
 *(.gnu.version_d)

.gnu.version_r
 *(.gnu.version_r)

.rela.dyn       0x00000000100201d0        0x0
 *(.rela.init)
 *(.rela.text .rela.text.* .rela.gnu.linkonce.t.*)
 .rela.text     0x0000000000000000        0x0 /Users/jkwang/Desktop/nacl_sdk/pepper_canary/toolchain/mac_pnacl/bin/../lib/clang/3.7.0/lib/x86_64-nacl/crtbeginT.o
 .rela.text.atexit
                0x0000000000000000        0x0 /Users/jkwang/Desktop/nacl_sdk/pepper_canary/toolchain/mac_pnacl/bin/../lib/clang/3.7.0/lib/x86_64-nacl/crtbeginT.o
 .rela.text.exit
                0x0000000000000000        0x0 /Users/jkwang/Desktop/nacl_sdk/pepper_canary/toolchain/mac_pnacl/bin/../lib/clang/3.7.0/lib/x86_64-nacl/crtbeginT.o
 .rela.text._fflush_r
                0x0000000000000000        0x0 /Users/jkwang/Desktop/nacl_sdk/pepper_canary/toolchain/mac_pnacl/bin/../lib/clang/3.7.0/lib/x86_64-nacl/crtbeginT.o
 .rela.text.fflush
                0x0000000000000000        0x0 /Users/jkwang/Desktop/nacl_sdk/pepper_canary/toolchain/mac_pnacl/bin/../lib/clang/3.7.0/lib/x86_64-nacl/crtbeginT.o
 .rela.text.__sfmoreglue
                0x0000000000000000        0x0 /Users/jkwang/Desktop/nacl_sdk/pepper_canary/toolchain/mac_pnacl/bin/../lib/clang/3.7.0/lib/x86_64-nacl/crtbeginT.o
 .rela.text.__sfp
                0x0000000000000000        0x0 /Users/jkwang/Desktop/nacl_sdk/pepper_canary/toolchain/mac_pnacl/bin/../lib/clang/3.7.0/lib/x86_64-nacl/crtbeginT.o
 .rela.text.__sinit
                0x0000000000000000        0x0 /Users/jkwang/Desktop/nacl_sdk/pepper_canary/toolchain/mac_pnacl/bin/../lib/clang/3.7.0/lib/x86_64-nacl/crtbeginT.o
 .rela.text._cleanup_r
                0x0000000000000000        0x0 /Users/jkwang/Desktop/nacl_sdk/pepper_canary/toolchain/mac_pnacl/bin/../lib/clang/3.7.0/lib/x86_64-nacl/crtbeginT.o
 .rela.text._cleanup
                0x0000000000000000        0x0 /Users/jkwang/Desktop/nacl_sdk/pepper_canary/toolchain/mac_pnacl/bin/../lib/clang/3.7.0/lib/x86_64-nacl/crtbeginT.o
 .rela.text.__fp_lock_all
                0x0000000000000000        0x0 /Users/jkwang/Desktop/nacl_sdk/pepper_canary/toolchain/mac_pnacl/bin/../lib/clang/3.7.0/lib/x86_64-nacl/crtbeginT.o
 .rela.text.__fp_unlock_all
                0x0000000000000000        0x0 /Users/jkwang/Desktop/nacl_sdk/pepper_canary/toolchain/mac_pnacl/bin/../lib/clang/3.7.0/lib/x86_64-nacl/crtbeginT.o
 .rela.text.__libc_fini_array
                0x0000000000000000        0x0 /Users/jkwang/Desktop/nacl_sdk/pepper_canary/toolchain/mac_pnacl/bin/../lib/clang/3.7.0/lib/x86_64-nacl/crtbeginT.o
 .rela.text._fprintf_r
                0x0000000000000000        0x0 /Users/jkwang/Desktop/nacl_sdk/pepper_canary/toolchain/mac_pnacl/bin/../lib/clang/3.7.0/lib/x86_64-nacl/crtbeginT.o
 .rela.text.fprintf
                0x0000000000000000        0x0 /Users/jkwang/Desktop/nacl_sdk/pepper_canary/toolchain/mac_pnacl/bin/../lib/clang/3.7.0/lib/x86_64-nacl/crtbeginT.o
 .rela.text._fwrite_r
                0x0000000000000000        0x0 /Users/jkwang/Desktop/nacl_sdk/pepper_canary/toolchain/mac_pnacl/bin/../lib/clang/3.7.0/lib/x86_64-nacl/crtbeginT.o
 .rela.text._findenv
                0x0000000000000000        0x0 /Users/jkwang/Desktop/nacl_sdk/pepper_canary/toolchain/mac_pnacl/bin/../lib/clang/3.7.0/lib/x86_64-nacl/crtbeginT.o
 .rela.text.getenv
                0x0000000000000000        0x0 /Users/jkwang/Desktop/nacl_sdk/pepper_canary/toolchain/mac_pnacl/bin/../lib/clang/3.7.0/lib/x86_64-nacl/crtbeginT.o
 .rela.text._findenv_r
                0x0000000000000000        0x0 /Users/jkwang/Desktop/nacl_sdk/pepper_canary/toolchain/mac_pnacl/bin/../lib/clang/3.7.0/lib/x86_64-nacl/crtbeginT.o
 .rela.text.__libc_init_array
                0x0000000000000000        0x0 /Users/jkwang/Desktop/nacl_sdk/pepper_canary/toolchain/mac_pnacl/bin/../lib/clang/3.7.0/lib/x86_64-nacl/crtbeginT.o
 .rela.text.sleep
                0x0000000000000000        0x0 /Users/jkwang/Desktop/nacl_sdk/pepper_canary/toolchain/mac_pnacl/bin/../lib/clang/3.7.0/lib/x86_64-nacl/crtbeginT.o
 .rela.text.__sread
                0x0000000000000000        0x0 /Users/jkwang/Desktop/nacl_sdk/pepper_canary/toolchain/mac_pnacl/bin/../lib/clang/3.7.0/lib/x86_64-nacl/crtbeginT.o
 .rela.text.__swrite
                0x0000000000000000        0x0 /Users/jkwang/Desktop/nacl_sdk/pepper_canary/toolchain/mac_pnacl/bin/../lib/clang/3.7.0/lib/x86_64-nacl/crtbeginT.o
 .rela.text.__sseek
                0x0000000000000000        0x0 /Users/jkwang/Desktop/nacl_sdk/pepper_canary/toolchain/mac_pnacl/bin/../lib/clang/3.7.0/lib/x86_64-nacl/crtbeginT.o
 .rela.text.__sclose
                0x0000000000000000        0x0 /Users/jkwang/Desktop/nacl_sdk/pepper_canary/toolchain/mac_pnacl/bin/../lib/clang/3.7.0/lib/x86_64-nacl/crtbeginT.o
 .rela.text.strcat
                0x0000000000000000        0x0 /Users/jkwang/Desktop/nacl_sdk/pepper_canary/toolchain/mac_pnacl/bin/../lib/clang/3.7.0/lib/x86_64-nacl/crtbeginT.o
 .rela.text._vfprintf_r
                0x0000000000000000        0x0 /Users/jkwang/Desktop/nacl_sdk/pepper_canary/toolchain/mac_pnacl/bin/../lib/clang/3.7.0/lib/x86_64-nacl/crtbeginT.o
 .rela.text.vsnprintf
                0x0000000000000000        0x0 /Users/jkwang/Desktop/nacl_sdk/pepper_canary/toolchain/mac_pnacl/bin/../lib/clang/3.7.0/lib/x86_64-nacl/crtbeginT.o
 .rela.text._vsnprintf_r
                0x0000000000000000        0x0 /Users/jkwang/Desktop/nacl_sdk/pepper_canary/toolchain/mac_pnacl/bin/../lib/clang/3.7.0/lib/x86_64-nacl/crtbeginT.o
 .rela.text.vsprintf
                0x0000000000000000        0x0 /Users/jkwang/Desktop/nacl_sdk/pepper_canary/toolchain/mac_pnacl/bin/../lib/clang/3.7.0/lib/x86_64-nacl/crtbeginT.o
 .rela.text._vsprintf_r
                0x0000000000000000        0x0 /Users/jkwang/Desktop/nacl_sdk/pepper_canary/toolchain/mac_pnacl/bin/../lib/clang/3.7.0/lib/x86_64-nacl/crtbeginT.o
 .rela.text._wcrtomb_r
                0x0000000000000000        0x0 /Users/jkwang/Desktop/nacl_sdk/pepper_canary/toolchain/mac_pnacl/bin/../lib/clang/3.7.0/lib/x86_64-nacl/crtbeginT.o
 .rela.text.wcrtomb
                0x0000000000000000        0x0 /Users/jkwang/Desktop/nacl_sdk/pepper_canary/toolchain/mac_pnacl/bin/../lib/clang/3.7.0/lib/x86_64-nacl/crtbeginT.o
 .rela.text._wcsrtombs_r
                0x0000000000000000        0x0 /Users/jkwang/Desktop/nacl_sdk/pepper_canary/toolchain/mac_pnacl/bin/../lib/clang/3.7.0/lib/x86_64-nacl/crtbeginT.o
 .rela.text.wcsrtombs
                0x0000000000000000        0x0 /Users/jkwang/Desktop/nacl_sdk/pepper_canary/toolchain/mac_pnacl/bin/../lib/clang/3.7.0/lib/x86_64-nacl/crtbeginT.o
 .rela.text._wctomb_r
                0x0000000000000000        0x0 /Users/jkwang/Desktop/nacl_sdk/pepper_canary/toolchain/mac_pnacl/bin/../lib/clang/3.7.0/lib/x86_64-nacl/crtbeginT.o
 .rela.text.__swsetup_r
                0x0000000000000000        0x0 /Users/jkwang/Desktop/nacl_sdk/pepper_canary/toolchain/mac_pnacl/bin/../lib/clang/3.7.0/lib/x86_64-nacl/crtbeginT.o
 .rela.text.__register_exitproc
                0x0000000000000000        0x0 /Users/jkwang/Desktop/nacl_sdk/pepper_canary/toolchain/mac_pnacl/bin/../lib/clang/3.7.0/lib/x86_64-nacl/crtbeginT.o
 .rela.text._dtoa_r
                0x0000000000000000        0x0 /Users/jkwang/Desktop/nacl_sdk/pepper_canary/toolchain/mac_pnacl/bin/../lib/clang/3.7.0/lib/x86_64-nacl/crtbeginT.o
 .rela.text.quorem
                0x0000000000000000        0x0 /Users/jkwang/Desktop/nacl_sdk/pepper_canary/toolchain/mac_pnacl/bin/../lib/clang/3.7.0/lib/x86_64-nacl/crtbeginT.o
 .rela.text.__sfvwrite_r
                0x0000000000000000        0x0 /Users/jkwang/Desktop/nacl_sdk/pepper_canary/toolchain/mac_pnacl/bin/../lib/clang/3.7.0/lib/x86_64-nacl/crtbeginT.o
 .rela.text._setlocale_r
                0x0000000000000000        0x0 /Users/jkwang/Desktop/nacl_sdk/pepper_canary/toolchain/mac_pnacl/bin/../lib/clang/3.7.0/lib/x86_64-nacl/crtbeginT.o
 .rela.text.loadlocale
                0x0000000000000000        0x0 /Users/jkwang/Desktop/nacl_sdk/pepper_canary/toolchain/mac_pnacl/bin/../lib/clang/3.7.0/lib/x86_64-nacl/crtbeginT.o
 .rela.text.__smakebuf_r
                0x0000000000000000        0x0 /Users/jkwang/Desktop/nacl_sdk/pepper_canary/toolchain/mac_pnacl/bin/../lib/clang/3.7.0/lib/x86_64-nacl/crtbeginT.o
 .rela.text.strcasecmp
                0x0000000000000000        0x0 /Users/jkwang/Desktop/nacl_sdk/pepper_canary/toolchain/mac_pnacl/bin/../lib/clang/3.7.0/lib/x86_64-nacl/crtbeginT.o
 .rela.text.strncasecmp
                0x0000000000000000        0x0 /Users/jkwang/Desktop/nacl_sdk/pepper_canary/toolchain/mac_pnacl/bin/../lib/clang/3.7.0/lib/x86_64-nacl/crtbeginT.o
 .rela.text._strtol_r
                0x0000000000000000        0x0 /Users/jkwang/Desktop/nacl_sdk/pepper_canary/toolchain/mac_pnacl/bin/../lib/clang/3.7.0/lib/x86_64-nacl/crtbeginT.o
 .rela.text._svfprintf_r
                0x0000000000000000        0x0 /Users/jkwang/Desktop/nacl_sdk/pepper_canary/toolchain/mac_pnacl/bin/../lib/clang/3.7.0/lib/x86_64-nacl/crtbeginT.o
 .rela.text.__sprint_r
                0x0000000000000000        0x0 /Users/jkwang/Desktop/nacl_sdk/pepper_canary/toolchain/mac_pnacl/bin/../lib/clang/3.7.0/lib/x86_64-nacl/crtbeginT.o
 .rela.text._vfiprintf_r
                0x0000000000000000        0x0 /Users/jkwang/Desktop/nacl_sdk/pepper_canary/toolchain/mac_pnacl/bin/../lib/clang/3.7.0/lib/x86_64-nacl/crtbeginT.o
 .rela.text._fputwc_r
                0x0000000000000000        0x0 /Users/jkwang/Desktop/nacl_sdk/pepper_canary/toolchain/mac_pnacl/bin/../lib/clang/3.7.0/lib/x86_64-nacl/crtbeginT.o
 *(.rela.fini)
 *(.rela.rodata .rela.rodata.* .rela.gnu.linkonce.r.*)
 *(.rela.data .rela.data.* .rela.gnu.linkonce.d.*)
 *(.rela.tdata .rela.tdata.* .rela.gnu.linkonce.td.*)
 *(.rela.tbss .rela.tbss.* .rela.gnu.linkonce.tb.*)
 *(.rela.ctors)
 *(.rela.dtors)
 *(.rela.got)
 .rela.got      0x0000000000000000        0x0 /Users/jkwang/Desktop/nacl_sdk/pepper_canary/toolchain/mac_pnacl/bin/../lib/clang/3.7.0/lib/x86_64-nacl/crtbeginT.o
 *(.rela.bss .rela.bss.* .rela.gnu.linkonce.b.*)
 *(.rela.ldata .rela.ldata.* .rela.gnu.linkonce.l.*)
 *(.rela.lbss .rela.lbss.* .rela.gnu.linkonce.lb.*)
 *(.rela.lrodata .rela.lrodata.* .rela.gnu.linkonce.lr.*)
 *(.rela.ifunc)

.rela.plt       0x00000000100201d0        0x0
 *(.rela.plt)
                0x00000000100201d0                PROVIDE (__rela_iplt_start, .)
 *(.rela.iplt)
 .rela.iplt     0x0000000000000000        0x0 /Users/jkwang/Desktop/nacl_sdk/pepper_canary/toolchain/mac_pnacl/bin/../lib/clang/3.7.0/lib/x86_64-nacl/crtbeginT.o
                0x00000000100201d0                PROVIDE (__rela_iplt_end, .)

.rodata         0x00000000100201d0     0x1468
 *(.rodata .rodata.* .gnu.linkonce.r.*)
 .rodata.str1.1
                0x00000000100201d0       0xd6 clang-newlib/Release/debugging_x86_64.o
 .rodata        0x00000000100202a6        0x6 clang-newlib/Release/debugging_x86_64.o
 .rodata.str1.1
                0x00000000100202ac      0x1ba /Users/jkwang/Desktop/nacl_sdk/pepper_canary/lib/clang-newlib_x86_64/Release/liberror_handling.a(error_handling_x86_64.o)
                                        0x1c1 (size before relaxing)
 .rodata.str1.1
                0x0000000010020466       0xad /Users/jkwang/Desktop/nacl_sdk/pepper_canary/toolchain/mac_pnacl/bin/../x86_64-nacl/lib/libppapi_stub.a(ppapi_plugin_start.o)
 .rodata.str1.1
                0x0000000010020513       0x22 /Users/jkwang/Desktop/nacl_sdk/pepper_canary/toolchain/mac_pnacl/bin/../x86_64-nacl/lib/libpthread.a(nc_thread.o)
 .rodata.str1.1
                0x0000000010020535       0x14 /Users/jkwang/Desktop/nacl_sdk/pepper_canary/toolchain/mac_pnacl/bin/../x86_64-nacl/lib/libpthread.a(valgrind_annotations.o)
                                         0x16 (size before relaxing)
 .rodata.str1.1
                0x0000000010020549       0x27 /Users/jkwang/Desktop/nacl_sdk/pepper_canary/toolchain/mac_pnacl/bin/../x86_64-nacl/lib/libpthread.a(nc_init_irt.o)
 .rodata.str1.1
                0x0000000010020570       0x55 /Users/jkwang/Desktop/nacl_sdk/pepper_canary/toolchain/mac_pnacl/bin/../x86_64-nacl/lib/libnacl.a(nacl_irt.o)
 *fill*         0x00000000100205c5        0xb 
 .rodata.cst16  0x00000000100205d0       0x50 /Users/jkwang/Desktop/nacl_sdk/pepper_canary/toolchain/mac_pnacl/bin/../x86_64-nacl/lib/libnacl.a(malloc.o)
 .rodata.str1.1
                0x0000000010020620       0x4e /Users/jkwang/Desktop/nacl_sdk/pepper_canary/toolchain/mac_pnacl/bin/../x86_64-nacl/lib/libnacl.a(malloc.o)
 .rodata.str1.1
                0x000000001002066e       0x88 /Users/jkwang/Desktop/nacl_sdk/pepper_canary/toolchain/mac_pnacl/bin/../x86_64-nacl/lib/libnacl.a(nacl_irt_init.o)
 *fill*         0x00000000100206f6        0xa 
 .rodata        0x0000000010020700       0x13 /Users/jkwang/Desktop/nacl_sdk/pepper_canary/toolchain/mac_pnacl/bin/../x86_64-nacl/lib/libnacl.a(abort.o)
 *fill*         0x0000000010020713        0x1 
 .rodata._global_impure_ptr
                0x0000000010020714        0x4 /Users/jkwang/Desktop/nacl_sdk/pepper_canary/toolchain/mac_pnacl/bin/../x86_64-nacl/lib/libcrt_common.a(lib_a-impure.o)
                0x0000000010020714                _global_impure_ptr
 .rodata.str1.1
                0x0000000000000000       0x88 /Users/jkwang/Desktop/nacl_sdk/pepper_canary/toolchain/mac_pnacl/bin/../x86_64-nacl/lib/libcrt_common.a(lib_a-impure.o)
                                          0x2 (size before relaxing)
 *fill*         0x0000000010020718        0x8 
 .rodata.cst16  0x0000000010020720       0x20 /Users/jkwang/Desktop/nacl_sdk/pepper_canary/toolchain/mac_pnacl/bin/../x86_64-nacl/lib/libcrt_common.a(lib_a-vfprintf.o)
 .rodata.cst8   0x0000000010020740       0x20 /Users/jkwang/Desktop/nacl_sdk/pepper_canary/toolchain/mac_pnacl/bin/../x86_64-nacl/lib/libcrt_common.a(lib_a-vfprintf.o)
 .rodata._vfprintf_r
                0x0000000010020760      0x14c /Users/jkwang/Desktop/nacl_sdk/pepper_canary/toolchain/mac_pnacl/bin/../x86_64-nacl/lib/libcrt_common.a(lib_a-vfprintf.o)
 *fill*         0x00000000100208ac        0x4 
 .rodata._vfprintf_r.blanks
                0x00000000100208b0       0x10 /Users/jkwang/Desktop/nacl_sdk/pepper_canary/toolchain/mac_pnacl/bin/../x86_64-nacl/lib/libcrt_common.a(lib_a-vfprintf.o)
 .rodata._vfprintf_r.zeroes
                0x00000000100208c0       0x10 /Users/jkwang/Desktop/nacl_sdk/pepper_canary/toolchain/mac_pnacl/bin/../x86_64-nacl/lib/libcrt_common.a(lib_a-vfprintf.o)
 .rodata.str1.1
                0x00000000100208d0       0x53 /Users/jkwang/Desktop/nacl_sdk/pepper_canary/toolchain/mac_pnacl/bin/../x86_64-nacl/lib/libcrt_common.a(lib_a-vfprintf.o)
                                         0x55 (size before relaxing)
 *fill*         0x0000000010020923        0x5 
 .rodata.cst8   0x0000000010020928       0x48 /Users/jkwang/Desktop/nacl_sdk/pepper_canary/toolchain/mac_pnacl/bin/../x86_64-nacl/lib/libcrt_common.a(lib_a-dtoa.o)
                                         0x50 (size before relaxing)
 .rodata.cst16  0x0000000000000000       0x10 /Users/jkwang/Desktop/nacl_sdk/pepper_canary/toolchain/mac_pnacl/bin/../x86_64-nacl/lib/libcrt_common.a(lib_a-dtoa.o)
 .rodata._dtoa_r
                0x0000000010020970       0x18 /Users/jkwang/Desktop/nacl_sdk/pepper_canary/toolchain/mac_pnacl/bin/../x86_64-nacl/lib/libcrt_common.a(lib_a-dtoa.o)
 .rodata.str1.1
                0x0000000010020988        0xd /Users/jkwang/Desktop/nacl_sdk/pepper_canary/toolchain/mac_pnacl/bin/../x86_64-nacl/lib/libcrt_common.a(lib_a-dtoa.o)
                                          0xf (size before relaxing)
 *fill*         0x0000000010020995        0x3 
 .rodata.loadlocale
                0x0000000010020998       0xd4 /Users/jkwang/Desktop/nacl_sdk/pepper_canary/toolchain/mac_pnacl/bin/../x86_64-nacl/lib/libcrt_common.a(lib_a-locale.o)
 .rodata.str1.1
                0x0000000010020a6c       0xe8 /Users/jkwang/Desktop/nacl_sdk/pepper_canary/toolchain/mac_pnacl/bin/../x86_64-nacl/lib/libcrt_common.a(lib_a-locale.o)
                                         0xf4 (size before relaxing)
 *fill*         0x0000000010020b54        0xc 
 .rodata.categories
                0x0000000010020b60       0x1c /Users/jkwang/Desktop/nacl_sdk/pepper_canary/toolchain/mac_pnacl/bin/../x86_64-nacl/lib/libcrt_common.a(lib_a-locale.o)
 .rodata.__jis_mbtowc
                0x0000000010020b7c       0x18 /Users/jkwang/Desktop/nacl_sdk/pepper_canary/toolchain/mac_pnacl/bin/../x86_64-nacl/lib/libcrt_common.a(lib_a-mbtowc_r.o)
 *fill*         0x0000000010020b94        0xc 
 .rodata.JIS_action_table
                0x0000000010020ba0      0x120 /Users/jkwang/Desktop/nacl_sdk/pepper_canary/toolchain/mac_pnacl/bin/../x86_64-nacl/lib/libcrt_common.a(lib_a-mbtowc_r.o)
 .rodata.JIS_state_table
                0x0000000010020cc0      0x120 /Users/jkwang/Desktop/nacl_sdk/pepper_canary/toolchain/mac_pnacl/bin/../x86_64-nacl/lib/libcrt_common.a(lib_a-mbtowc_r.o)
 .rodata.cst8   0x0000000010020de0        0x8 /Users/jkwang/Desktop/nacl_sdk/pepper_canary/toolchain/mac_pnacl/bin/../x86_64-nacl/lib/libcrt_common.a(lib_a-mprec.o)
                                         0x18 (size before relaxing)
 .rodata.__pow5mult.p05
                0x0000000010020de8        0xc /Users/jkwang/Desktop/nacl_sdk/pepper_canary/toolchain/mac_pnacl/bin/../x86_64-nacl/lib/libcrt_common.a(lib_a-mprec.o)
 *fill*         0x0000000010020df4        0xc 
 .rodata.__mprec_tens
                0x0000000010020e00       0xc8 /Users/jkwang/Desktop/nacl_sdk/pepper_canary/toolchain/mac_pnacl/bin/../x86_64-nacl/lib/libcrt_common.a(lib_a-mprec.o)
                0x0000000010020e00                __mprec_tens
 *fill*         0x0000000010020ec8        0x8 
 .rodata.__mprec_bigtens
                0x0000000010020ed0       0x28 /Users/jkwang/Desktop/nacl_sdk/pepper_canary/toolchain/mac_pnacl/bin/../x86_64-nacl/lib/libcrt_common.a(lib_a-mprec.o)
                0x0000000010020ed0                __mprec_bigtens
 *fill*         0x0000000010020ef8        0x8 
 .rodata.__mprec_tinytens
                0x0000000010020f00       0x28 /Users/jkwang/Desktop/nacl_sdk/pepper_canary/toolchain/mac_pnacl/bin/../x86_64-nacl/lib/libcrt_common.a(lib_a-mprec.o)
                0x0000000010020f00                __mprec_tinytens
 .rodata.cst8   0x0000000010020f28        0x8 /Users/jkwang/Desktop/nacl_sdk/pepper_canary/toolchain/mac_pnacl/bin/../x86_64-nacl/lib/libcrt_common.a(lib_a-s_frexp.o)
 .rodata.cst16  0x0000000000000000       0x20 /Users/jkwang/Desktop/nacl_sdk/pepper_canary/toolchain/mac_pnacl/bin/../x86_64-nacl/lib/libcrt_common.a(lib_a-svfprintf.o)
 .rodata.cst8   0x0000000000000000       0x20 /Users/jkwang/Desktop/nacl_sdk/pepper_canary/toolchain/mac_pnacl/bin/../x86_64-nacl/lib/libcrt_common.a(lib_a-svfprintf.o)
 .rodata._svfprintf_r
                0x0000000010020f30      0x14c /Users/jkwang/Desktop/nacl_sdk/pepper_canary/toolchain/mac_pnacl/bin/../x86_64-nacl/lib/libcrt_common.a(lib_a-svfprintf.o)
 *fill*         0x000000001002107c        0x4 
 .rodata._svfprintf_r.blanks
                0x0000000010021080       0x10 /Users/jkwang/Desktop/nacl_sdk/pepper_canary/toolchain/mac_pnacl/bin/../x86_64-nacl/lib/libcrt_common.a(lib_a-svfprintf.o)
 .rodata._svfprintf_r.zeroes
                0x0000000010021090       0x10 /Users/jkwang/Desktop/nacl_sdk/pepper_canary/toolchain/mac_pnacl/bin/../x86_64-nacl/lib/libcrt_common.a(lib_a-svfprintf.o)
 .rodata.str1.1
                0x0000000000000000       0x55 /Users/jkwang/Desktop/nacl_sdk/pepper_canary/toolchain/mac_pnacl/bin/../x86_64-nacl/lib/libcrt_common.a(lib_a-svfprintf.o)
 .rodata._vfiprintf_r
                0x00000000100210a0      0x11c /Users/jkwang/Desktop/nacl_sdk/pepper_canary/toolchain/mac_pnacl/bin/../x86_64-nacl/lib/libcrt_common.a(lib_a-vfiprintf.o)
 *fill*         0x00000000100211bc        0x4 
 .rodata._vfiprintf_r.blanks
                0x00000000100211c0       0x10 /Users/jkwang/Desktop/nacl_sdk/pepper_canary/toolchain/mac_pnacl/bin/../x86_64-nacl/lib/libcrt_common.a(lib_a-vfiprintf.o)
 .rodata._vfiprintf_r.zeroes
                0x00000000100211d0       0x10 /Users/jkwang/Desktop/nacl_sdk/pepper_canary/toolchain/mac_pnacl/bin/../x86_64-nacl/lib/libcrt_common.a(lib_a-vfiprintf.o)
 .rodata.str1.1
                0x0000000000000000       0x43 /Users/jkwang/Desktop/nacl_sdk/pepper_canary/toolchain/mac_pnacl/bin/../x86_64-nacl/lib/libcrt_common.a(lib_a-vfiprintf.o)
 .rodata._ctype_b
                0x00000000100211e0      0x180 /Users/jkwang/Desktop/nacl_sdk/pepper_canary/toolchain/mac_pnacl/bin/../x86_64-nacl/lib/libcrt_common.a(lib_a-ctype_.o)
 .rodata._ctype_
                0x0000000010021360      0x101 /Users/jkwang/Desktop/nacl_sdk/pepper_canary/toolchain/mac_pnacl/bin/../x86_64-nacl/lib/libcrt_common.a(lib_a-ctype_.o)
                0x0000000010021360                _ctype_
 *fill*         0x0000000010021461        0x3 
 .rodata._svfiprintf_r
                0x0000000010021464      0x11c /Users/jkwang/Desktop/nacl_sdk/pepper_canary/toolchain/mac_pnacl/bin/../x86_64-nacl/lib/libcrt_common.a(lib_a-svfiprintf.o)
 .rodata._svfiprintf_r.blanks
                0x0000000010021580       0x10 /Users/jkwang/Desktop/nacl_sdk/pepper_canary/toolchain/mac_pnacl/bin/../x86_64-nacl/lib/libcrt_common.a(lib_a-svfiprintf.o)
 .rodata._svfiprintf_r.zeroes
                0x0000000010021590       0x10 /Users/jkwang/Desktop/nacl_sdk/pepper_canary/toolchain/mac_pnacl/bin/../x86_64-nacl/lib/libcrt_common.a(lib_a-svfiprintf.o)
 .rodata.str1.1
                0x0000000000000000       0x43 /Users/jkwang/Desktop/nacl_sdk/pepper_canary/toolchain/mac_pnacl/bin/../x86_64-nacl/lib/libcrt_common.a(lib_a-svfiprintf.o)
 .rodata.str1.1
                0x00000000100215a0       0x2c /Users/jkwang/Desktop/nacl_sdk/pepper_canary/toolchain/mac_pnacl/bin/../x86_64-nacl/lib/libnacl.a(nacl_irt_fdio.o)
                                         0x42 (size before relaxing)
 *fill*         0x00000000100215cc        0x4 
 .rodata        0x00000000100215d0       0x68 /Users/jkwang/Desktop/nacl_sdk/pepper_canary/toolchain/mac_pnacl/bin/../lib/clang/3.7.0/lib/x86_64-nacl/libgcc_eh.a(unwind-dw2-fde-glibc.o)

.rodata1
 *(.rodata1)

.eh_frame_hdr
 *(.eh_frame_hdr)

.eh_frame
 *(.eh_frame)

.gcc_except_table
 *(.gcc_except_table .gcc_except_table.*)

.exception_ranges
 *(.exception_ranges .exception_ranges*)
                0x0000000010021638                . = (ALIGN (0x10000) - ((0x10000 - .) & 0xffff))
                0x0000000010031638                . = DATA_SEGMENT_ALIGN (0x10000, 0x10000)

.eh_frame       0x0000000010031638     0x2c64
 *(.eh_frame)
 .eh_frame      0x0000000010031638       0x58 /Users/jkwang/Desktop/nacl_sdk/pepper_canary/toolchain/mac_pnacl/bin/../lib/clang/3.7.0/lib/x86_64-nacl/crtbeginT.o
                                         0x50 (size before relaxing)
 .eh_frame      0x0000000010031690      0x220 clang-newlib/Release/debugging_x86_64.o
                                        0x200 (size before relaxing)
 .eh_frame      0x00000000100318b0      0x108 /Users/jkwang/Desktop/nacl_sdk/pepper_canary/lib/clang-newlib_x86_64/Release/liberror_handling.a(error_handling_x86_64.o)
 .eh_frame      0x00000000100319b8       0x88 /Users/jkwang/Desktop/nacl_sdk/pepper_canary/lib/clang-newlib_x86_64/Release/liberror_handling.a(string_stream_x86_64.o)
                                         0x90 (size before relaxing)
 .eh_frame      0x0000000010031a40       0x38 /Users/jkwang/Desktop/nacl_sdk/pepper_canary/toolchain/mac_pnacl/bin/../x86_64-nacl/lib/libppapi_stub.a(plugin_main_irt.o)
                                         0x34 (size before relaxing)
 .eh_frame      0x0000000010031a78       0x20 /Users/jkwang/Desktop/nacl_sdk/pepper_canary/toolchain/mac_pnacl/bin/../x86_64-nacl/lib/libppapi_stub.a(ppapi_plugin_main.o)
                                         0x34 (size before relaxing)
 .eh_frame      0x0000000010031a98       0x40 /Users/jkwang/Desktop/nacl_sdk/pepper_canary/toolchain/mac_pnacl/bin/../x86_64-nacl/lib/libppapi_stub.a(ppapi_plugin_start.o)
                                         0x50 (size before relaxing)
 .eh_frame      0x0000000010031ad8       0x60 /Users/jkwang/Desktop/nacl_sdk/pepper_canary/toolchain/mac_pnacl/bin/../x86_64-nacl/lib/libppapi_stub.a(thread_creator.o)
                                         0x6c (size before relaxing)
 .eh_frame      0x0000000010031b38      0x428 /Users/jkwang/Desktop/nacl_sdk/pepper_canary/toolchain/mac_pnacl/bin/../x86_64-nacl/lib/libpthread.a(nc_thread.o)
                                        0x3ec (size before relaxing)
 .eh_frame      0x0000000010031f60      0x170 /Users/jkwang/Desktop/nacl_sdk/pepper_canary/toolchain/mac_pnacl/bin/../x86_64-nacl/lib/libpthread.a(nc_mutex.o)
                                        0x164 (size before relaxing)
 .eh_frame      0x00000000100320d0      0x140 /Users/jkwang/Desktop/nacl_sdk/pepper_canary/toolchain/mac_pnacl/bin/../x86_64-nacl/lib/libpthread.a(nc_condvar.o)
                                        0x130 (size before relaxing)
 .eh_frame      0x0000000010032210      0x390 /Users/jkwang/Desktop/nacl_sdk/pepper_canary/toolchain/mac_pnacl/bin/../x86_64-nacl/lib/libpthread.a(valgrind_annotations.o)
                                        0x310 (size before relaxing)
 .eh_frame      0x00000000100325a0       0x18 /Users/jkwang/Desktop/nacl_sdk/pepper_canary/toolchain/mac_pnacl/bin/../x86_64-nacl/lib/libpthread.a(nc_init_irt.o)
                                         0x2c (size before relaxing)
 .eh_frame      0x00000000100325b8      0x128 /Users/jkwang/Desktop/nacl_sdk/pepper_canary/toolchain/mac_pnacl/bin/../x86_64-nacl/lib/libnacl.a(nacl_irt.o)
                                        0x11c (size before relaxing)
 .eh_frame      0x00000000100326e0       0x18 /Users/jkwang/Desktop/nacl_sdk/pepper_canary/toolchain/mac_pnacl/bin/../x86_64-nacl/lib/libnacl.a(_exit.o)
                                         0x2c (size before relaxing)
 .eh_frame      0x00000000100326f8       0x20 /Users/jkwang/Desktop/nacl_sdk/pepper_canary/toolchain/mac_pnacl/bin/../x86_64-nacl/lib/libnacl.a(mmap.o)
                                         0x34 (size before relaxing)
 .eh_frame      0x0000000010032718       0x18 /Users/jkwang/Desktop/nacl_sdk/pepper_canary/toolchain/mac_pnacl/bin/../x86_64-nacl/lib/libnacl.a(munmap.o)
                                         0x30 (size before relaxing)
 .eh_frame      0x0000000010032730       0x18 /Users/jkwang/Desktop/nacl_sdk/pepper_canary/toolchain/mac_pnacl/bin/../x86_64-nacl/lib/libnacl.a(nacl_interface_query.o)
                                         0x2c (size before relaxing)
 .eh_frame      0x0000000010032748       0x20 /Users/jkwang/Desktop/nacl_sdk/pepper_canary/toolchain/mac_pnacl/bin/../x86_64-nacl/lib/libnacl.a(write.o)
                                         0x34 (size before relaxing)
 .eh_frame      0x0000000010032768      0x3e8 /Users/jkwang/Desktop/nacl_sdk/pepper_canary/toolchain/mac_pnacl/bin/../x86_64-nacl/lib/libnacl.a(malloc.o)
                                        0x3cc (size before relaxing)
 .eh_frame      0x0000000010032b50       0x28 /Users/jkwang/Desktop/nacl_sdk/pepper_canary/toolchain/mac_pnacl/bin/../x86_64-nacl/lib/libnacl.a(start.o)
                                         0x40 (size before relaxing)
 .eh_frame      0x0000000010032b78       0x18 /Users/jkwang/Desktop/nacl_sdk/pepper_canary/toolchain/mac_pnacl/bin/../x86_64-nacl/lib/libnacl.a(nacl_add_tp.o)
                                         0x30 (size before relaxing)
 .eh_frame      0x0000000010032b90       0x18 /Users/jkwang/Desktop/nacl_sdk/pepper_canary/toolchain/mac_pnacl/bin/../x86_64-nacl/lib/libnacl.a(nacl_read_tp.o)
                                         0x2c (size before relaxing)
 .eh_frame      0x0000000010032ba8       0x18 /Users/jkwang/Desktop/nacl_sdk/pepper_canary/toolchain/mac_pnacl/bin/../x86_64-nacl/lib/libnacl.a(pthread_initialize_minimal.o)
                                         0x30 (size before relaxing)
 .eh_frame      0x0000000010032bc0       0x58 /Users/jkwang/Desktop/nacl_sdk/pepper_canary/toolchain/mac_pnacl/bin/../x86_64-nacl/lib/libnacl.a(tls.o)
                                         0x6c (size before relaxing)
 .eh_frame      0x0000000010032c18       0x30 /Users/jkwang/Desktop/nacl_sdk/pepper_canary/toolchain/mac_pnacl/bin/../x86_64-nacl/lib/libnacl.a(nacl_irt_init.o)
                                         0x40 (size before relaxing)
 .eh_frame      0x0000000010032c48       0x18 /Users/jkwang/Desktop/nacl_sdk/pepper_canary/toolchain/mac_pnacl/bin/../x86_64-nacl/lib/libnacl.a(nacl_tls_get.o)
                                         0x2c (size before relaxing)
 .eh_frame      0x0000000010032c60       0x18 /Users/jkwang/Desktop/nacl_sdk/pepper_canary/toolchain/mac_pnacl/bin/../x86_64-nacl/lib/libnacl.a(nacl_tls_init.o)
                                         0x2c (size before relaxing)
 .eh_frame      0x0000000010032c78       0x18 /Users/jkwang/Desktop/nacl_sdk/pepper_canary/toolchain/mac_pnacl/bin/../x86_64-nacl/lib/libnacl.a(abort.o)
                                         0x2c (size before relaxing)
 .eh_frame      0x0000000010032c90       0x18 /Users/jkwang/Desktop/nacl_sdk/pepper_canary/toolchain/mac_pnacl/bin/../x86_64-nacl/lib/libnacl.a(sched_yield.o)
                                         0x30 (size before relaxing)
 .eh_frame      0x0000000010032ca8       0x20 /Users/jkwang/Desktop/nacl_sdk/pepper_canary/toolchain/mac_pnacl/bin/../x86_64-nacl/lib/libnacl.a(sysconf.o)
                                         0x34 (size before relaxing)
 .eh_frame      0x0000000010032cc8       0x20 /Users/jkwang/Desktop/nacl_sdk/pepper_canary/toolchain/mac_pnacl/bin/../x86_64-nacl/lib/libcrt_common.a(lib_a-atexit.o)
                                         0x34 (size before relaxing)
 .eh_frame      0x0000000010032ce8       0x20 /Users/jkwang/Desktop/nacl_sdk/pepper_canary/toolchain/mac_pnacl/bin/../x86_64-nacl/lib/libcrt_common.a(lib_a-errno.o)
                                         0x34 (size before relaxing)
 .eh_frame      0x0000000010032d08       0x20 /Users/jkwang/Desktop/nacl_sdk/pepper_canary/toolchain/mac_pnacl/bin/../x86_64-nacl/lib/libcrt_common.a(lib_a-exit.o)
                                         0x34 (size before relaxing)
 .eh_frame      0x0000000010032d28       0x78 /Users/jkwang/Desktop/nacl_sdk/pepper_canary/toolchain/mac_pnacl/bin/../x86_64-nacl/lib/libcrt_common.a(lib_a-fflush.o)
                                         0x84 (size before relaxing)
 .eh_frame      0x0000000010032da0      0x1b0 /Users/jkwang/Desktop/nacl_sdk/pepper_canary/toolchain/mac_pnacl/bin/../x86_64-nacl/lib/libcrt_common.a(lib_a-findfp.o)
                                        0x198 (size before relaxing)
 .eh_frame      0x0000000010032f50       0x20 /Users/jkwang/Desktop/nacl_sdk/pepper_canary/toolchain/mac_pnacl/bin/../x86_64-nacl/lib/libcrt_common.a(lib_a-fini.o)
                                         0x34 (size before relaxing)
 .eh_frame      0x0000000010032f70       0x40 /Users/jkwang/Desktop/nacl_sdk/pepper_canary/toolchain/mac_pnacl/bin/../x86_64-nacl/lib/libcrt_common.a(lib_a-fprintf.o)
                                         0x54 (size before relaxing)
 .eh_frame      0x0000000010032fb0       0x50 /Users/jkwang/Desktop/nacl_sdk/pepper_canary/toolchain/mac_pnacl/bin/../x86_64-nacl/lib/libcrt_common.a(lib_a-fwalk.o)
                                         0x60 (size before relaxing)
 .eh_frame      0x0000000010033000       0x50 /Users/jkwang/Desktop/nacl_sdk/pepper_canary/toolchain/mac_pnacl/bin/../x86_64-nacl/lib/libcrt_common.a(lib_a-fwrite.o)
                                         0x60 (size before relaxing)
 .eh_frame      0x0000000010033050       0x40 /Users/jkwang/Desktop/nacl_sdk/pepper_canary/toolchain/mac_pnacl/bin/../x86_64-nacl/lib/libcrt_common.a(lib_a-getenv.o)
                                         0x54 (size before relaxing)
 .eh_frame      0x0000000010033090       0x48 /Users/jkwang/Desktop/nacl_sdk/pepper_canary/toolchain/mac_pnacl/bin/../x86_64-nacl/lib/libcrt_common.a(lib_a-getenv_r.o)
                                         0x58 (size before relaxing)
 .eh_frame      0x00000000100330d8       0x40 /Users/jkwang/Desktop/nacl_sdk/pepper_canary/toolchain/mac_pnacl/bin/../x86_64-nacl/lib/libcrt_common.a(lib_a-impure.o)
                                         0x50 (size before relaxing)
 .eh_frame      0x0000000010033118       0x20 /Users/jkwang/Desktop/nacl_sdk/pepper_canary/toolchain/mac_pnacl/bin/../x86_64-nacl/lib/libcrt_common.a(lib_a-init.o)
                                         0x38 (size before relaxing)
 .eh_frame      0x0000000010033138       0x20 /Users/jkwang/Desktop/nacl_sdk/pepper_canary/toolchain/mac_pnacl/bin/../x86_64-nacl/lib/libcrt_common.a(lib_a-sleep.o)
                                         0x34 (size before relaxing)
 .eh_frame      0x0000000010033158       0xa0 /Users/jkwang/Desktop/nacl_sdk/pepper_canary/toolchain/mac_pnacl/bin/../x86_64-nacl/lib/libcrt_common.a(lib_a-stdio.o)
                                         0xa8 (size before relaxing)
 .eh_frame      0x00000000100331f8       0x20 /Users/jkwang/Desktop/nacl_sdk/pepper_canary/toolchain/mac_pnacl/bin/../x86_64-nacl/lib/libcrt_common.a(lib_a-strcat.o)
                                         0x34 (size before relaxing)
 .eh_frame      0x0000000010033218       0x20 /Users/jkwang/Desktop/nacl_sdk/pepper_canary/toolchain/mac_pnacl/bin/../x86_64-nacl/lib/libcrt_common.a(lib_a-strcmp.o)
                                         0x34 (size before relaxing)
 .eh_frame      0x0000000010033238       0x20 /Users/jkwang/Desktop/nacl_sdk/pepper_canary/toolchain/mac_pnacl/bin/../x86_64-nacl/lib/libcrt_common.a(lib_a-strcpy.o)
                                         0x34 (size before relaxing)
 .eh_frame      0x0000000010033258       0x20 /Users/jkwang/Desktop/nacl_sdk/pepper_canary/toolchain/mac_pnacl/bin/../x86_64-nacl/lib/libcrt_common.a(lib_a-strlen.o)
                                         0x34 (size before relaxing)
 .eh_frame      0x0000000010033278       0x20 /Users/jkwang/Desktop/nacl_sdk/pepper_canary/toolchain/mac_pnacl/bin/../x86_64-nacl/lib/libcrt_common.a(lib_a-strncmp.o)
                                         0x34 (size before relaxing)
 .eh_frame      0x0000000010033298       0x70 /Users/jkwang/Desktop/nacl_sdk/pepper_canary/toolchain/mac_pnacl/bin/../x86_64-nacl/lib/libcrt_common.a(lib_a-vfprintf.o)
                                         0x80 (size before relaxing)
 .eh_frame      0x0000000010033308       0x48 /Users/jkwang/Desktop/nacl_sdk/pepper_canary/toolchain/mac_pnacl/bin/../x86_64-nacl/lib/libcrt_common.a(lib_a-vsnprintf.o)
                                         0x5c (size before relaxing)
 .eh_frame      0x0000000010033350       0x40 /Users/jkwang/Desktop/nacl_sdk/pepper_canary/toolchain/mac_pnacl/bin/../x86_64-nacl/lib/libcrt_common.a(lib_a-vsprintf.o)
                                         0x54 (size before relaxing)
 .eh_frame      0x0000000010033390       0x50 /Users/jkwang/Desktop/nacl_sdk/pepper_canary/toolchain/mac_pnacl/bin/../x86_64-nacl/lib/libcrt_common.a(lib_a-wcrtomb.o)
                                         0x60 (size before relaxing)
 .eh_frame      0x00000000100333e0       0x48 /Users/jkwang/Desktop/nacl_sdk/pepper_canary/toolchain/mac_pnacl/bin/../x86_64-nacl/lib/libcrt_common.a(lib_a-wcsrtombs.o)
                                         0x58 (size before relaxing)
 .eh_frame      0x0000000010033428       0xc8 /Users/jkwang/Desktop/nacl_sdk/pepper_canary/toolchain/mac_pnacl/bin/../x86_64-nacl/lib/libcrt_common.a(lib_a-wctomb_r.o)
 .eh_frame      0x00000000100334f0       0x20 /Users/jkwang/Desktop/nacl_sdk/pepper_canary/toolchain/mac_pnacl/bin/../x86_64-nacl/lib/libcrt_common.a(lib_a-wsetup.o)
                                         0x38 (size before relaxing)
 .eh_frame      0x0000000010033510       0x28 /Users/jkwang/Desktop/nacl_sdk/pepper_canary/toolchain/mac_pnacl/bin/../x86_64-nacl/lib/libcrt_common.a(lib_a-__atexit.o)
                                         0x3c (size before relaxing)
 .eh_frame      0x0000000010033538       0x28 /Users/jkwang/Desktop/nacl_sdk/pepper_canary/toolchain/mac_pnacl/bin/../x86_64-nacl/lib/libcrt_common.a(lib_a-__call_atexit.o)
                                         0x3c (size before relaxing)
 .eh_frame      0x0000000010033560       0x50 /Users/jkwang/Desktop/nacl_sdk/pepper_canary/toolchain/mac_pnacl/bin/../x86_64-nacl/lib/libcrt_common.a(lib_a-dtoa.o)
                                         0x60 (size before relaxing)
 .eh_frame      0x00000000100335b0       0x40 /Users/jkwang/Desktop/nacl_sdk/pepper_canary/toolchain/mac_pnacl/bin/../x86_64-nacl/lib/libcrt_common.a(lib_a-envlock.o)
                                         0x50 (size before relaxing)
 .eh_frame      0x00000000100335f0       0x48 /Users/jkwang/Desktop/nacl_sdk/pepper_canary/toolchain/mac_pnacl/bin/../x86_64-nacl/lib/libcrt_common.a(lib_a-fclose.o)
                                         0x58 (size before relaxing)
 .eh_frame      0x0000000010033638       0x28 /Users/jkwang/Desktop/nacl_sdk/pepper_canary/toolchain/mac_pnacl/bin/../x86_64-nacl/lib/libcrt_common.a(lib_a-fvwrite.o)
                                         0x3c (size before relaxing)
 .eh_frame      0x0000000010033660      0x150 /Users/jkwang/Desktop/nacl_sdk/pepper_canary/toolchain/mac_pnacl/bin/../x86_64-nacl/lib/libcrt_common.a(lib_a-locale.o)
                                        0x144 (size before relaxing)
 .eh_frame      0x00000000100337b0       0x28 /Users/jkwang/Desktop/nacl_sdk/pepper_canary/toolchain/mac_pnacl/bin/../x86_64-nacl/lib/libcrt_common.a(lib_a-makebuf.o)
                                         0x3c (size before relaxing)
 .eh_frame      0x00000000100337d8       0xe0 /Users/jkwang/Desktop/nacl_sdk/pepper_canary/toolchain/mac_pnacl/bin/../x86_64-nacl/lib/libcrt_common.a(lib_a-mbtowc_r.o)
 .eh_frame      0x00000000100338b8       0x20 /Users/jkwang/Desktop/nacl_sdk/pepper_canary/toolchain/mac_pnacl/bin/../x86_64-nacl/lib/libcrt_common.a(lib_a-memchr.o)
                                         0x34 (size before relaxing)
 .eh_frame      0x00000000100338d8       0x28 /Users/jkwang/Desktop/nacl_sdk/pepper_canary/toolchain/mac_pnacl/bin/../x86_64-nacl/lib/libcrt_common.a(lib_a-memmove.o)
                                         0x3c (size before relaxing)
 .eh_frame      0x0000000010033900      0x2b0 /Users/jkwang/Desktop/nacl_sdk/pepper_canary/toolchain/mac_pnacl/bin/../x86_64-nacl/lib/libcrt_common.a(lib_a-mprec.o)
                                        0x284 (size before relaxing)
 .eh_frame      0x0000000010033bb0       0x20 /Users/jkwang/Desktop/nacl_sdk/pepper_canary/toolchain/mac_pnacl/bin/../x86_64-nacl/lib/libcrt_common.a(lib_a-s_fpclassify.o)
                                         0x34 (size before relaxing)
 .eh_frame      0x0000000010033bd0       0x20 /Users/jkwang/Desktop/nacl_sdk/pepper_canary/toolchain/mac_pnacl/bin/../x86_64-nacl/lib/libcrt_common.a(lib_a-s_frexp.o)
                                         0x34 (size before relaxing)
 .eh_frame      0x0000000010033bf0       0x20 /Users/jkwang/Desktop/nacl_sdk/pepper_canary/toolchain/mac_pnacl/bin/../x86_64-nacl/lib/libcrt_common.a(lib_a-strcasecmp.o)
                                         0x34 (size before relaxing)
 .eh_frame      0x0000000010033c10       0x20 /Users/jkwang/Desktop/nacl_sdk/pepper_canary/toolchain/mac_pnacl/bin/../x86_64-nacl/lib/libcrt_common.a(lib_a-strchr.o)
                                         0x34 (size before relaxing)
 .eh_frame      0x0000000010033c30       0x20 /Users/jkwang/Desktop/nacl_sdk/pepper_canary/toolchain/mac_pnacl/bin/../x86_64-nacl/lib/libcrt_common.a(lib_a-strlcpy.o)
                                         0x34 (size before relaxing)
 .eh_frame      0x0000000010033c50       0x20 /Users/jkwang/Desktop/nacl_sdk/pepper_canary/toolchain/mac_pnacl/bin/../x86_64-nacl/lib/libcrt_common.a(lib_a-strncasecmp.o)
                                         0x34 (size before relaxing)
 .eh_frame      0x0000000010033c70       0x20 /Users/jkwang/Desktop/nacl_sdk/pepper_canary/toolchain/mac_pnacl/bin/../x86_64-nacl/lib/libcrt_common.a(lib_a-strncpy.o)
                                         0x38 (size before relaxing)
 .eh_frame      0x0000000010033c90       0x48 /Users/jkwang/Desktop/nacl_sdk/pepper_canary/toolchain/mac_pnacl/bin/../x86_64-nacl/lib/libcrt_common.a(lib_a-strtol.o)
                                         0x5c (size before relaxing)
 .eh_frame      0x0000000010033cd8       0x28 /Users/jkwang/Desktop/nacl_sdk/pepper_canary/toolchain/mac_pnacl/bin/../x86_64-nacl/lib/libcrt_common.a(lib_a-svfprintf.o)
                                         0x3c (size before relaxing)
 .eh_frame      0x0000000010033d00       0x98 /Users/jkwang/Desktop/nacl_sdk/pepper_canary/toolchain/mac_pnacl/bin/../x86_64-nacl/lib/libcrt_common.a(lib_a-vfiprintf.o)
                                         0xa4 (size before relaxing)
 .eh_frame      0x0000000010033d98       0x50 /Users/jkwang/Desktop/nacl_sdk/pepper_canary/toolchain/mac_pnacl/bin/../x86_64-nacl/lib/libcrt_common.a(lib_a-wcsnrtombs.o)
                                         0x60 (size before relaxing)
 .eh_frame      0x0000000010033de8       0x20 /Users/jkwang/Desktop/nacl_sdk/pepper_canary/toolchain/mac_pnacl/bin/../x86_64-nacl/lib/libcrt_common.a(lib_a-ctype_.o)
                                         0x34 (size before relaxing)
 .eh_frame      0x0000000010033e08       0x48 /Users/jkwang/Desktop/nacl_sdk/pepper_canary/toolchain/mac_pnacl/bin/../x86_64-nacl/lib/libcrt_common.a(lib_a-fputwc.o)
                                         0x5c (size before relaxing)
 .eh_frame      0x0000000010033e50       0x50 /Users/jkwang/Desktop/nacl_sdk/pepper_canary/toolchain/mac_pnacl/bin/../x86_64-nacl/lib/libcrt_common.a(lib_a-svfiprintf.o)
                                         0x60 (size before relaxing)
 .eh_frame      0x0000000010033ea0       0x48 /Users/jkwang/Desktop/nacl_sdk/pepper_canary/toolchain/mac_pnacl/bin/../x86_64-nacl/lib/libcrt_common.a(lib_a-wbuf.o)
                                         0x5c (size before relaxing)
 .eh_frame      0x0000000010033ee8       0x18 /Users/jkwang/Desktop/nacl_sdk/pepper_canary/toolchain/mac_pnacl/bin/../x86_64-nacl/lib/libnacl.a(close.o)
                                         0x30 (size before relaxing)
 .eh_frame      0x0000000010033f00       0x18 /Users/jkwang/Desktop/nacl_sdk/pepper_canary/toolchain/mac_pnacl/bin/../x86_64-nacl/lib/libnacl.a(fstat.o)
                                         0x30 (size before relaxing)
 .eh_frame      0x0000000010033f18       0x20 /Users/jkwang/Desktop/nacl_sdk/pepper_canary/toolchain/mac_pnacl/bin/../x86_64-nacl/lib/libnacl.a(isatty.o)
                                         0x38 (size before relaxing)
 .eh_frame      0x0000000010033f38       0x20 /Users/jkwang/Desktop/nacl_sdk/pepper_canary/toolchain/mac_pnacl/bin/../x86_64-nacl/lib/libnacl.a(lseek.o)
                                         0x34 (size before relaxing)
 .eh_frame      0x0000000010033f58       0x18 /Users/jkwang/Desktop/nacl_sdk/pepper_canary/toolchain/mac_pnacl/bin/../x86_64-nacl/lib/libnacl.a(nanosleep.o)
                                         0x30 (size before relaxing)
 .eh_frame      0x0000000010033f70       0x18 /Users/jkwang/Desktop/nacl_sdk/pepper_canary/toolchain/mac_pnacl/bin/../x86_64-nacl/lib/libnacl.a(nacl_irt_fdio.o)
                                         0x2c (size before relaxing)
 .eh_frame      0x0000000010033f88       0x20 /Users/jkwang/Desktop/nacl_sdk/pepper_canary/toolchain/mac_pnacl/bin/../x86_64-nacl/lib/libnacl.a(read.o)
                                         0x34 (size before relaxing)
 .eh_frame      0x0000000010033fa8      0x2f0 /Users/jkwang/Desktop/nacl_sdk/pepper_canary/toolchain/mac_pnacl/bin/../lib/clang/3.7.0/lib/x86_64-nacl/libgcc_eh.a(unwind-dw2-fde-glibc.o)
                                        0x2c8 (size before relaxing)
 .eh_frame      0x0000000010034298        0x4 /Users/jkwang/Desktop/nacl_sdk/pepper_canary/toolchain/mac_pnacl/bin/../lib/clang/3.7.0/lib/x86_64-nacl/crtend.o

.gcc_except_table
 *(.gcc_except_table .gcc_except_table.*)

.exception_ranges
 *(.exception_ranges .exception_ranges*)

.tdata          0x00000000100342a0      0x478
 *(.tdata .tdata.* .gnu.linkonce.td.*)
 .tdata._impure_ptr
                0x00000000100342a0        0x4 /Users/jkwang/Desktop/nacl_sdk/pepper_canary/toolchain/mac_pnacl/bin/../x86_64-nacl/lib/libcrt_common.a(lib_a-impure.o)
                0x00000000100342a0                _impure_ptr
 *fill*         0x00000000100342a4        0x4 
 .tdata.impure_data
                0x00000000100342a8      0x470 /Users/jkwang/Desktop/nacl_sdk/pepper_canary/toolchain/mac_pnacl/bin/../x86_64-nacl/lib/libcrt_common.a(lib_a-impure.o)

.tbss           0x0000000010034718        0x8
 *(.tbss .tbss.* .gnu.linkonce.tb.*)
 .tbss          0x0000000010034718        0x8 /Users/jkwang/Desktop/nacl_sdk/pepper_canary/toolchain/mac_pnacl/bin/../x86_64-nacl/lib/libpthread.a(nc_thread.o)
 *(.tcommon)

.preinit_array  0x0000000010034718        0x0
                0x0000000010034718                PROVIDE (__preinit_array_start, .)
 *(.preinit_array)
                0x0000000010034718                PROVIDE (__preinit_array_end, .)

.init_array     0x0000000010034718        0x4
                0x0000000010034718                PROVIDE (__init_array_start, .)
 *(SORT(.init_array.*) SORT(.ctors.*))
 *(.init_array EXCLUDE_FILE(*crtend?.o *crtend.o *crtbegin?.o *crtbegin.o) .ctors)
 .init_array    0x0000000010034718        0x4 /Users/jkwang/Desktop/nacl_sdk/pepper_canary/toolchain/mac_pnacl/bin/../lib/clang/3.7.0/lib/x86_64-nacl/crtbeginT.o
                0x000000001003471c                PROVIDE (__init_array_end, .)

.fini_array     0x000000001003471c        0x4
                0x000000001003471c                PROVIDE (__fini_array_start, .)
 *(SORT(.fini_array.*) SORT(.dtors.*))
 *(.fini_array EXCLUDE_FILE(*crtend?.o *crtend.o *crtbegin?.o *crtbegin.o) .dtors)
 .fini_array    0x000000001003471c        0x4 /Users/jkwang/Desktop/nacl_sdk/pepper_canary/toolchain/mac_pnacl/bin/../lib/clang/3.7.0/lib/x86_64-nacl/crtbeginT.o
                0x0000000010034720                PROVIDE (__fini_array_end, .)

.ctors
 *crtbegin.o(.ctors)
 *crtbegin?.o(.ctors)
 *(EXCLUDE_FILE(*crtend?.o *crtend.o) .ctors)
 *(SORT(.ctors.*))
 *(.ctors)

.dtors
 *crtbegin.o(.dtors)
 *crtbegin?.o(.dtors)
 *(EXCLUDE_FILE(*crtend?.o *crtend.o) .dtors)
 *(SORT(.dtors.*))
 *(.dtors)

.jcr
 *(.jcr)

.data.rel.ro    0x0000000010034720       0x14
 *(.data.rel.ro.local* .gnu.linkonce.d.rel.ro.local.*)
 .data.rel.ro.local.thread_funcs
                0x0000000010034720        0x8 /Users/jkwang/Desktop/nacl_sdk/pepper_canary/toolchain/mac_pnacl/bin/../x86_64-nacl/lib/libppapi_stub.a(thread_creator.o)
 *(.data.rel.ro .data.rel.ro.* .gnu.linkonce.d.rel.ro.*)
 .data.rel.ro.ppapi_app_start_callbacks
                0x0000000010034728        0xc /Users/jkwang/Desktop/nacl_sdk/pepper_canary/toolchain/mac_pnacl/bin/../x86_64-nacl/lib/libppapi_stub.a(ppapi_plugin_main.o)

.dynamic
 *(.dynamic)

.got            0x0000000010034738        0x0
 *(.got)
 .got           0x0000000000000000        0x0 /Users/jkwang/Desktop/nacl_sdk/pepper_canary/toolchain/mac_pnacl/bin/../lib/clang/3.7.0/lib/x86_64-nacl/crtbeginT.o
 *(.igot)
                0x0000000010034738                . = DATA_SEGMENT_RELRO_END (., (SIZEOF (.got.plt) >= 0x18)?0x18:0x0)

.got.plt        0x0000000010034738       0x18
 *(.got.plt)
 .got.plt       0x0000000010034738       0x18 /Users/jkwang/Desktop/nacl_sdk/pepper_canary/toolchain/mac_pnacl/bin/../lib/clang/3.7.0/lib/x86_64-nacl/crtbeginT.o
                0x0000000010034738                _GLOBAL_OFFSET_TABLE_
 *(.igot.plt)
 .igot.plt      0x0000000000000000        0x0 /Users/jkwang/Desktop/nacl_sdk/pepper_canary/toolchain/mac_pnacl/bin/../lib/clang/3.7.0/lib/x86_64-nacl/crtbeginT.o

.data           0x0000000010034750      0x690
 *(.data .data.* .gnu.linkonce.d.*)
 .data          0x0000000010034750        0x0 /Users/jkwang/Desktop/nacl_sdk/pepper_canary/toolchain/mac_pnacl/bin/../x86_64-nacl/lib/crti.o
 .data          0x0000000010034750        0x0 /Users/jkwang/Desktop/nacl_sdk/pepper_canary/toolchain/mac_pnacl/bin/../lib/clang/3.7.0/lib/x86_64-nacl/crtbeginT.o
 .data          0x0000000010034750       0x18 clang-newlib/Release/debugging_x86_64.o
 .data          0x0000000010034768        0x0 /Users/jkwang/Desktop/nacl_sdk/pepper_canary/lib/clang-newlib_x86_64/Release/liberror_handling.a(error_handling_x86_64.o)
 .data          0x0000000010034768        0x0 /Users/jkwang/Desktop/nacl_sdk/pepper_canary/lib/clang-newlib_x86_64/Release/liberror_handling.a(string_stream_x86_64.o)
 .data          0x0000000010034768        0x0 /Users/jkwang/Desktop/nacl_sdk/pepper_canary/toolchain/mac_pnacl/bin/../x86_64-nacl/lib/libppapi_stub.a(plugin_main_irt.o)
 .data          0x0000000010034768        0x0 /Users/jkwang/Desktop/nacl_sdk/pepper_canary/toolchain/mac_pnacl/bin/../x86_64-nacl/lib/libppapi_stub.a(ppapi_plugin_main.o)
 .data          0x0000000010034768        0x0 /Users/jkwang/Desktop/nacl_sdk/pepper_canary/toolchain/mac_pnacl/bin/../x86_64-nacl/lib/libppapi_stub.a(ppapi_plugin_start.o)
 .data          0x0000000010034768        0x0 /Users/jkwang/Desktop/nacl_sdk/pepper_canary/toolchain/mac_pnacl/bin/../x86_64-nacl/lib/libppapi_stub.a(thread_creator.o)
 .data          0x0000000010034768        0x4 /Users/jkwang/Desktop/nacl_sdk/pepper_canary/toolchain/mac_pnacl/bin/../x86_64-nacl/lib/libpthread.a(nc_thread.o)
 .data          0x000000001003476c        0x0 /Users/jkwang/Desktop/nacl_sdk/pepper_canary/toolchain/mac_pnacl/bin/../x86_64-nacl/lib/libpthread.a(nc_mutex.o)
 .data          0x000000001003476c        0x0 /Users/jkwang/Desktop/nacl_sdk/pepper_canary/toolchain/mac_pnacl/bin/../x86_64-nacl/lib/libpthread.a(nc_condvar.o)
 .data          0x000000001003476c        0x4 /Users/jkwang/Desktop/nacl_sdk/pepper_canary/toolchain/mac_pnacl/bin/../x86_64-nacl/lib/libpthread.a(valgrind_annotations.o)
 .data          0x0000000010034770        0x0 /Users/jkwang/Desktop/nacl_sdk/pepper_canary/toolchain/mac_pnacl/bin/../x86_64-nacl/lib/libpthread.a(nc_init_irt.o)
 .data          0x0000000010034770       0x20 /Users/jkwang/Desktop/nacl_sdk/pepper_canary/toolchain/mac_pnacl/bin/../x86_64-nacl/lib/libnacl.a(nacl_irt.o)
                0x0000000010034770                __libnacl_irt_fdio
 .data          0x0000000010034790        0x0 /Users/jkwang/Desktop/nacl_sdk/pepper_canary/toolchain/mac_pnacl/bin/../x86_64-nacl/lib/libnacl.a(_exit.o)
 .data          0x0000000010034790        0x0 /Users/jkwang/Desktop/nacl_sdk/pepper_canary/toolchain/mac_pnacl/bin/../x86_64-nacl/lib/libnacl.a(mmap.o)
 .data          0x0000000010034790        0x0 /Users/jkwang/Desktop/nacl_sdk/pepper_canary/toolchain/mac_pnacl/bin/../x86_64-nacl/lib/libnacl.a(munmap.o)
 .data          0x0000000010034790        0x0 /Users/jkwang/Desktop/nacl_sdk/pepper_canary/toolchain/mac_pnacl/bin/../x86_64-nacl/lib/libnacl.a(nacl_interface_query.o)
 .data          0x0000000010034790        0x0 /Users/jkwang/Desktop/nacl_sdk/pepper_canary/toolchain/mac_pnacl/bin/../x86_64-nacl/lib/libnacl.a(write.o)
 .data          0x0000000010034790        0x4 /Users/jkwang/Desktop/nacl_sdk/pepper_canary/toolchain/mac_pnacl/bin/../x86_64-nacl/lib/libnacl.a(environ.o)
                0x0000000010034790                environ
 .data          0x0000000010034794        0x0 /Users/jkwang/Desktop/nacl_sdk/pepper_canary/toolchain/mac_pnacl/bin/../x86_64-nacl/lib/libnacl.a(malloc.o)
 .data          0x0000000010034794        0x0 /Users/jkwang/Desktop/nacl_sdk/pepper_canary/toolchain/mac_pnacl/bin/../x86_64-nacl/lib/libnacl.a(start.o)
 .data          0x0000000010034794        0x0 /Users/jkwang/Desktop/nacl_sdk/pepper_canary/toolchain/mac_pnacl/bin/../x86_64-nacl/lib/libnacl.a(nacl_add_tp.o)
 .data          0x0000000010034794        0x0 /Users/jkwang/Desktop/nacl_sdk/pepper_canary/toolchain/mac_pnacl/bin/../x86_64-nacl/lib/libnacl.a(nacl_read_tp.o)
 .data          0x0000000010034794        0x0 /Users/jkwang/Desktop/nacl_sdk/pepper_canary/toolchain/mac_pnacl/bin/../x86_64-nacl/lib/libnacl.a(pthread_initialize_minimal.o)
 .data          0x0000000010034794        0x0 /Users/jkwang/Desktop/nacl_sdk/pepper_canary/toolchain/mac_pnacl/bin/../x86_64-nacl/lib/libnacl.a(tls.o)
 .data          0x0000000010034794        0x0 /Users/jkwang/Desktop/nacl_sdk/pepper_canary/toolchain/mac_pnacl/bin/../x86_64-nacl/lib/libnacl.a(nacl_irt_init.o)
 .data          0x0000000010034794        0x0 /Users/jkwang/Desktop/nacl_sdk/pepper_canary/toolchain/mac_pnacl/bin/../x86_64-nacl/lib/libnacl.a(nacl_tls_get.o)
 .data          0x0000000010034794        0x0 /Users/jkwang/Desktop/nacl_sdk/pepper_canary/toolchain/mac_pnacl/bin/../x86_64-nacl/lib/libnacl.a(nacl_tls_init.o)
 .data          0x0000000010034794        0x0 /Users/jkwang/Desktop/nacl_sdk/pepper_canary/toolchain/mac_pnacl/bin/../x86_64-nacl/lib/libnacl.a(abort.o)
 .data          0x0000000010034794        0x0 /Users/jkwang/Desktop/nacl_sdk/pepper_canary/toolchain/mac_pnacl/bin/../x86_64-nacl/lib/libnacl.a(sched_yield.o)
 .data          0x0000000010034794        0x0 /Users/jkwang/Desktop/nacl_sdk/pepper_canary/toolchain/mac_pnacl/bin/../x86_64-nacl/lib/libnacl.a(sysconf.o)
 .data          0x0000000010034794        0x0 /Users/jkwang/Desktop/nacl_sdk/pepper_canary/toolchain/mac_pnacl/bin/../x86_64-nacl/lib/libcrt_common.a(lib_a-atexit.o)
 .data          0x0000000010034794        0x0 /Users/jkwang/Desktop/nacl_sdk/pepper_canary/toolchain/mac_pnacl/bin/../x86_64-nacl/lib/libcrt_common.a(lib_a-errno.o)
 .data          0x0000000010034794        0x0 /Users/jkwang/Desktop/nacl_sdk/pepper_canary/toolchain/mac_pnacl/bin/../x86_64-nacl/lib/libcrt_common.a(lib_a-exit.o)
 .data          0x0000000010034794        0x0 /Users/jkwang/Desktop/nacl_sdk/pepper_canary/toolchain/mac_pnacl/bin/../x86_64-nacl/lib/libcrt_common.a(lib_a-fflush.o)
 .data          0x0000000010034794        0x0 /Users/jkwang/Desktop/nacl_sdk/pepper_canary/toolchain/mac_pnacl/bin/../x86_64-nacl/lib/libcrt_common.a(lib_a-findfp.o)
 .data.__sfp_lock
                0x0000000010034794       0x14 /Users/jkwang/Desktop/nacl_sdk/pepper_canary/toolchain/mac_pnacl/bin/../x86_64-nacl/lib/libcrt_common.a(lib_a-findfp.o)
 .data.__sinit_lock
                0x00000000100347a8       0x14 /Users/jkwang/Desktop/nacl_sdk/pepper_canary/toolchain/mac_pnacl/bin/../x86_64-nacl/lib/libcrt_common.a(lib_a-findfp.o)
 .data          0x00000000100347bc        0x0 /Users/jkwang/Desktop/nacl_sdk/pepper_canary/toolchain/mac_pnacl/bin/../x86_64-nacl/lib/libcrt_common.a(lib_a-fini.o)
 .data          0x00000000100347bc        0x0 /Users/jkwang/Desktop/nacl_sdk/pepper_canary/toolchain/mac_pnacl/bin/../x86_64-nacl/lib/libcrt_common.a(lib_a-fprintf.o)
 .data          0x00000000100347bc        0x0 /Users/jkwang/Desktop/nacl_sdk/pepper_canary/toolchain/mac_pnacl/bin/../x86_64-nacl/lib/libcrt_common.a(lib_a-fwalk.o)
 .data          0x00000000100347bc        0x0 /Users/jkwang/Desktop/nacl_sdk/pepper_canary/toolchain/mac_pnacl/bin/../x86_64-nacl/lib/libcrt_common.a(lib_a-fwrite.o)
 .data          0x00000000100347bc        0x0 /Users/jkwang/Desktop/nacl_sdk/pepper_canary/toolchain/mac_pnacl/bin/../x86_64-nacl/lib/libcrt_common.a(lib_a-getenv.o)
 .data          0x00000000100347bc        0x0 /Users/jkwang/Desktop/nacl_sdk/pepper_canary/toolchain/mac_pnacl/bin/../x86_64-nacl/lib/libcrt_common.a(lib_a-getenv_r.o)
 .data          0x00000000100347bc        0x0 /Users/jkwang/Desktop/nacl_sdk/pepper_canary/toolchain/mac_pnacl/bin/../x86_64-nacl/lib/libcrt_common.a(lib_a-impure.o)
 *fill*         0x00000000100347bc        0x4 
 .data.global_impure_data
                0x00000000100347c0      0x470 /Users/jkwang/Desktop/nacl_sdk/pepper_canary/toolchain/mac_pnacl/bin/../x86_64-nacl/lib/libcrt_common.a(lib_a-impure.o)
 .data          0x0000000010034c30        0x0 /Users/jkwang/Desktop/nacl_sdk/pepper_canary/toolchain/mac_pnacl/bin/../x86_64-nacl/lib/libcrt_common.a(lib_a-init.o)
 .data          0x0000000010034c30        0x0 /Users/jkwang/Desktop/nacl_sdk/pepper_canary/toolchain/mac_pnacl/bin/../x86_64-nacl/lib/libcrt_common.a(lib_a-memcpy.o)
 .data          0x0000000010034c30        0x0 /Users/jkwang/Desktop/nacl_sdk/pepper_canary/toolchain/mac_pnacl/bin/../x86_64-nacl/lib/libcrt_common.a(lib_a-memset.o)
 .data          0x0000000010034c30        0x0 /Users/jkwang/Desktop/nacl_sdk/pepper_canary/toolchain/mac_pnacl/bin/../x86_64-nacl/lib/libcrt_common.a(lib_a-sleep.o)
 .data          0x0000000010034c30        0x0 /Users/jkwang/Desktop/nacl_sdk/pepper_canary/toolchain/mac_pnacl/bin/../x86_64-nacl/lib/libcrt_common.a(lib_a-stdio.o)
 .data          0x0000000010034c30        0x0 /Users/jkwang/Desktop/nacl_sdk/pepper_canary/toolchain/mac_pnacl/bin/../x86_64-nacl/lib/libcrt_common.a(lib_a-strcat.o)
 .data          0x0000000010034c30        0x0 /Users/jkwang/Desktop/nacl_sdk/pepper_canary/toolchain/mac_pnacl/bin/../x86_64-nacl/lib/libcrt_common.a(lib_a-strcmp.o)
 .data          0x0000000010034c30        0x0 /Users/jkwang/Desktop/nacl_sdk/pepper_canary/toolchain/mac_pnacl/bin/../x86_64-nacl/lib/libcrt_common.a(lib_a-strcpy.o)
 .data          0x0000000010034c30        0x0 /Users/jkwang/Desktop/nacl_sdk/pepper_canary/toolchain/mac_pnacl/bin/../x86_64-nacl/lib/libcrt_common.a(lib_a-strlen.o)
 .data          0x0000000010034c30        0x0 /Users/jkwang/Desktop/nacl_sdk/pepper_canary/toolchain/mac_pnacl/bin/../x86_64-nacl/lib/libcrt_common.a(lib_a-strncmp.o)
 .data          0x0000000010034c30        0x0 /Users/jkwang/Desktop/nacl_sdk/pepper_canary/toolchain/mac_pnacl/bin/../x86_64-nacl/lib/libcrt_common.a(lib_a-vfprintf.o)
 .data          0x0000000010034c30        0x0 /Users/jkwang/Desktop/nacl_sdk/pepper_canary/toolchain/mac_pnacl/bin/../x86_64-nacl/lib/libcrt_common.a(lib_a-vsnprintf.o)
 .data          0x0000000010034c30        0x0 /Users/jkwang/Desktop/nacl_sdk/pepper_canary/toolchain/mac_pnacl/bin/../x86_64-nacl/lib/libcrt_common.a(lib_a-vsprintf.o)
 .data          0x0000000010034c30        0x0 /Users/jkwang/Desktop/nacl_sdk/pepper_canary/toolchain/mac_pnacl/bin/../x86_64-nacl/lib/libcrt_common.a(lib_a-wcrtomb.o)
 .data          0x0000000010034c30        0x0 /Users/jkwang/Desktop/nacl_sdk/pepper_canary/toolchain/mac_pnacl/bin/../x86_64-nacl/lib/libcrt_common.a(lib_a-wcsrtombs.o)
 .data          0x0000000010034c30        0x0 /Users/jkwang/Desktop/nacl_sdk/pepper_canary/toolchain/mac_pnacl/bin/../x86_64-nacl/lib/libcrt_common.a(lib_a-wctomb_r.o)
 .data.__wctomb
                0x0000000010034c30        0x4 /Users/jkwang/Desktop/nacl_sdk/pepper_canary/toolchain/mac_pnacl/bin/../x86_64-nacl/lib/libcrt_common.a(lib_a-wctomb_r.o)
                0x0000000010034c30                __wctomb
 .data          0x0000000010034c34        0x0 /Users/jkwang/Desktop/nacl_sdk/pepper_canary/toolchain/mac_pnacl/bin/../x86_64-nacl/lib/libcrt_common.a(lib_a-wsetup.o)
 .data          0x0000000010034c34        0x0 /Users/jkwang/Desktop/nacl_sdk/pepper_canary/toolchain/mac_pnacl/bin/../x86_64-nacl/lib/libcrt_common.a(lib_a-__atexit.o)
 .data          0x0000000010034c34        0x0 /Users/jkwang/Desktop/nacl_sdk/pepper_canary/toolchain/mac_pnacl/bin/../x86_64-nacl/lib/libcrt_common.a(lib_a-__call_atexit.o)
 .data.__atexit_lock
                0x0000000010034c34       0x14 /Users/jkwang/Desktop/nacl_sdk/pepper_canary/toolchain/mac_pnacl/bin/../x86_64-nacl/lib/libcrt_common.a(lib_a-__call_atexit.o)
                0x0000000010034c34                __atexit_lock
 .data          0x0000000010034c48        0x0 /Users/jkwang/Desktop/nacl_sdk/pepper_canary/toolchain/mac_pnacl/bin/../x86_64-nacl/lib/libcrt_common.a(lib_a-dtoa.o)
 .data          0x0000000010034c48        0x0 /Users/jkwang/Desktop/nacl_sdk/pepper_canary/toolchain/mac_pnacl/bin/../x86_64-nacl/lib/libcrt_common.a(lib_a-envlock.o)
 .data.__env_lock_object
                0x0000000010034c48       0x14 /Users/jkwang/Desktop/nacl_sdk/pepper_canary/toolchain/mac_pnacl/bin/../x86_64-nacl/lib/libcrt_common.a(lib_a-envlock.o)
 .data          0x0000000010034c5c        0x0 /Users/jkwang/Desktop/nacl_sdk/pepper_canary/toolchain/mac_pnacl/bin/../x86_64-nacl/lib/libcrt_common.a(lib_a-fclose.o)
 .data          0x0000000010034c5c        0x0 /Users/jkwang/Desktop/nacl_sdk/pepper_canary/toolchain/mac_pnacl/bin/../x86_64-nacl/lib/libcrt_common.a(lib_a-fvwrite.o)
 .data          0x0000000010034c5c        0x0 /Users/jkwang/Desktop/nacl_sdk/pepper_canary/toolchain/mac_pnacl/bin/../x86_64-nacl/lib/libcrt_common.a(lib_a-locale.o)
 .data.__mb_cur_max
                0x0000000010034c5c        0x4 /Users/jkwang/Desktop/nacl_sdk/pepper_canary/toolchain/mac_pnacl/bin/../x86_64-nacl/lib/libcrt_common.a(lib_a-locale.o)
                0x0000000010034c5c                __mb_cur_max
 .data.__default_locale
                0x0000000010034c60       0x20 /Users/jkwang/Desktop/nacl_sdk/pepper_canary/toolchain/mac_pnacl/bin/../x86_64-nacl/lib/libcrt_common.a(lib_a-locale.o)
                0x0000000010034c60                __default_locale
 .data.current_categories
                0x0000000010034c80       0xe0 /Users/jkwang/Desktop/nacl_sdk/pepper_canary/toolchain/mac_pnacl/bin/../x86_64-nacl/lib/libcrt_common.a(lib_a-locale.o)
 .data.lc_ctype_charset
                0x0000000010034d60       0x20 /Users/jkwang/Desktop/nacl_sdk/pepper_canary/toolchain/mac_pnacl/bin/../x86_64-nacl/lib/libcrt_common.a(lib_a-locale.o)
 .data.lc_message_charset
                0x0000000010034d80       0x20 /Users/jkwang/Desktop/nacl_sdk/pepper_canary/toolchain/mac_pnacl/bin/../x86_64-nacl/lib/libcrt_common.a(lib_a-locale.o)
 .data.lconv    0x0000000010034da0       0x38 /Users/jkwang/Desktop/nacl_sdk/pepper_canary/toolchain/mac_pnacl/bin/../x86_64-nacl/lib/libcrt_common.a(lib_a-locale.o)
 .data          0x0000000010034dd8        0x0 /Users/jkwang/Desktop/nacl_sdk/pepper_canary/toolchain/mac_pnacl/bin/../x86_64-nacl/lib/libcrt_common.a(lib_a-makebuf.o)
 .data          0x0000000010034dd8        0x0 /Users/jkwang/Desktop/nacl_sdk/pepper_canary/toolchain/mac_pnacl/bin/../x86_64-nacl/lib/libcrt_common.a(lib_a-mbtowc_r.o)
 .data.__mbtowc
                0x0000000010034dd8        0x4 /Users/jkwang/Desktop/nacl_sdk/pepper_canary/toolchain/mac_pnacl/bin/../x86_64-nacl/lib/libcrt_common.a(lib_a-mbtowc_r.o)
                0x0000000010034dd8                __mbtowc
 .data          0x0000000010034ddc        0x0 /Users/jkwang/Desktop/nacl_sdk/pepper_canary/toolchain/mac_pnacl/bin/../x86_64-nacl/lib/libcrt_common.a(lib_a-memchr.o)
 .data          0x0000000010034ddc        0x0 /Users/jkwang/Desktop/nacl_sdk/pepper_canary/toolchain/mac_pnacl/bin/../x86_64-nacl/lib/libcrt_common.a(lib_a-memmove.o)
 .data          0x0000000010034ddc        0x0 /Users/jkwang/Desktop/nacl_sdk/pepper_canary/toolchain/mac_pnacl/bin/../x86_64-nacl/lib/libcrt_common.a(lib_a-mprec.o)
 .data          0x0000000010034ddc        0x0 /Users/jkwang/Desktop/nacl_sdk/pepper_canary/toolchain/mac_pnacl/bin/../x86_64-nacl/lib/libcrt_common.a(lib_a-s_fpclassify.o)
 .data          0x0000000010034ddc        0x0 /Users/jkwang/Desktop/nacl_sdk/pepper_canary/toolchain/mac_pnacl/bin/../x86_64-nacl/lib/libcrt_common.a(lib_a-s_frexp.o)
 .data          0x0000000010034ddc        0x0 /Users/jkwang/Desktop/nacl_sdk/pepper_canary/toolchain/mac_pnacl/bin/../x86_64-nacl/lib/libcrt_common.a(lib_a-strcasecmp.o)
 .data          0x0000000010034ddc        0x0 /Users/jkwang/Desktop/nacl_sdk/pepper_canary/toolchain/mac_pnacl/bin/../x86_64-nacl/lib/libcrt_common.a(lib_a-strchr.o)
 .data          0x0000000010034ddc        0x0 /Users/jkwang/Desktop/nacl_sdk/pepper_canary/toolchain/mac_pnacl/bin/../x86_64-nacl/lib/libcrt_common.a(lib_a-strlcpy.o)
 .data          0x0000000010034ddc        0x0 /Users/jkwang/Desktop/nacl_sdk/pepper_canary/toolchain/mac_pnacl/bin/../x86_64-nacl/lib/libcrt_common.a(lib_a-strncasecmp.o)
 .data          0x0000000010034ddc        0x0 /Users/jkwang/Desktop/nacl_sdk/pepper_canary/toolchain/mac_pnacl/bin/../x86_64-nacl/lib/libcrt_common.a(lib_a-strncpy.o)
 .data          0x0000000010034ddc        0x0 /Users/jkwang/Desktop/nacl_sdk/pepper_canary/toolchain/mac_pnacl/bin/../x86_64-nacl/lib/libcrt_common.a(lib_a-strtol.o)
 .data          0x0000000010034ddc        0x0 /Users/jkwang/Desktop/nacl_sdk/pepper_canary/toolchain/mac_pnacl/bin/../x86_64-nacl/lib/libcrt_common.a(lib_a-svfprintf.o)
 .data          0x0000000010034ddc        0x0 /Users/jkwang/Desktop/nacl_sdk/pepper_canary/toolchain/mac_pnacl/bin/../x86_64-nacl/lib/libcrt_common.a(lib_a-vfiprintf.o)
 .data          0x0000000010034ddc        0x0 /Users/jkwang/Desktop/nacl_sdk/pepper_canary/toolchain/mac_pnacl/bin/../x86_64-nacl/lib/libcrt_common.a(lib_a-wcsnrtombs.o)
 .data          0x0000000010034ddc        0x0 /Users/jkwang/Desktop/nacl_sdk/pepper_canary/toolchain/mac_pnacl/bin/../x86_64-nacl/lib/libcrt_common.a(lib_a-ctype_.o)
 .data.__ctype_ptr__
                0x0000000010034ddc        0x4 /Users/jkwang/Desktop/nacl_sdk/pepper_canary/toolchain/mac_pnacl/bin/../x86_64-nacl/lib/libcrt_common.a(lib_a-ctype_.o)
                0x0000000010034ddc                __ctype_ptr__
 .data          0x0000000010034de0        0x0 /Users/jkwang/Desktop/nacl_sdk/pepper_canary/toolchain/mac_pnacl/bin/../x86_64-nacl/lib/libcrt_common.a(lib_a-fputwc.o)
 .data          0x0000000010034de0        0x0 /Users/jkwang/Desktop/nacl_sdk/pepper_canary/toolchain/mac_pnacl/bin/../x86_64-nacl/lib/libcrt_common.a(lib_a-svfiprintf.o)
 .data          0x0000000010034de0        0x0 /Users/jkwang/Desktop/nacl_sdk/pepper_canary/toolchain/mac_pnacl/bin/../x86_64-nacl/lib/libcrt_common.a(lib_a-wbuf.o)
 .data          0x0000000010034de0        0x0 /Users/jkwang/Desktop/nacl_sdk/pepper_canary/toolchain/mac_pnacl/bin/../x86_64-nacl/lib/libnacl.a(close.o)
 .data          0x0000000010034de0        0x0 /Users/jkwang/Desktop/nacl_sdk/pepper_canary/toolchain/mac_pnacl/bin/../x86_64-nacl/lib/libnacl.a(fstat.o)
 .data          0x0000000010034de0        0x0 /Users/jkwang/Desktop/nacl_sdk/pepper_canary/toolchain/mac_pnacl/bin/../x86_64-nacl/lib/libnacl.a(isatty.o)
 .data          0x0000000010034de0        0x0 /Users/jkwang/Desktop/nacl_sdk/pepper_canary/toolchain/mac_pnacl/bin/../x86_64-nacl/lib/libnacl.a(lseek.o)
 .data          0x0000000010034de0        0x0 /Users/jkwang/Desktop/nacl_sdk/pepper_canary/toolchain/mac_pnacl/bin/../x86_64-nacl/lib/libnacl.a(nanosleep.o)
 .data          0x0000000010034de0        0x0 /Users/jkwang/Desktop/nacl_sdk/pepper_canary/toolchain/mac_pnacl/bin/../x86_64-nacl/lib/libnacl.a(nacl_irt_fdio.o)
 .data          0x0000000010034de0        0x0 /Users/jkwang/Desktop/nacl_sdk/pepper_canary/toolchain/mac_pnacl/bin/../x86_64-nacl/lib/libnacl.a(read.o)
 .data          0x0000000010034de0        0x0 /Users/jkwang/Desktop/nacl_sdk/pepper_canary/toolchain/mac_pnacl/bin/../lib/clang/3.7.0/lib/x86_64-nacl/libgcc_eh.a(unwind-dw2-fde-glibc.o)
 .data          0x0000000010034de0        0x0 /Users/jkwang/Desktop/nacl_sdk/pepper_canary/toolchain/mac_pnacl/bin/../lib/clang/3.7.0/lib/x86_64-nacl/crtend.o
 .data          0x0000000010034de0        0x0 /Users/jkwang/Desktop/nacl_sdk/pepper_canary/toolchain/mac_pnacl/bin/../x86_64-nacl/lib/crtn.o

.data1
 *(.data1)
                0x0000000010034de0                _edata = .
                0x0000000010034de0                PROVIDE (edata, .)
                0x0000000010034de0                . = .
                0x0000000010034de0                __bss_start = .

.bss            0x0000000010034de0     0x1668
 *(.dynbss)
 *(.bss .bss.* .gnu.linkonce.b.*)
 .bss           0x0000000010034de0        0x0 /Users/jkwang/Desktop/nacl_sdk/pepper_canary/toolchain/mac_pnacl/bin/../x86_64-nacl/lib/crti.o
 .bss           0x0000000010034de0       0x48 /Users/jkwang/Desktop/nacl_sdk/pepper_canary/toolchain/mac_pnacl/bin/../lib/clang/3.7.0/lib/x86_64-nacl/crtbeginT.o
                0x0000000010034de0                __dso_handle
 .bss           0x0000000010034e28       0x10 clang-newlib/Release/debugging_x86_64.o
                0x0000000010034e28                ppb_messaging_interface
                0x0000000010034e2c                ppb_var_interface
                0x0000000010034e30                ppb_core_interface
                0x0000000010034e34                g_CrashTime
 .bss           0x0000000010034e38       0x18 /Users/jkwang/Desktop/nacl_sdk/pepper_canary/lib/clang-newlib_x86_64/Release/liberror_handling.a(error_handling_x86_64.o)
 .bss           0x0000000010034e50        0x0 /Users/jkwang/Desktop/nacl_sdk/pepper_canary/lib/clang-newlib_x86_64/Release/liberror_handling.a(string_stream_x86_64.o)
 .bss           0x0000000010034e50        0x0 /Users/jkwang/Desktop/nacl_sdk/pepper_canary/toolchain/mac_pnacl/bin/../x86_64-nacl/lib/libppapi_stub.a(plugin_main_irt.o)
 .bss           0x0000000010034e50        0x0 /Users/jkwang/Desktop/nacl_sdk/pepper_canary/toolchain/mac_pnacl/bin/../x86_64-nacl/lib/libppapi_stub.a(ppapi_plugin_main.o)
 .bss           0x0000000010034e50        0x0 /Users/jkwang/Desktop/nacl_sdk/pepper_canary/toolchain/mac_pnacl/bin/../x86_64-nacl/lib/libppapi_stub.a(ppapi_plugin_start.o)
 .bss           0x0000000010034e50        0x0 /Users/jkwang/Desktop/nacl_sdk/pepper_canary/toolchain/mac_pnacl/bin/../x86_64-nacl/lib/libppapi_stub.a(thread_creator.o)
 .bss           0x0000000010034e50     0x1034 /Users/jkwang/Desktop/nacl_sdk/pepper_canary/toolchain/mac_pnacl/bin/../x86_64-nacl/lib/libpthread.a(nc_thread.o)
 .bss           0x0000000010035e84        0x0 /Users/jkwang/Desktop/nacl_sdk/pepper_canary/toolchain/mac_pnacl/bin/../x86_64-nacl/lib/libpthread.a(nc_mutex.o)
 .bss           0x0000000010035e84        0x0 /Users/jkwang/Desktop/nacl_sdk/pepper_canary/toolchain/mac_pnacl/bin/../x86_64-nacl/lib/libpthread.a(nc_condvar.o)
 .bss           0x0000000010035e84        0x0 /Users/jkwang/Desktop/nacl_sdk/pepper_canary/toolchain/mac_pnacl/bin/../x86_64-nacl/lib/libpthread.a(valgrind_annotations.o)
 .bss           0x0000000010035e84        0x0 /Users/jkwang/Desktop/nacl_sdk/pepper_canary/toolchain/mac_pnacl/bin/../x86_64-nacl/lib/libpthread.a(nc_init_irt.o)
 .bss           0x0000000010035e84        0x0 /Users/jkwang/Desktop/nacl_sdk/pepper_canary/toolchain/mac_pnacl/bin/../x86_64-nacl/lib/libnacl.a(nacl_irt.o)
 .bss           0x0000000010035e84        0x0 /Users/jkwang/Desktop/nacl_sdk/pepper_canary/toolchain/mac_pnacl/bin/../x86_64-nacl/lib/libnacl.a(_exit.o)
 .bss           0x0000000010035e84        0x0 /Users/jkwang/Desktop/nacl_sdk/pepper_canary/toolchain/mac_pnacl/bin/../x86_64-nacl/lib/libnacl.a(mmap.o)
 .bss           0x0000000010035e84        0x0 /Users/jkwang/Desktop/nacl_sdk/pepper_canary/toolchain/mac_pnacl/bin/../x86_64-nacl/lib/libnacl.a(munmap.o)
 .bss           0x0000000010035e84        0x0 /Users/jkwang/Desktop/nacl_sdk/pepper_canary/toolchain/mac_pnacl/bin/../x86_64-nacl/lib/libnacl.a(nacl_interface_query.o)
 .bss           0x0000000010035e84        0x0 /Users/jkwang/Desktop/nacl_sdk/pepper_canary/toolchain/mac_pnacl/bin/../x86_64-nacl/lib/libnacl.a(write.o)
 .bss           0x0000000010035e84        0x4 /Users/jkwang/Desktop/nacl_sdk/pepper_canary/toolchain/mac_pnacl/bin/../x86_64-nacl/lib/libnacl.a(environ.o)
 .bss           0x0000000010035e88      0x1f8 /Users/jkwang/Desktop/nacl_sdk/pepper_canary/toolchain/mac_pnacl/bin/../x86_64-nacl/lib/libnacl.a(malloc.o)
 .bss           0x0000000010036080        0x0 /Users/jkwang/Desktop/nacl_sdk/pepper_canary/toolchain/mac_pnacl/bin/../x86_64-nacl/lib/libnacl.a(start.o)
 .bss           0x0000000010036080        0x0 /Users/jkwang/Desktop/nacl_sdk/pepper_canary/toolchain/mac_pnacl/bin/../x86_64-nacl/lib/libnacl.a(nacl_add_tp.o)
 .bss           0x0000000010036080        0x0 /Users/jkwang/Desktop/nacl_sdk/pepper_canary/toolchain/mac_pnacl/bin/../x86_64-nacl/lib/libnacl.a(nacl_read_tp.o)
 .bss           0x0000000010036080        0x0 /Users/jkwang/Desktop/nacl_sdk/pepper_canary/toolchain/mac_pnacl/bin/../x86_64-nacl/lib/libnacl.a(pthread_initialize_minimal.o)
 .bss           0x0000000010036080       0x10 /Users/jkwang/Desktop/nacl_sdk/pepper_canary/toolchain/mac_pnacl/bin/../x86_64-nacl/lib/libnacl.a(tls.o)
 .bss           0x0000000010036090        0x0 /Users/jkwang/Desktop/nacl_sdk/pepper_canary/toolchain/mac_pnacl/bin/../x86_64-nacl/lib/libnacl.a(nacl_irt_init.o)
 .bss           0x0000000010036090        0x0 /Users/jkwang/Desktop/nacl_sdk/pepper_canary/toolchain/mac_pnacl/bin/../x86_64-nacl/lib/libnacl.a(nacl_tls_get.o)
 .bss           0x0000000010036090        0x0 /Users/jkwang/Desktop/nacl_sdk/pepper_canary/toolchain/mac_pnacl/bin/../x86_64-nacl/lib/libnacl.a(nacl_tls_init.o)
 .bss           0x0000000010036090        0x0 /Users/jkwang/Desktop/nacl_sdk/pepper_canary/toolchain/mac_pnacl/bin/../x86_64-nacl/lib/libnacl.a(abort.o)
 .bss           0x0000000010036090        0x0 /Users/jkwang/Desktop/nacl_sdk/pepper_canary/toolchain/mac_pnacl/bin/../x86_64-nacl/lib/libnacl.a(sched_yield.o)
 .bss           0x0000000010036090        0x0 /Users/jkwang/Desktop/nacl_sdk/pepper_canary/toolchain/mac_pnacl/bin/../x86_64-nacl/lib/libnacl.a(sysconf.o)
 .bss           0x0000000010036090        0x0 /Users/jkwang/Desktop/nacl_sdk/pepper_canary/toolchain/mac_pnacl/bin/../x86_64-nacl/lib/libcrt_common.a(lib_a-atexit.o)
 .bss           0x0000000010036090        0x0 /Users/jkwang/Desktop/nacl_sdk/pepper_canary/toolchain/mac_pnacl/bin/../x86_64-nacl/lib/libcrt_common.a(lib_a-errno.o)
 .bss           0x0000000010036090        0x0 /Users/jkwang/Desktop/nacl_sdk/pepper_canary/toolchain/mac_pnacl/bin/../x86_64-nacl/lib/libcrt_common.a(lib_a-exit.o)
 .bss           0x0000000010036090        0x0 /Users/jkwang/Desktop/nacl_sdk/pepper_canary/toolchain/mac_pnacl/bin/../x86_64-nacl/lib/libcrt_common.a(lib_a-fflush.o)
 .bss           0x0000000010036090        0x0 /Users/jkwang/Desktop/nacl_sdk/pepper_canary/toolchain/mac_pnacl/bin/../x86_64-nacl/lib/libcrt_common.a(lib_a-findfp.o)
 .bss           0x0000000010036090        0x0 /Users/jkwang/Desktop/nacl_sdk/pepper_canary/toolchain/mac_pnacl/bin/../x86_64-nacl/lib/libcrt_common.a(lib_a-fini.o)
 .bss           0x0000000010036090        0x0 /Users/jkwang/Desktop/nacl_sdk/pepper_canary/toolchain/mac_pnacl/bin/../x86_64-nacl/lib/libcrt_common.a(lib_a-fprintf.o)
 .bss           0x0000000010036090        0x0 /Users/jkwang/Desktop/nacl_sdk/pepper_canary/toolchain/mac_pnacl/bin/../x86_64-nacl/lib/libcrt_common.a(lib_a-fwalk.o)
 .bss           0x0000000010036090        0x0 /Users/jkwang/Desktop/nacl_sdk/pepper_canary/toolchain/mac_pnacl/bin/../x86_64-nacl/lib/libcrt_common.a(lib_a-fwrite.o)
 .bss           0x0000000010036090        0x0 /Users/jkwang/Desktop/nacl_sdk/pepper_canary/toolchain/mac_pnacl/bin/../x86_64-nacl/lib/libcrt_common.a(lib_a-getenv.o)
 .bss           0x0000000010036090        0x0 /Users/jkwang/Desktop/nacl_sdk/pepper_canary/toolchain/mac_pnacl/bin/../x86_64-nacl/lib/libcrt_common.a(lib_a-getenv_r.o)
 .bss           0x0000000010036090        0x0 /Users/jkwang/Desktop/nacl_sdk/pepper_canary/toolchain/mac_pnacl/bin/../x86_64-nacl/lib/libcrt_common.a(lib_a-impure.o)
 .bss           0x0000000010036090        0x0 /Users/jkwang/Desktop/nacl_sdk/pepper_canary/toolchain/mac_pnacl/bin/../x86_64-nacl/lib/libcrt_common.a(lib_a-init.o)
 .bss           0x0000000010036090        0x0 /Users/jkwang/Desktop/nacl_sdk/pepper_canary/toolchain/mac_pnacl/bin/../x86_64-nacl/lib/libcrt_common.a(lib_a-memcpy.o)
 .bss           0x0000000010036090        0x0 /Users/jkwang/Desktop/nacl_sdk/pepper_canary/toolchain/mac_pnacl/bin/../x86_64-nacl/lib/libcrt_common.a(lib_a-memset.o)
 .bss           0x0000000010036090        0x0 /Users/jkwang/Desktop/nacl_sdk/pepper_canary/toolchain/mac_pnacl/bin/../x86_64-nacl/lib/libcrt_common.a(lib_a-sleep.o)
 .bss           0x0000000010036090        0x0 /Users/jkwang/Desktop/nacl_sdk/pepper_canary/toolchain/mac_pnacl/bin/../x86_64-nacl/lib/libcrt_common.a(lib_a-stdio.o)
 .bss           0x0000000010036090        0x0 /Users/jkwang/Desktop/nacl_sdk/pepper_canary/toolchain/mac_pnacl/bin/../x86_64-nacl/lib/libcrt_common.a(lib_a-strcat.o)
 .bss           0x0000000010036090        0x0 /Users/jkwang/Desktop/nacl_sdk/pepper_canary/toolchain/mac_pnacl/bin/../x86_64-nacl/lib/libcrt_common.a(lib_a-strcmp.o)
 .bss           0x0000000010036090        0x0 /Users/jkwang/Desktop/nacl_sdk/pepper_canary/toolchain/mac_pnacl/bin/../x86_64-nacl/lib/libcrt_common.a(lib_a-strcpy.o)
 .bss           0x0000000010036090        0x0 /Users/jkwang/Desktop/nacl_sdk/pepper_canary/toolchain/mac_pnacl/bin/../x86_64-nacl/lib/libcrt_common.a(lib_a-strlen.o)
 .bss           0x0000000010036090        0x0 /Users/jkwang/Desktop/nacl_sdk/pepper_canary/toolchain/mac_pnacl/bin/../x86_64-nacl/lib/libcrt_common.a(lib_a-strncmp.o)
 .bss           0x0000000010036090        0x0 /Users/jkwang/Desktop/nacl_sdk/pepper_canary/toolchain/mac_pnacl/bin/../x86_64-nacl/lib/libcrt_common.a(lib_a-vfprintf.o)
 .bss           0x0000000010036090        0x0 /Users/jkwang/Desktop/nacl_sdk/pepper_canary/toolchain/mac_pnacl/bin/../x86_64-nacl/lib/libcrt_common.a(lib_a-vsnprintf.o)
 .bss           0x0000000010036090        0x0 /Users/jkwang/Desktop/nacl_sdk/pepper_canary/toolchain/mac_pnacl/bin/../x86_64-nacl/lib/libcrt_common.a(lib_a-vsprintf.o)
 .bss           0x0000000010036090        0x0 /Users/jkwang/Desktop/nacl_sdk/pepper_canary/toolchain/mac_pnacl/bin/../x86_64-nacl/lib/libcrt_common.a(lib_a-wcrtomb.o)
 .bss           0x0000000010036090        0x0 /Users/jkwang/Desktop/nacl_sdk/pepper_canary/toolchain/mac_pnacl/bin/../x86_64-nacl/lib/libcrt_common.a(lib_a-wcsrtombs.o)
 .bss           0x0000000010036090        0x0 /Users/jkwang/Desktop/nacl_sdk/pepper_canary/toolchain/mac_pnacl/bin/../x86_64-nacl/lib/libcrt_common.a(lib_a-wctomb_r.o)
 .bss           0x0000000010036090        0x0 /Users/jkwang/Desktop/nacl_sdk/pepper_canary/toolchain/mac_pnacl/bin/../x86_64-nacl/lib/libcrt_common.a(lib_a-wsetup.o)
 .bss           0x0000000010036090        0x0 /Users/jkwang/Desktop/nacl_sdk/pepper_canary/toolchain/mac_pnacl/bin/../x86_64-nacl/lib/libcrt_common.a(lib_a-__atexit.o)
 .bss           0x0000000010036090        0x0 /Users/jkwang/Desktop/nacl_sdk/pepper_canary/toolchain/mac_pnacl/bin/../x86_64-nacl/lib/libcrt_common.a(lib_a-__call_atexit.o)
 .bss           0x0000000010036090        0x0 /Users/jkwang/Desktop/nacl_sdk/pepper_canary/toolchain/mac_pnacl/bin/../x86_64-nacl/lib/libcrt_common.a(lib_a-dtoa.o)
 .bss           0x0000000010036090        0x0 /Users/jkwang/Desktop/nacl_sdk/pepper_canary/toolchain/mac_pnacl/bin/../x86_64-nacl/lib/libcrt_common.a(lib_a-envlock.o)
 .bss           0x0000000010036090        0x0 /Users/jkwang/Desktop/nacl_sdk/pepper_canary/toolchain/mac_pnacl/bin/../x86_64-nacl/lib/libcrt_common.a(lib_a-fclose.o)
 .bss           0x0000000010036090        0x0 /Users/jkwang/Desktop/nacl_sdk/pepper_canary/toolchain/mac_pnacl/bin/../x86_64-nacl/lib/libcrt_common.a(lib_a-fvwrite.o)
 .bss           0x0000000010036090      0x2b7 /Users/jkwang/Desktop/nacl_sdk/pepper_canary/toolchain/mac_pnacl/bin/../x86_64-nacl/lib/libcrt_common.a(lib_a-locale.o)
 *fill*         0x0000000010036347        0x1 
 .bss.__nlocale_changed
                0x0000000010036348        0x4 /Users/jkwang/Desktop/nacl_sdk/pepper_canary/toolchain/mac_pnacl/bin/../x86_64-nacl/lib/libcrt_common.a(lib_a-locale.o)
                0x0000000010036348                __nlocale_changed
 .bss.__mlocale_changed
                0x000000001003634c        0x4 /Users/jkwang/Desktop/nacl_sdk/pepper_canary/toolchain/mac_pnacl/bin/../x86_64-nacl/lib/libcrt_common.a(lib_a-locale.o)
                0x000000001003634c                __mlocale_changed
 .bss._PathLocale
                0x0000000010036350        0x4 /Users/jkwang/Desktop/nacl_sdk/pepper_canary/toolchain/mac_pnacl/bin/../x86_64-nacl/lib/libcrt_common.a(lib_a-locale.o)
                0x0000000010036350                _PathLocale
 .bss           0x0000000010036354        0x0 /Users/jkwang/Desktop/nacl_sdk/pepper_canary/toolchain/mac_pnacl/bin/../x86_64-nacl/lib/libcrt_common.a(lib_a-makebuf.o)
 .bss           0x0000000010036354        0x0 /Users/jkwang/Desktop/nacl_sdk/pepper_canary/toolchain/mac_pnacl/bin/../x86_64-nacl/lib/libcrt_common.a(lib_a-mbtowc_r.o)
 .bss           0x0000000010036354        0x0 /Users/jkwang/Desktop/nacl_sdk/pepper_canary/toolchain/mac_pnacl/bin/../x86_64-nacl/lib/libcrt_common.a(lib_a-memchr.o)
 .bss           0x0000000010036354        0x0 /Users/jkwang/Desktop/nacl_sdk/pepper_canary/toolchain/mac_pnacl/bin/../x86_64-nacl/lib/libcrt_common.a(lib_a-memmove.o)
 .bss           0x0000000010036354        0x0 /Users/jkwang/Desktop/nacl_sdk/pepper_canary/toolchain/mac_pnacl/bin/../x86_64-nacl/lib/libcrt_common.a(lib_a-mprec.o)
 .bss           0x0000000010036354        0x0 /Users/jkwang/Desktop/nacl_sdk/pepper_canary/toolchain/mac_pnacl/bin/../x86_64-nacl/lib/libcrt_common.a(lib_a-s_fpclassify.o)
 .bss           0x0000000010036354        0x0 /Users/jkwang/Desktop/nacl_sdk/pepper_canary/toolchain/mac_pnacl/bin/../x86_64-nacl/lib/libcrt_common.a(lib_a-s_frexp.o)
 .bss           0x0000000010036354        0x0 /Users/jkwang/Desktop/nacl_sdk/pepper_canary/toolchain/mac_pnacl/bin/../x86_64-nacl/lib/libcrt_common.a(lib_a-strcasecmp.o)
 .bss           0x0000000010036354        0x0 /Users/jkwang/Desktop/nacl_sdk/pepper_canary/toolchain/mac_pnacl/bin/../x86_64-nacl/lib/libcrt_common.a(lib_a-strchr.o)
 .bss           0x0000000010036354        0x0 /Users/jkwang/Desktop/nacl_sdk/pepper_canary/toolchain/mac_pnacl/bin/../x86_64-nacl/lib/libcrt_common.a(lib_a-strlcpy.o)
 .bss           0x0000000010036354        0x0 /Users/jkwang/Desktop/nacl_sdk/pepper_canary/toolchain/mac_pnacl/bin/../x86_64-nacl/lib/libcrt_common.a(lib_a-strncasecmp.o)
 .bss           0x0000000010036354        0x0 /Users/jkwang/Desktop/nacl_sdk/pepper_canary/toolchain/mac_pnacl/bin/../x86_64-nacl/lib/libcrt_common.a(lib_a-strncpy.o)
 .bss           0x0000000010036354        0x0 /Users/jkwang/Desktop/nacl_sdk/pepper_canary/toolchain/mac_pnacl/bin/../x86_64-nacl/lib/libcrt_common.a(lib_a-strtol.o)
 .bss           0x0000000010036354        0x0 /Users/jkwang/Desktop/nacl_sdk/pepper_canary/toolchain/mac_pnacl/bin/../x86_64-nacl/lib/libcrt_common.a(lib_a-svfprintf.o)
 .bss           0x0000000010036354        0x0 /Users/jkwang/Desktop/nacl_sdk/pepper_canary/toolchain/mac_pnacl/bin/../x86_64-nacl/lib/libcrt_common.a(lib_a-vfiprintf.o)
 .bss           0x0000000010036354        0x0 /Users/jkwang/Desktop/nacl_sdk/pepper_canary/toolchain/mac_pnacl/bin/../x86_64-nacl/lib/libcrt_common.a(lib_a-wcsnrtombs.o)
 .bss           0x0000000010036354        0x0 /Users/jkwang/Desktop/nacl_sdk/pepper_canary/toolchain/mac_pnacl/bin/../x86_64-nacl/lib/libcrt_common.a(lib_a-ctype_.o)
 .bss           0x0000000010036354        0x0 /Users/jkwang/Desktop/nacl_sdk/pepper_canary/toolchain/mac_pnacl/bin/../x86_64-nacl/lib/libcrt_common.a(lib_a-fputwc.o)
 .bss           0x0000000010036354        0x0 /Users/jkwang/Desktop/nacl_sdk/pepper_canary/toolchain/mac_pnacl/bin/../x86_64-nacl/lib/libcrt_common.a(lib_a-svfiprintf.o)
 .bss           0x0000000010036354        0x0 /Users/jkwang/Desktop/nacl_sdk/pepper_canary/toolchain/mac_pnacl/bin/../x86_64-nacl/lib/libcrt_common.a(lib_a-wbuf.o)
 .bss           0x0000000010036354        0x0 /Users/jkwang/Desktop/nacl_sdk/pepper_canary/toolchain/mac_pnacl/bin/../x86_64-nacl/lib/libnacl.a(close.o)
 .bss           0x0000000010036354        0x0 /Users/jkwang/Desktop/nacl_sdk/pepper_canary/toolchain/mac_pnacl/bin/../x86_64-nacl/lib/libnacl.a(fstat.o)
 .bss           0x0000000010036354        0x0 /Users/jkwang/Desktop/nacl_sdk/pepper_canary/toolchain/mac_pnacl/bin/../x86_64-nacl/lib/libnacl.a(isatty.o)
 .bss           0x0000000010036354        0x0 /Users/jkwang/Desktop/nacl_sdk/pepper_canary/toolchain/mac_pnacl/bin/../x86_64-nacl/lib/libnacl.a(lseek.o)
 .bss           0x0000000010036354        0x0 /Users/jkwang/Desktop/nacl_sdk/pepper_canary/toolchain/mac_pnacl/bin/../x86_64-nacl/lib/libnacl.a(nanosleep.o)
 .bss           0x0000000010036354        0x0 /Users/jkwang/Desktop/nacl_sdk/pepper_canary/toolchain/mac_pnacl/bin/../x86_64-nacl/lib/libnacl.a(nacl_irt_fdio.o)
 .bss           0x0000000010036354        0x0 /Users/jkwang/Desktop/nacl_sdk/pepper_canary/toolchain/mac_pnacl/bin/../x86_64-nacl/lib/libnacl.a(read.o)
 .bss           0x0000000010036354       0x14 /Users/jkwang/Desktop/nacl_sdk/pepper_canary/toolchain/mac_pnacl/bin/../lib/clang/3.7.0/lib/x86_64-nacl/libgcc_eh.a(unwind-dw2-fde-glibc.o)
 .bss           0x0000000010036368        0x0 /Users/jkwang/Desktop/nacl_sdk/pepper_canary/toolchain/mac_pnacl/bin/../lib/clang/3.7.0/lib/x86_64-nacl/crtend.o
 .bss           0x0000000010036368        0x0 /Users/jkwang/Desktop/nacl_sdk/pepper_canary/toolchain/mac_pnacl/bin/../x86_64-nacl/lib/crtn.o
 *(COMMON)
 COMMON         0x0000000010036368        0xc clang-newlib/Release/debugging_x86_64.o
                0x0000000010036368                g_PPAPIThread
                0x000000001003636c                g_Instance
                0x0000000010036370                g_NexeThread
 COMMON         0x0000000010036374       0x14 /Users/jkwang/Desktop/nacl_sdk/pepper_canary/toolchain/mac_pnacl/bin/../x86_64-nacl/lib/libpthread.a(nc_thread.o)
                0x0000000010036374                __nc_thread_initialized
                0x0000000010036378                __nc_initial_thread_id
                0x000000001003637c                __libnacl_irt_thread
 COMMON         0x0000000010036388        0x8 /Users/jkwang/Desktop/nacl_sdk/pepper_canary/toolchain/mac_pnacl/bin/../x86_64-nacl/lib/libpthread.a(nc_init_irt.o)
                0x0000000010036388                __libnacl_irt_futex
 COMMON         0x0000000010036390       0xb4 /Users/jkwang/Desktop/nacl_sdk/pepper_canary/toolchain/mac_pnacl/bin/../x86_64-nacl/lib/libnacl.a(nacl_irt.o)
                0x0000000010036390                __nacl_irt_query
                0x0000000010036394                __libnacl_irt_dev_filename
                0x00000000100363d4                __libnacl_irt_clock
                0x00000000100363dc                __libnacl_irt_memory
                0x00000000100363e8                __libnacl_irt_dev_fdio
                0x0000000010036420                __libnacl_irt_basic
                0x0000000010036438                __libnacl_irt_tls
                0x0000000010036440                __libnacl_irt_dev_getpid
 COMMON         0x0000000010036444        0x4 /Users/jkwang/Desktop/nacl_sdk/pepper_canary/toolchain/mac_pnacl/bin/../x86_64-nacl/lib/libnacl.a(start.o)
                0x0000000010036444                __nacl_initial_thread_stack_end
                0x0000000010036448                . = ALIGN ((. != 0x0)?0x8:0x1)

.lbss
 *(.dynlbss)
 *(.lbss .lbss.* .gnu.linkonce.lb.*)
 *(LARGE_COMMON)
                0x0000000010036448                . = ALIGN (0x8)
                0x0000000010036448                . = SEGMENT_START ("ldata-segment", .)

.lrodata
 *(.lrodata .lrodata.* .gnu.linkonce.lr.*)

.ldata          0x0000000010056448        0x0
 *(.ldata .ldata.* .gnu.linkonce.l.*)
                0x0000000010056448                . = ALIGN ((. != 0x0)?0x8:0x1)
                0x0000000010056448                . = ALIGN (0x8)
                0x0000000010056448                _end = .
                0x0000000010056448                PROVIDE (end, .)
                0x0000000010056448                . = DATA_SEGMENT_END (.)

.stab
 *(.stab)

.stabstr
 *(.stabstr)

.stab.excl
 *(.stab.excl)

.stab.exclstr
 *(.stab.exclstr)

.stab.index
 *(.stab.index)

.stab.indexstr
 *(.stab.indexstr)

.comment        0x0000000000000000      0x175
 *(.comment)
 .comment       0x0000000000000000       0xed /Users/jkwang/Desktop/nacl_sdk/pepper_canary/toolchain/mac_pnacl/bin/../lib/clang/3.7.0/lib/x86_64-nacl/crtbeginT.o
                                         0xee (size before relaxing)
 .comment       0x0000000000000000       0xee clang-newlib/Release/debugging_x86_64.o
 .comment       0x0000000000000000       0xee /Users/jkwang/Desktop/nacl_sdk/pepper_canary/lib/clang-newlib_x86_64/Release/liberror_handling.a(error_handling_x86_64.o)
 .comment       0x0000000000000000       0xee /Users/jkwang/Desktop/nacl_sdk/pepper_canary/lib/clang-newlib_x86_64/Release/liberror_handling.a(string_stream_x86_64.o)
 .comment       0x0000000000000000       0xee /Users/jkwang/Desktop/nacl_sdk/pepper_canary/toolchain/mac_pnacl/bin/../x86_64-nacl/lib/libppapi_stub.a(plugin_main_irt.o)
 .comment       0x0000000000000000       0xee /Users/jkwang/Desktop/nacl_sdk/pepper_canary/toolchain/mac_pnacl/bin/../x86_64-nacl/lib/libppapi_stub.a(ppapi_plugin_main.o)
 .comment       0x0000000000000000       0xee /Users/jkwang/Desktop/nacl_sdk/pepper_canary/toolchain/mac_pnacl/bin/../x86_64-nacl/lib/libppapi_stub.a(ppapi_plugin_start.o)
 .comment       0x0000000000000000       0xee /Users/jkwang/Desktop/nacl_sdk/pepper_canary/toolchain/mac_pnacl/bin/../x86_64-nacl/lib/libppapi_stub.a(thread_creator.o)
 .comment       0x0000000000000000       0xee /Users/jkwang/Desktop/nacl_sdk/pepper_canary/toolchain/mac_pnacl/bin/../x86_64-nacl/lib/libpthread.a(nc_thread.o)
 .comment       0x0000000000000000       0xee /Users/jkwang/Desktop/nacl_sdk/pepper_canary/toolchain/mac_pnacl/bin/../x86_64-nacl/lib/libpthread.a(nc_mutex.o)
 .comment       0x0000000000000000       0xee /Users/jkwang/Desktop/nacl_sdk/pepper_canary/toolchain/mac_pnacl/bin/../x86_64-nacl/lib/libpthread.a(nc_condvar.o)
 .comment       0x0000000000000000       0xee /Users/jkwang/Desktop/nacl_sdk/pepper_canary/toolchain/mac_pnacl/bin/../x86_64-nacl/lib/libpthread.a(valgrind_annotations.o)
 .comment       0x0000000000000000       0xee /Users/jkwang/Desktop/nacl_sdk/pepper_canary/toolchain/mac_pnacl/bin/../x86_64-nacl/lib/libpthread.a(nc_init_irt.o)
 .comment       0x0000000000000000       0xee /Users/jkwang/Desktop/nacl_sdk/pepper_canary/toolchain/mac_pnacl/bin/../x86_64-nacl/lib/libnacl.a(nacl_irt.o)
 .comment       0x0000000000000000       0xee /Users/jkwang/Desktop/nacl_sdk/pepper_canary/toolchain/mac_pnacl/bin/../x86_64-nacl/lib/libnacl.a(_exit.o)
 .comment       0x0000000000000000       0xee /Users/jkwang/Desktop/nacl_sdk/pepper_canary/toolchain/mac_pnacl/bin/../x86_64-nacl/lib/libnacl.a(mmap.o)
 .comment       0x0000000000000000       0xee /Users/jkwang/Desktop/nacl_sdk/pepper_canary/toolchain/mac_pnacl/bin/../x86_64-nacl/lib/libnacl.a(munmap.o)
 .comment       0x0000000000000000       0xee /Users/jkwang/Desktop/nacl_sdk/pepper_canary/toolchain/mac_pnacl/bin/../x86_64-nacl/lib/libnacl.a(nacl_interface_query.o)
 .comment       0x0000000000000000       0xee /Users/jkwang/Desktop/nacl_sdk/pepper_canary/toolchain/mac_pnacl/bin/../x86_64-nacl/lib/libnacl.a(write.o)
 .comment       0x0000000000000000       0xee /Users/jkwang/Desktop/nacl_sdk/pepper_canary/toolchain/mac_pnacl/bin/../x86_64-nacl/lib/libnacl.a(environ.o)
 .comment       0x0000000000000000       0xee /Users/jkwang/Desktop/nacl_sdk/pepper_canary/toolchain/mac_pnacl/bin/../x86_64-nacl/lib/libnacl.a(malloc.o)
 .comment       0x0000000000000000       0xee /Users/jkwang/Desktop/nacl_sdk/pepper_canary/toolchain/mac_pnacl/bin/../x86_64-nacl/lib/libnacl.a(start.o)
 .comment       0x0000000000000000       0xee /Users/jkwang/Desktop/nacl_sdk/pepper_canary/toolchain/mac_pnacl/bin/../x86_64-nacl/lib/libnacl.a(nacl_add_tp.o)
 .comment       0x0000000000000000       0xee /Users/jkwang/Desktop/nacl_sdk/pepper_canary/toolchain/mac_pnacl/bin/../x86_64-nacl/lib/libnacl.a(nacl_read_tp.o)
 .comment       0x0000000000000000       0xee /Users/jkwang/Desktop/nacl_sdk/pepper_canary/toolchain/mac_pnacl/bin/../x86_64-nacl/lib/libnacl.a(pthread_initialize_minimal.o)
 .comment       0x0000000000000000       0xee /Users/jkwang/Desktop/nacl_sdk/pepper_canary/toolchain/mac_pnacl/bin/../x86_64-nacl/lib/libnacl.a(tls.o)
 .comment       0x0000000000000000       0xee /Users/jkwang/Desktop/nacl_sdk/pepper_canary/toolchain/mac_pnacl/bin/../x86_64-nacl/lib/libnacl.a(nacl_irt_init.o)
 .comment       0x0000000000000000       0xee /Users/jkwang/Desktop/nacl_sdk/pepper_canary/toolchain/mac_pnacl/bin/../x86_64-nacl/lib/libnacl.a(nacl_tls_get.o)
 .comment       0x0000000000000000       0xee /Users/jkwang/Desktop/nacl_sdk/pepper_canary/toolchain/mac_pnacl/bin/../x86_64-nacl/lib/libnacl.a(nacl_tls_init.o)
 .comment       0x0000000000000000       0xee /Users/jkwang/Desktop/nacl_sdk/pepper_canary/toolchain/mac_pnacl/bin/../x86_64-nacl/lib/libnacl.a(abort.o)
 .comment       0x0000000000000000       0xee /Users/jkwang/Desktop/nacl_sdk/pepper_canary/toolchain/mac_pnacl/bin/../x86_64-nacl/lib/libnacl.a(sched_yield.o)
 .comment       0x0000000000000000       0xee /Users/jkwang/Desktop/nacl_sdk/pepper_canary/toolchain/mac_pnacl/bin/../x86_64-nacl/lib/libnacl.a(sysconf.o)
 .comment       0x0000000000000000       0xee /Users/jkwang/Desktop/nacl_sdk/pepper_canary/toolchain/mac_pnacl/bin/../x86_64-nacl/lib/libcrt_common.a(lib_a-atexit.o)
 .comment       0x0000000000000000       0xee /Users/jkwang/Desktop/nacl_sdk/pepper_canary/toolchain/mac_pnacl/bin/../x86_64-nacl/lib/libcrt_common.a(lib_a-errno.o)
 .comment       0x0000000000000000       0xee /Users/jkwang/Desktop/nacl_sdk/pepper_canary/toolchain/mac_pnacl/bin/../x86_64-nacl/lib/libcrt_common.a(lib_a-exit.o)
 .comment       0x0000000000000000       0xee /Users/jkwang/Desktop/nacl_sdk/pepper_canary/toolchain/mac_pnacl/bin/../x86_64-nacl/lib/libcrt_common.a(lib_a-fflush.o)
 .comment       0x0000000000000000       0xee /Users/jkwang/Desktop/nacl_sdk/pepper_canary/toolchain/mac_pnacl/bin/../x86_64-nacl/lib/libcrt_common.a(lib_a-findfp.o)
 .comment       0x0000000000000000       0xee /Users/jkwang/Desktop/nacl_sdk/pepper_canary/toolchain/mac_pnacl/bin/../x86_64-nacl/lib/libcrt_common.a(lib_a-fini.o)
 .comment       0x0000000000000000       0xee /Users/jkwang/Desktop/nacl_sdk/pepper_canary/toolchain/mac_pnacl/bin/../x86_64-nacl/lib/libcrt_common.a(lib_a-fprintf.o)
 .comment       0x0000000000000000       0xee /Users/jkwang/Desktop/nacl_sdk/pepper_canary/toolchain/mac_pnacl/bin/../x86_64-nacl/lib/libcrt_common.a(lib_a-fwalk.o)
 .comment       0x0000000000000000       0xee /Users/jkwang/Desktop/nacl_sdk/pepper_canary/toolchain/mac_pnacl/bin/../x86_64-nacl/lib/libcrt_common.a(lib_a-fwrite.o)
 .comment       0x0000000000000000       0xee /Users/jkwang/Desktop/nacl_sdk/pepper_canary/toolchain/mac_pnacl/bin/../x86_64-nacl/lib/libcrt_common.a(lib_a-getenv.o)
 .comment       0x0000000000000000       0xee /Users/jkwang/Desktop/nacl_sdk/pepper_canary/toolchain/mac_pnacl/bin/../x86_64-nacl/lib/libcrt_common.a(lib_a-getenv_r.o)
 .comment       0x0000000000000000       0xee /Users/jkwang/Desktop/nacl_sdk/pepper_canary/toolchain/mac_pnacl/bin/../x86_64-nacl/lib/libcrt_common.a(lib_a-impure.o)
 .comment       0x0000000000000000       0xee /Users/jkwang/Desktop/nacl_sdk/pepper_canary/toolchain/mac_pnacl/bin/../x86_64-nacl/lib/libcrt_common.a(lib_a-init.o)
 .comment       0x0000000000000000       0xee /Users/jkwang/Desktop/nacl_sdk/pepper_canary/toolchain/mac_pnacl/bin/../x86_64-nacl/lib/libcrt_common.a(lib_a-sleep.o)
 .comment       0x0000000000000000       0xee /Users/jkwang/Desktop/nacl_sdk/pepper_canary/toolchain/mac_pnacl/bin/../x86_64-nacl/lib/libcrt_common.a(lib_a-stdio.o)
 .comment       0x0000000000000000       0xee /Users/jkwang/Desktop/nacl_sdk/pepper_canary/toolchain/mac_pnacl/bin/../x86_64-nacl/lib/libcrt_common.a(lib_a-strcat.o)
 .comment       0x0000000000000000       0xee /Users/jkwang/Desktop/nacl_sdk/pepper_canary/toolchain/mac_pnacl/bin/../x86_64-nacl/lib/libcrt_common.a(lib_a-strcmp.o)
 .comment       0x0000000000000000       0xee /Users/jkwang/Desktop/nacl_sdk/pepper_canary/toolchain/mac_pnacl/bin/../x86_64-nacl/lib/libcrt_common.a(lib_a-strcpy.o)
 .comment       0x0000000000000000       0xee /Users/jkwang/Desktop/nacl_sdk/pepper_canary/toolchain/mac_pnacl/bin/../x86_64-nacl/lib/libcrt_common.a(lib_a-strlen.o)
 .comment       0x0000000000000000       0xee /Users/jkwang/Desktop/nacl_sdk/pepper_canary/toolchain/mac_pnacl/bin/../x86_64-nacl/lib/libcrt_common.a(lib_a-strncmp.o)
 .comment       0x0000000000000000       0xee /Users/jkwang/Desktop/nacl_sdk/pepper_canary/toolchain/mac_pnacl/bin/../x86_64-nacl/lib/libcrt_common.a(lib_a-vfprintf.o)
 .comment       0x0000000000000000       0xee /Users/jkwang/Desktop/nacl_sdk/pepper_canary/toolchain/mac_pnacl/bin/../x86_64-nacl/lib/libcrt_common.a(lib_a-vsnprintf.o)
 .comment       0x0000000000000000       0xee /Users/jkwang/Desktop/nacl_sdk/pepper_canary/toolchain/mac_pnacl/bin/../x86_64-nacl/lib/libcrt_common.a(lib_a-vsprintf.o)
 .comment       0x0000000000000000       0xee /Users/jkwang/Desktop/nacl_sdk/pepper_canary/toolchain/mac_pnacl/bin/../x86_64-nacl/lib/libcrt_common.a(lib_a-wcrtomb.o)
 .comment       0x0000000000000000       0xee /Users/jkwang/Desktop/nacl_sdk/pepper_canary/toolchain/mac_pnacl/bin/../x86_64-nacl/lib/libcrt_common.a(lib_a-wcsrtombs.o)
 .comment       0x0000000000000000       0xee /Users/jkwang/Desktop/nacl_sdk/pepper_canary/toolchain/mac_pnacl/bin/../x86_64-nacl/lib/libcrt_common.a(lib_a-wctomb_r.o)
 .comment       0x0000000000000000       0xee /Users/jkwang/Desktop/nacl_sdk/pepper_canary/toolchain/mac_pnacl/bin/../x86_64-nacl/lib/libcrt_common.a(lib_a-wsetup.o)
 .comment       0x0000000000000000       0xee /Users/jkwang/Desktop/nacl_sdk/pepper_canary/toolchain/mac_pnacl/bin/../x86_64-nacl/lib/libcrt_common.a(lib_a-__atexit.o)
 .comment       0x0000000000000000       0xee /Users/jkwang/Desktop/nacl_sdk/pepper_canary/toolchain/mac_pnacl/bin/../x86_64-nacl/lib/libcrt_common.a(lib_a-__call_atexit.o)
 .comment       0x0000000000000000       0xee /Users/jkwang/Desktop/nacl_sdk/pepper_canary/toolchain/mac_pnacl/bin/../x86_64-nacl/lib/libcrt_common.a(lib_a-dtoa.o)
 .comment       0x0000000000000000       0xee /Users/jkwang/Desktop/nacl_sdk/pepper_canary/toolchain/mac_pnacl/bin/../x86_64-nacl/lib/libcrt_common.a(lib_a-envlock.o)
 .comment       0x0000000000000000       0xee /Users/jkwang/Desktop/nacl_sdk/pepper_canary/toolchain/mac_pnacl/bin/../x86_64-nacl/lib/libcrt_common.a(lib_a-fclose.o)
 .comment       0x0000000000000000       0xee /Users/jkwang/Desktop/nacl_sdk/pepper_canary/toolchain/mac_pnacl/bin/../x86_64-nacl/lib/libcrt_common.a(lib_a-fvwrite.o)
 .comment       0x0000000000000000       0xee /Users/jkwang/Desktop/nacl_sdk/pepper_canary/toolchain/mac_pnacl/bin/../x86_64-nacl/lib/libcrt_common.a(lib_a-locale.o)
 .comment       0x0000000000000000       0xee /Users/jkwang/Desktop/nacl_sdk/pepper_canary/toolchain/mac_pnacl/bin/../x86_64-nacl/lib/libcrt_common.a(lib_a-makebuf.o)
 .comment       0x0000000000000000       0xee /Users/jkwang/Desktop/nacl_sdk/pepper_canary/toolchain/mac_pnacl/bin/../x86_64-nacl/lib/libcrt_common.a(lib_a-mbtowc_r.o)
 .comment       0x0000000000000000       0xee /Users/jkwang/Desktop/nacl_sdk/pepper_canary/toolchain/mac_pnacl/bin/../x86_64-nacl/lib/libcrt_common.a(lib_a-memchr.o)
 .comment       0x0000000000000000       0xee /Users/jkwang/Desktop/nacl_sdk/pepper_canary/toolchain/mac_pnacl/bin/../x86_64-nacl/lib/libcrt_common.a(lib_a-memmove.o)
 .comment       0x0000000000000000       0xee /Users/jkwang/Desktop/nacl_sdk/pepper_canary/toolchain/mac_pnacl/bin/../x86_64-nacl/lib/libcrt_common.a(lib_a-mprec.o)
 .comment       0x0000000000000000       0xee /Users/jkwang/Desktop/nacl_sdk/pepper_canary/toolchain/mac_pnacl/bin/../x86_64-nacl/lib/libcrt_common.a(lib_a-s_fpclassify.o)
 .comment       0x0000000000000000       0xee /Users/jkwang/Desktop/nacl_sdk/pepper_canary/toolchain/mac_pnacl/bin/../x86_64-nacl/lib/libcrt_common.a(lib_a-s_frexp.o)
 .comment       0x0000000000000000       0xee /Users/jkwang/Desktop/nacl_sdk/pepper_canary/toolchain/mac_pnacl/bin/../x86_64-nacl/lib/libcrt_common.a(lib_a-strcasecmp.o)
 .comment       0x0000000000000000       0xee /Users/jkwang/Desktop/nacl_sdk/pepper_canary/toolchain/mac_pnacl/bin/../x86_64-nacl/lib/libcrt_common.a(lib_a-strchr.o)
 .comment       0x0000000000000000       0xee /Users/jkwang/Desktop/nacl_sdk/pepper_canary/toolchain/mac_pnacl/bin/../x86_64-nacl/lib/libcrt_common.a(lib_a-strlcpy.o)
 .comment       0x0000000000000000       0xee /Users/jkwang/Desktop/nacl_sdk/pepper_canary/toolchain/mac_pnacl/bin/../x86_64-nacl/lib/libcrt_common.a(lib_a-strncasecmp.o)
 .comment       0x0000000000000000       0xee /Users/jkwang/Desktop/nacl_sdk/pepper_canary/toolchain/mac_pnacl/bin/../x86_64-nacl/lib/libcrt_common.a(lib_a-strncpy.o)
 .comment       0x0000000000000000       0xee /Users/jkwang/Desktop/nacl_sdk/pepper_canary/toolchain/mac_pnacl/bin/../x86_64-nacl/lib/libcrt_common.a(lib_a-strtol.o)
 .comment       0x0000000000000000       0xee /Users/jkwang/Desktop/nacl_sdk/pepper_canary/toolchain/mac_pnacl/bin/../x86_64-nacl/lib/libcrt_common.a(lib_a-svfprintf.o)
 .comment       0x0000000000000000       0xee /Users/jkwang/Desktop/nacl_sdk/pepper_canary/toolchain/mac_pnacl/bin/../x86_64-nacl/lib/libcrt_common.a(lib_a-vfiprintf.o)
 .comment       0x0000000000000000       0xee /Users/jkwang/Desktop/nacl_sdk/pepper_canary/toolchain/mac_pnacl/bin/../x86_64-nacl/lib/libcrt_common.a(lib_a-wcsnrtombs.o)
 .comment       0x0000000000000000       0xee /Users/jkwang/Desktop/nacl_sdk/pepper_canary/toolchain/mac_pnacl/bin/../x86_64-nacl/lib/libcrt_common.a(lib_a-ctype_.o)
 .comment       0x0000000000000000       0xee /Users/jkwang/Desktop/nacl_sdk/pepper_canary/toolchain/mac_pnacl/bin/../x86_64-nacl/lib/libcrt_common.a(lib_a-fputwc.o)
 .comment       0x0000000000000000       0xee /Users/jkwang/Desktop/nacl_sdk/pepper_canary/toolchain/mac_pnacl/bin/../x86_64-nacl/lib/libcrt_common.a(lib_a-svfiprintf.o)
 .comment       0x0000000000000000       0xee /Users/jkwang/Desktop/nacl_sdk/pepper_canary/toolchain/mac_pnacl/bin/../x86_64-nacl/lib/libcrt_common.a(lib_a-wbuf.o)
 .comment       0x0000000000000000       0xee /Users/jkwang/Desktop/nacl_sdk/pepper_canary/toolchain/mac_pnacl/bin/../x86_64-nacl/lib/libnacl.a(close.o)
 .comment       0x0000000000000000       0xee /Users/jkwang/Desktop/nacl_sdk/pepper_canary/toolchain/mac_pnacl/bin/../x86_64-nacl/lib/libnacl.a(fstat.o)
 .comment       0x0000000000000000       0xee /Users/jkwang/Desktop/nacl_sdk/pepper_canary/toolchain/mac_pnacl/bin/../x86_64-nacl/lib/libnacl.a(isatty.o)
 .comment       0x0000000000000000       0xee /Users/jkwang/Desktop/nacl_sdk/pepper_canary/toolchain/mac_pnacl/bin/../x86_64-nacl/lib/libnacl.a(lseek.o)
 .comment       0x0000000000000000       0xee /Users/jkwang/Desktop/nacl_sdk/pepper_canary/toolchain/mac_pnacl/bin/../x86_64-nacl/lib/libnacl.a(nanosleep.o)
 .comment       0x0000000000000000       0xee /Users/jkwang/Desktop/nacl_sdk/pepper_canary/toolchain/mac_pnacl/bin/../x86_64-nacl/lib/libnacl.a(nacl_irt_fdio.o)
 .comment       0x0000000000000000       0xee /Users/jkwang/Desktop/nacl_sdk/pepper_canary/toolchain/mac_pnacl/bin/../x86_64-nacl/lib/libnacl.a(read.o)
 .comment       0x00000000000000ed       0x88 /Users/jkwang/Desktop/nacl_sdk/pepper_canary/toolchain/mac_pnacl/bin/../lib/clang/3.7.0/lib/x86_64-nacl/libgcc_eh.a(unwind-dw2-fde-glibc.o)
                                         0x89 (size before relaxing)
 .comment       0x0000000000000000       0xee /Users/jkwang/Desktop/nacl_sdk/pepper_canary/toolchain/mac_pnacl/bin/../lib/clang/3.7.0/lib/x86_64-nacl/crtend.o

.debug
 *(.debug)

.line
 *(.line)

.debug_srcinfo
 *(.debug_srcinfo)

.debug_sfnames
 *(.debug_sfnames)

.debug_aranges  0x0000000000000000       0x70
 *(.debug_aranges)
 .debug_aranges
                0x0000000000000000       0x20 /Users/jkwang/Desktop/nacl_sdk/pepper_canary/toolchain/mac_pnacl/bin/../x86_64-nacl/lib/libcrt_common.a(lib_a-memcpy.o)
 .debug_aranges
                0x0000000000000020       0x20 /Users/jkwang/Desktop/nacl_sdk/pepper_canary/toolchain/mac_pnacl/bin/../x86_64-nacl/lib/libcrt_common.a(lib_a-memset.o)
 .debug_aranges
                0x0000000000000040       0x30 /Users/jkwang/Desktop/nacl_sdk/pepper_canary/toolchain/mac_pnacl/bin/../lib/clang/3.7.0/lib/x86_64-nacl/libgcc_eh.a(unwind-dw2-fde-glibc.o)

.debug_pubnames
                0x0000000000000000     0x2cf3
 *(.debug_pubnames)
 .debug_pubnames
                0x0000000000000000      0x223 clang-newlib/Release/debugging_x86_64.o
 .debug_pubnames
                0x0000000000000223      0x1c3 /Users/jkwang/Desktop/nacl_sdk/pepper_canary/lib/clang-newlib_x86_64/Release/liberror_handling.a(error_handling_x86_64.o)
 .debug_pubnames
                0x00000000000003e6       0x43 /Users/jkwang/Desktop/nacl_sdk/pepper_canary/lib/clang-newlib_x86_64/Release/liberror_handling.a(string_stream_x86_64.o)
 .debug_pubnames
                0x0000000000000429      0x62f /Users/jkwang/Desktop/nacl_sdk/pepper_canary/toolchain/mac_pnacl/bin/../x86_64-nacl/lib/libpthread.a(nc_thread.o)
 .debug_pubnames
                0x0000000000000a58      0x19c /Users/jkwang/Desktop/nacl_sdk/pepper_canary/toolchain/mac_pnacl/bin/../x86_64-nacl/lib/libpthread.a(nc_mutex.o)
 .debug_pubnames
                0x0000000000000bf4      0x166 /Users/jkwang/Desktop/nacl_sdk/pepper_canary/toolchain/mac_pnacl/bin/../x86_64-nacl/lib/libpthread.a(nc_condvar.o)
 .debug_pubnames
                0x0000000000000d5a      0x4d7 /Users/jkwang/Desktop/nacl_sdk/pepper_canary/toolchain/mac_pnacl/bin/../x86_64-nacl/lib/libpthread.a(valgrind_annotations.o)
 .debug_pubnames
                0x0000000000001231       0x49 /Users/jkwang/Desktop/nacl_sdk/pepper_canary/toolchain/mac_pnacl/bin/../x86_64-nacl/lib/libpthread.a(nc_init_irt.o)
 .debug_pubnames
                0x000000000000127a      0x1f6 /Users/jkwang/Desktop/nacl_sdk/pepper_canary/toolchain/mac_pnacl/bin/../x86_64-nacl/lib/libnacl.a(nacl_irt.o)
 .debug_pubnames
                0x0000000000001470       0x1c /Users/jkwang/Desktop/nacl_sdk/pepper_canary/toolchain/mac_pnacl/bin/../x86_64-nacl/lib/libnacl.a(_exit.o)
 .debug_pubnames
                0x000000000000148c       0x1b /Users/jkwang/Desktop/nacl_sdk/pepper_canary/toolchain/mac_pnacl/bin/../x86_64-nacl/lib/libnacl.a(mmap.o)
 .debug_pubnames
                0x00000000000014a7       0x1d /Users/jkwang/Desktop/nacl_sdk/pepper_canary/toolchain/mac_pnacl/bin/../x86_64-nacl/lib/libnacl.a(munmap.o)
 .debug_pubnames
                0x00000000000014c4       0x2b /Users/jkwang/Desktop/nacl_sdk/pepper_canary/toolchain/mac_pnacl/bin/../x86_64-nacl/lib/libnacl.a(nacl_interface_query.o)
 .debug_pubnames
                0x00000000000014ef       0x1c /Users/jkwang/Desktop/nacl_sdk/pepper_canary/toolchain/mac_pnacl/bin/../x86_64-nacl/lib/libnacl.a(write.o)
 .debug_pubnames
                0x000000000000150b       0x28 /Users/jkwang/Desktop/nacl_sdk/pepper_canary/toolchain/mac_pnacl/bin/../x86_64-nacl/lib/libnacl.a(environ.o)
 .debug_pubnames
                0x0000000000001533      0x38d /Users/jkwang/Desktop/nacl_sdk/pepper_canary/toolchain/mac_pnacl/bin/../x86_64-nacl/lib/libnacl.a(malloc.o)
 .debug_pubnames
                0x00000000000018c0       0xc5 /Users/jkwang/Desktop/nacl_sdk/pepper_canary/toolchain/mac_pnacl/bin/../x86_64-nacl/lib/libnacl.a(start.o)
 .debug_pubnames
                0x0000000000001985       0x24 /Users/jkwang/Desktop/nacl_sdk/pepper_canary/toolchain/mac_pnacl/bin/../x86_64-nacl/lib/libnacl.a(nacl_add_tp.o)
 .debug_pubnames
                0x00000000000019a9       0x25 /Users/jkwang/Desktop/nacl_sdk/pepper_canary/toolchain/mac_pnacl/bin/../x86_64-nacl/lib/libnacl.a(nacl_read_tp.o)
 .debug_pubnames
                0x00000000000019ce       0x33 /Users/jkwang/Desktop/nacl_sdk/pepper_canary/toolchain/mac_pnacl/bin/../x86_64-nacl/lib/libnacl.a(pthread_initialize_minimal.o)
 .debug_pubnames
                0x0000000000001a01      0x119 /Users/jkwang/Desktop/nacl_sdk/pepper_canary/toolchain/mac_pnacl/bin/../x86_64-nacl/lib/libnacl.a(tls.o)
 .debug_pubnames
                0x0000000000001b1a       0x52 /Users/jkwang/Desktop/nacl_sdk/pepper_canary/toolchain/mac_pnacl/bin/../x86_64-nacl/lib/libnacl.a(nacl_irt_init.o)
 .debug_pubnames
                0x0000000000001b6c       0x23 /Users/jkwang/Desktop/nacl_sdk/pepper_canary/toolchain/mac_pnacl/bin/../x86_64-nacl/lib/libnacl.a(nacl_tls_get.o)
 .debug_pubnames
                0x0000000000001b8f       0x24 /Users/jkwang/Desktop/nacl_sdk/pepper_canary/toolchain/mac_pnacl/bin/../x86_64-nacl/lib/libnacl.a(nacl_tls_init.o)
 .debug_pubnames
                0x0000000000001bb3       0x28 /Users/jkwang/Desktop/nacl_sdk/pepper_canary/toolchain/mac_pnacl/bin/../x86_64-nacl/lib/libnacl.a(abort.o)
 .debug_pubnames
                0x0000000000001bdb       0x22 /Users/jkwang/Desktop/nacl_sdk/pepper_canary/toolchain/mac_pnacl/bin/../x86_64-nacl/lib/libnacl.a(sched_yield.o)
 .debug_pubnames
                0x0000000000001bfd       0x1e /Users/jkwang/Desktop/nacl_sdk/pepper_canary/toolchain/mac_pnacl/bin/../x86_64-nacl/lib/libnacl.a(sysconf.o)
 .debug_pubnames
                0x0000000000001c1b       0x1d /Users/jkwang/Desktop/nacl_sdk/pepper_canary/toolchain/mac_pnacl/bin/../x86_64-nacl/lib/libcrt_common.a(lib_a-atexit.o)
 .debug_pubnames
                0x0000000000001c38       0x1e /Users/jkwang/Desktop/nacl_sdk/pepper_canary/toolchain/mac_pnacl/bin/../x86_64-nacl/lib/libcrt_common.a(lib_a-errno.o)
 .debug_pubnames
                0x0000000000001c56       0x1b /Users/jkwang/Desktop/nacl_sdk/pepper_canary/toolchain/mac_pnacl/bin/../x86_64-nacl/lib/libcrt_common.a(lib_a-exit.o)
 .debug_pubnames
                0x0000000000001c71       0x3a /Users/jkwang/Desktop/nacl_sdk/pepper_canary/toolchain/mac_pnacl/bin/../x86_64-nacl/lib/libcrt_common.a(lib_a-fflush.o)
 .debug_pubnames
                0x0000000000001cab      0x121 /Users/jkwang/Desktop/nacl_sdk/pepper_canary/toolchain/mac_pnacl/bin/../x86_64-nacl/lib/libcrt_common.a(lib_a-findfp.o)
 .debug_pubnames
                0x0000000000001dcc       0x28 /Users/jkwang/Desktop/nacl_sdk/pepper_canary/toolchain/mac_pnacl/bin/../x86_64-nacl/lib/libcrt_common.a(lib_a-fini.o)
 .debug_pubnames
                0x0000000000001df4       0x2d /Users/jkwang/Desktop/nacl_sdk/pepper_canary/toolchain/mac_pnacl/bin/../x86_64-nacl/lib/libcrt_common.a(lib_a-fprintf.o)
 .debug_pubnames
                0x0000000000001e21       0x4c /Users/jkwang/Desktop/nacl_sdk/pepper_canary/toolchain/mac_pnacl/bin/../x86_64-nacl/lib/libcrt_common.a(lib_a-fwalk.o)
 .debug_pubnames
                0x0000000000001e6d       0x2b /Users/jkwang/Desktop/nacl_sdk/pepper_canary/toolchain/mac_pnacl/bin/../x86_64-nacl/lib/libcrt_common.a(lib_a-fwrite.o)
 .debug_pubnames
                0x0000000000001e98       0x2a /Users/jkwang/Desktop/nacl_sdk/pepper_canary/toolchain/mac_pnacl/bin/../x86_64-nacl/lib/libcrt_common.a(lib_a-getenv.o)
 .debug_pubnames
                0x0000000000001ec2       0x3d /Users/jkwang/Desktop/nacl_sdk/pepper_canary/toolchain/mac_pnacl/bin/../x86_64-nacl/lib/libcrt_common.a(lib_a-getenv_r.o)
 .debug_pubnames
                0x0000000000001eff       0x92 /Users/jkwang/Desktop/nacl_sdk/pepper_canary/toolchain/mac_pnacl/bin/../x86_64-nacl/lib/libcrt_common.a(lib_a-impure.o)
 .debug_pubnames
                0x0000000000001f91       0x28 /Users/jkwang/Desktop/nacl_sdk/pepper_canary/toolchain/mac_pnacl/bin/../x86_64-nacl/lib/libcrt_common.a(lib_a-init.o)
 .debug_pubnames
                0x0000000000001fb9       0x1c /Users/jkwang/Desktop/nacl_sdk/pepper_canary/toolchain/mac_pnacl/bin/../x86_64-nacl/lib/libcrt_common.a(lib_a-sleep.o)
 .debug_pubnames
                0x0000000000001fd5       0x53 /Users/jkwang/Desktop/nacl_sdk/pepper_canary/toolchain/mac_pnacl/bin/../x86_64-nacl/lib/libcrt_common.a(lib_a-stdio.o)
 .debug_pubnames
                0x0000000000002028       0x1d /Users/jkwang/Desktop/nacl_sdk/pepper_canary/toolchain/mac_pnacl/bin/../x86_64-nacl/lib/libcrt_common.a(lib_a-strcat.o)
 .debug_pubnames
                0x0000000000002045       0x1d /Users/jkwang/Desktop/nacl_sdk/pepper_canary/toolchain/mac_pnacl/bin/../x86_64-nacl/lib/libcrt_common.a(lib_a-strcmp.o)
 .debug_pubnames
                0x0000000000002062       0x1d /Users/jkwang/Desktop/nacl_sdk/pepper_canary/toolchain/mac_pnacl/bin/../x86_64-nacl/lib/libcrt_common.a(lib_a-strcpy.o)
 .debug_pubnames
                0x000000000000207f       0x1d /Users/jkwang/Desktop/nacl_sdk/pepper_canary/toolchain/mac_pnacl/bin/../x86_64-nacl/lib/libcrt_common.a(lib_a-strlen.o)
 .debug_pubnames
                0x000000000000209c       0x1e /Users/jkwang/Desktop/nacl_sdk/pepper_canary/toolchain/mac_pnacl/bin/../x86_64-nacl/lib/libcrt_common.a(lib_a-strncmp.o)
 .debug_pubnames
                0x00000000000020ba       0x69 /Users/jkwang/Desktop/nacl_sdk/pepper_canary/toolchain/mac_pnacl/bin/../x86_64-nacl/lib/libcrt_common.a(lib_a-vfprintf.o)
 .debug_pubnames
                0x0000000000002123       0x31 /Users/jkwang/Desktop/nacl_sdk/pepper_canary/toolchain/mac_pnacl/bin/../x86_64-nacl/lib/libcrt_common.a(lib_a-vsnprintf.o)
 .debug_pubnames
                0x0000000000002154       0x2f /Users/jkwang/Desktop/nacl_sdk/pepper_canary/toolchain/mac_pnacl/bin/../x86_64-nacl/lib/libcrt_common.a(lib_a-vsprintf.o)
 .debug_pubnames
                0x0000000000002183       0x2d /Users/jkwang/Desktop/nacl_sdk/pepper_canary/toolchain/mac_pnacl/bin/../x86_64-nacl/lib/libcrt_common.a(lib_a-wcrtomb.o)
 .debug_pubnames
                0x00000000000021b0       0x31 /Users/jkwang/Desktop/nacl_sdk/pepper_canary/toolchain/mac_pnacl/bin/../x86_64-nacl/lib/libcrt_common.a(lib_a-wcsrtombs.o)
 .debug_pubnames
                0x00000000000021e1       0x88 /Users/jkwang/Desktop/nacl_sdk/pepper_canary/toolchain/mac_pnacl/bin/../x86_64-nacl/lib/libcrt_common.a(lib_a-wctomb_r.o)
 .debug_pubnames
                0x0000000000002269       0x22 /Users/jkwang/Desktop/nacl_sdk/pepper_canary/toolchain/mac_pnacl/bin/../x86_64-nacl/lib/libcrt_common.a(lib_a-wsetup.o)
 .debug_pubnames
                0x000000000000228b       0x2a /Users/jkwang/Desktop/nacl_sdk/pepper_canary/toolchain/mac_pnacl/bin/../x86_64-nacl/lib/libcrt_common.a(lib_a-__atexit.o)
 .debug_pubnames
                0x00000000000022b5       0x39 /Users/jkwang/Desktop/nacl_sdk/pepper_canary/toolchain/mac_pnacl/bin/../x86_64-nacl/lib/libcrt_common.a(lib_a-__call_atexit.o)
 .debug_pubnames
                0x00000000000022ee       0x29 /Users/jkwang/Desktop/nacl_sdk/pepper_canary/toolchain/mac_pnacl/bin/../x86_64-nacl/lib/libcrt_common.a(lib_a-dtoa.o)
 .debug_pubnames
                0x0000000000002317       0x48 /Users/jkwang/Desktop/nacl_sdk/pepper_canary/toolchain/mac_pnacl/bin/../x86_64-nacl/lib/libcrt_common.a(lib_a-envlock.o)
 .debug_pubnames
                0x000000000000235f       0x2b /Users/jkwang/Desktop/nacl_sdk/pepper_canary/toolchain/mac_pnacl/bin/../x86_64-nacl/lib/libcrt_common.a(lib_a-fclose.o)
 .debug_pubnames
                0x000000000000238a       0x23 /Users/jkwang/Desktop/nacl_sdk/pepper_canary/toolchain/mac_pnacl/bin/../x86_64-nacl/lib/libcrt_common.a(lib_a-fvwrite.o)
 .debug_pubnames
                0x00000000000023ad      0x1f9 /Users/jkwang/Desktop/nacl_sdk/pepper_canary/toolchain/mac_pnacl/bin/../x86_64-nacl/lib/libcrt_common.a(lib_a-locale.o)
 .debug_pubnames
                0x00000000000025a6       0x23 /Users/jkwang/Desktop/nacl_sdk/pepper_canary/toolchain/mac_pnacl/bin/../x86_64-nacl/lib/libcrt_common.a(lib_a-makebuf.o)
 .debug_pubnames
                0x00000000000025c9       0xb1 /Users/jkwang/Desktop/nacl_sdk/pepper_canary/toolchain/mac_pnacl/bin/../x86_64-nacl/lib/libcrt_common.a(lib_a-mbtowc_r.o)
 .debug_pubnames
                0x000000000000267a       0x1d /Users/jkwang/Desktop/nacl_sdk/pepper_canary/toolchain/mac_pnacl/bin/../x86_64-nacl/lib/libcrt_common.a(lib_a-memchr.o)
 .debug_pubnames
                0x0000000000002697       0x1e /Users/jkwang/Desktop/nacl_sdk/pepper_canary/toolchain/mac_pnacl/bin/../x86_64-nacl/lib/libcrt_common.a(lib_a-memmove.o)
 .debug_pubnames
                0x00000000000026b5      0x142 /Users/jkwang/Desktop/nacl_sdk/pepper_canary/toolchain/mac_pnacl/bin/../x86_64-nacl/lib/libcrt_common.a(lib_a-mprec.o)
 .debug_pubnames
                0x00000000000027f7       0x24 /Users/jkwang/Desktop/nacl_sdk/pepper_canary/toolchain/mac_pnacl/bin/../x86_64-nacl/lib/libcrt_common.a(lib_a-s_fpclassify.o)
 .debug_pubnames
                0x000000000000281b       0x26 /Users/jkwang/Desktop/nacl_sdk/pepper_canary/toolchain/mac_pnacl/bin/../x86_64-nacl/lib/libcrt_common.a(lib_a-s_frexp.o)
 .debug_pubnames
                0x0000000000002841       0x21 /Users/jkwang/Desktop/nacl_sdk/pepper_canary/toolchain/mac_pnacl/bin/../x86_64-nacl/lib/libcrt_common.a(lib_a-strcasecmp.o)
 .debug_pubnames
                0x0000000000002862       0x1d /Users/jkwang/Desktop/nacl_sdk/pepper_canary/toolchain/mac_pnacl/bin/../x86_64-nacl/lib/libcrt_common.a(lib_a-strchr.o)
 .debug_pubnames
                0x000000000000287f       0x1e /Users/jkwang/Desktop/nacl_sdk/pepper_canary/toolchain/mac_pnacl/bin/../x86_64-nacl/lib/libcrt_common.a(lib_a-strlcpy.o)
 .debug_pubnames
                0x000000000000289d       0x22 /Users/jkwang/Desktop/nacl_sdk/pepper_canary/toolchain/mac_pnacl/bin/../x86_64-nacl/lib/libcrt_common.a(lib_a-strncasecmp.o)
 .debug_pubnames
                0x00000000000028bf       0x1e /Users/jkwang/Desktop/nacl_sdk/pepper_canary/toolchain/mac_pnacl/bin/../x86_64-nacl/lib/libcrt_common.a(lib_a-strncpy.o)
 .debug_pubnames
                0x00000000000028dd       0x2b /Users/jkwang/Desktop/nacl_sdk/pepper_canary/toolchain/mac_pnacl/bin/../x86_64-nacl/lib/libcrt_common.a(lib_a-strtol.o)
 .debug_pubnames
                0x0000000000002908       0x4e /Users/jkwang/Desktop/nacl_sdk/pepper_canary/toolchain/mac_pnacl/bin/../x86_64-nacl/lib/libcrt_common.a(lib_a-svfprintf.o)
 .debug_pubnames
                0x0000000000002956       0x65 /Users/jkwang/Desktop/nacl_sdk/pepper_canary/toolchain/mac_pnacl/bin/../x86_64-nacl/lib/libcrt_common.a(lib_a-vfiprintf.o)
 .debug_pubnames
                0x00000000000029bb       0x33 /Users/jkwang/Desktop/nacl_sdk/pepper_canary/toolchain/mac_pnacl/bin/../x86_64-nacl/lib/libcrt_common.a(lib_a-wcsnrtombs.o)
 .debug_pubnames
                0x00000000000029ee       0x4d /Users/jkwang/Desktop/nacl_sdk/pepper_canary/toolchain/mac_pnacl/bin/../x86_64-nacl/lib/libcrt_common.a(lib_a-ctype_.o)
 .debug_pubnames
                0x0000000000002a3b       0x38 /Users/jkwang/Desktop/nacl_sdk/pepper_canary/toolchain/mac_pnacl/bin/../x86_64-nacl/lib/libcrt_common.a(lib_a-fputwc.o)
 .debug_pubnames
                0x0000000000002a73       0x4a /Users/jkwang/Desktop/nacl_sdk/pepper_canary/toolchain/mac_pnacl/bin/../x86_64-nacl/lib/libcrt_common.a(lib_a-svfiprintf.o)
 .debug_pubnames
                0x0000000000002abd       0x2c /Users/jkwang/Desktop/nacl_sdk/pepper_canary/toolchain/mac_pnacl/bin/../x86_64-nacl/lib/libcrt_common.a(lib_a-wbuf.o)
 .debug_pubnames
                0x0000000000002ae9       0x1c /Users/jkwang/Desktop/nacl_sdk/pepper_canary/toolchain/mac_pnacl/bin/../x86_64-nacl/lib/libnacl.a(close.o)
 .debug_pubnames
                0x0000000000002b05       0x1c /Users/jkwang/Desktop/nacl_sdk/pepper_canary/toolchain/mac_pnacl/bin/../x86_64-nacl/lib/libnacl.a(fstat.o)
 .debug_pubnames
                0x0000000000002b21       0x1d /Users/jkwang/Desktop/nacl_sdk/pepper_canary/toolchain/mac_pnacl/bin/../x86_64-nacl/lib/libnacl.a(isatty.o)
 .debug_pubnames
                0x0000000000002b3e       0x1c /Users/jkwang/Desktop/nacl_sdk/pepper_canary/toolchain/mac_pnacl/bin/../x86_64-nacl/lib/libnacl.a(lseek.o)
 .debug_pubnames
                0x0000000000002b5a       0x20 /Users/jkwang/Desktop/nacl_sdk/pepper_canary/toolchain/mac_pnacl/bin/../x86_64-nacl/lib/libnacl.a(nanosleep.o)
 .debug_pubnames
                0x0000000000002b7a       0x32 /Users/jkwang/Desktop/nacl_sdk/pepper_canary/toolchain/mac_pnacl/bin/../x86_64-nacl/lib/libnacl.a(nacl_irt_fdio.o)
 .debug_pubnames
                0x0000000000002bac       0x1b /Users/jkwang/Desktop/nacl_sdk/pepper_canary/toolchain/mac_pnacl/bin/../x86_64-nacl/lib/libnacl.a(read.o)
 .debug_pubnames
                0x0000000000002bc7      0x12c /Users/jkwang/Desktop/nacl_sdk/pepper_canary/toolchain/mac_pnacl/bin/../lib/clang/3.7.0/lib/x86_64-nacl/libgcc_eh.a(unwind-dw2-fde-glibc.o)

.debug_info     0x0000000000000000    0x2233f
 *(.debug_info .gnu.linkonce.wi.*)
 .debug_info    0x0000000000000000      0xbd7 clang-newlib/Release/debugging_x86_64.o
 .debug_info    0x0000000000000bd7      0x7ea /Users/jkwang/Desktop/nacl_sdk/pepper_canary/lib/clang-newlib_x86_64/Release/liberror_handling.a(error_handling_x86_64.o)
 .debug_info    0x00000000000013c1      0x1f9 /Users/jkwang/Desktop/nacl_sdk/pepper_canary/lib/clang-newlib_x86_64/Release/liberror_handling.a(string_stream_x86_64.o)
 .debug_info    0x00000000000015ba     0x13d6 /Users/jkwang/Desktop/nacl_sdk/pepper_canary/toolchain/mac_pnacl/bin/../x86_64-nacl/lib/libpthread.a(nc_thread.o)
 .debug_info    0x0000000000002990      0x85e /Users/jkwang/Desktop/nacl_sdk/pepper_canary/toolchain/mac_pnacl/bin/../x86_64-nacl/lib/libpthread.a(nc_mutex.o)
 .debug_info    0x00000000000031ee      0x619 /Users/jkwang/Desktop/nacl_sdk/pepper_canary/toolchain/mac_pnacl/bin/../x86_64-nacl/lib/libpthread.a(nc_condvar.o)
 .debug_info    0x0000000000003807      0xa19 /Users/jkwang/Desktop/nacl_sdk/pepper_canary/toolchain/mac_pnacl/bin/../x86_64-nacl/lib/libpthread.a(valgrind_annotations.o)
 .debug_info    0x0000000000004220      0x111 /Users/jkwang/Desktop/nacl_sdk/pepper_canary/toolchain/mac_pnacl/bin/../x86_64-nacl/lib/libpthread.a(nc_init_irt.o)
 .debug_info    0x0000000000004331      0xb77 /Users/jkwang/Desktop/nacl_sdk/pepper_canary/toolchain/mac_pnacl/bin/../x86_64-nacl/lib/libnacl.a(nacl_irt.o)
 .debug_info    0x0000000000004ea8       0x4f /Users/jkwang/Desktop/nacl_sdk/pepper_canary/toolchain/mac_pnacl/bin/../x86_64-nacl/lib/libnacl.a(_exit.o)
 .debug_info    0x0000000000004ef7       0xe6 /Users/jkwang/Desktop/nacl_sdk/pepper_canary/toolchain/mac_pnacl/bin/../x86_64-nacl/lib/libnacl.a(mmap.o)
 .debug_info    0x0000000000004fdd       0x84 /Users/jkwang/Desktop/nacl_sdk/pepper_canary/toolchain/mac_pnacl/bin/../x86_64-nacl/lib/libnacl.a(munmap.o)
 .debug_info    0x0000000000005061       0x8e /Users/jkwang/Desktop/nacl_sdk/pepper_canary/toolchain/mac_pnacl/bin/../x86_64-nacl/lib/libnacl.a(nacl_interface_query.o)
 .debug_info    0x00000000000050ef       0xa7 /Users/jkwang/Desktop/nacl_sdk/pepper_canary/toolchain/mac_pnacl/bin/../x86_64-nacl/lib/libnacl.a(write.o)
 .debug_info    0x0000000000005196       0x65 /Users/jkwang/Desktop/nacl_sdk/pepper_canary/toolchain/mac_pnacl/bin/../x86_64-nacl/lib/libnacl.a(environ.o)
 .debug_info    0x00000000000051fb     0x3a01 /Users/jkwang/Desktop/nacl_sdk/pepper_canary/toolchain/mac_pnacl/bin/../x86_64-nacl/lib/libnacl.a(malloc.o)
 .debug_info    0x0000000000008bfc      0x29c /Users/jkwang/Desktop/nacl_sdk/pepper_canary/toolchain/mac_pnacl/bin/../x86_64-nacl/lib/libnacl.a(start.o)
 .debug_info    0x0000000000008e98       0x6b /Users/jkwang/Desktop/nacl_sdk/pepper_canary/toolchain/mac_pnacl/bin/../x86_64-nacl/lib/libnacl.a(nacl_add_tp.o)
 .debug_info    0x0000000000008f03       0x3d /Users/jkwang/Desktop/nacl_sdk/pepper_canary/toolchain/mac_pnacl/bin/../x86_64-nacl/lib/libnacl.a(nacl_read_tp.o)
 .debug_info    0x0000000000008f40       0x88 /Users/jkwang/Desktop/nacl_sdk/pepper_canary/toolchain/mac_pnacl/bin/../x86_64-nacl/lib/libnacl.a(pthread_initialize_minimal.o)
 .debug_info    0x0000000000008fc8      0x5b9 /Users/jkwang/Desktop/nacl_sdk/pepper_canary/toolchain/mac_pnacl/bin/../x86_64-nacl/lib/libnacl.a(tls.o)
 .debug_info    0x0000000000009581      0x268 /Users/jkwang/Desktop/nacl_sdk/pepper_canary/toolchain/mac_pnacl/bin/../x86_64-nacl/lib/libnacl.a(nacl_irt_init.o)
 .debug_info    0x00000000000097e9       0x3d /Users/jkwang/Desktop/nacl_sdk/pepper_canary/toolchain/mac_pnacl/bin/../x86_64-nacl/lib/libnacl.a(nacl_tls_get.o)
 .debug_info    0x0000000000009826       0x54 /Users/jkwang/Desktop/nacl_sdk/pepper_canary/toolchain/mac_pnacl/bin/../x86_64-nacl/lib/libnacl.a(nacl_tls_init.o)
 .debug_info    0x000000000000987a       0x69 /Users/jkwang/Desktop/nacl_sdk/pepper_canary/toolchain/mac_pnacl/bin/../x86_64-nacl/lib/libnacl.a(abort.o)
 .debug_info    0x00000000000098e3       0x53 /Users/jkwang/Desktop/nacl_sdk/pepper_canary/toolchain/mac_pnacl/bin/../x86_64-nacl/lib/libnacl.a(sched_yield.o)
 .debug_info    0x0000000000009936       0x78 /Users/jkwang/Desktop/nacl_sdk/pepper_canary/toolchain/mac_pnacl/bin/../x86_64-nacl/lib/libnacl.a(sysconf.o)
 .debug_info    0x00000000000099ae       0x75 /Users/jkwang/Desktop/nacl_sdk/pepper_canary/toolchain/mac_pnacl/bin/../x86_64-nacl/lib/libcrt_common.a(lib_a-atexit.o)
 .debug_info    0x0000000000009a23       0x48 /Users/jkwang/Desktop/nacl_sdk/pepper_canary/toolchain/mac_pnacl/bin/../x86_64-nacl/lib/libcrt_common.a(lib_a-errno.o)
 .debug_info    0x0000000000009a6b       0x50 /Users/jkwang/Desktop/nacl_sdk/pepper_canary/toolchain/mac_pnacl/bin/../x86_64-nacl/lib/libcrt_common.a(lib_a-exit.o)
 .debug_info    0x0000000000009abb      0x9b6 /Users/jkwang/Desktop/nacl_sdk/pepper_canary/toolchain/mac_pnacl/bin/../x86_64-nacl/lib/libcrt_common.a(lib_a-fflush.o)
 .debug_info    0x000000000000a471      0xb75 /Users/jkwang/Desktop/nacl_sdk/pepper_canary/toolchain/mac_pnacl/bin/../x86_64-nacl/lib/libcrt_common.a(lib_a-findfp.o)
 .debug_info    0x000000000000afe6       0x65 /Users/jkwang/Desktop/nacl_sdk/pepper_canary/toolchain/mac_pnacl/bin/../x86_64-nacl/lib/libcrt_common.a(lib_a-fini.o)
 .debug_info    0x000000000000b04b      0x958 /Users/jkwang/Desktop/nacl_sdk/pepper_canary/toolchain/mac_pnacl/bin/../x86_64-nacl/lib/libcrt_common.a(lib_a-fprintf.o)
 .debug_info    0x000000000000b9a3      0xa4d /Users/jkwang/Desktop/nacl_sdk/pepper_canary/toolchain/mac_pnacl/bin/../x86_64-nacl/lib/libcrt_common.a(lib_a-fwalk.o)
 .debug_info    0x000000000000c3f0      0x99c /Users/jkwang/Desktop/nacl_sdk/pepper_canary/toolchain/mac_pnacl/bin/../x86_64-nacl/lib/libcrt_common.a(lib_a-fwrite.o)
 .debug_info    0x000000000000cd8c       0xad /Users/jkwang/Desktop/nacl_sdk/pepper_canary/toolchain/mac_pnacl/bin/../x86_64-nacl/lib/libcrt_common.a(lib_a-getenv.o)
 .debug_info    0x000000000000ce39      0x8ee /Users/jkwang/Desktop/nacl_sdk/pepper_canary/toolchain/mac_pnacl/bin/../x86_64-nacl/lib/libcrt_common.a(lib_a-getenv_r.o)
 .debug_info    0x000000000000d727      0x892 /Users/jkwang/Desktop/nacl_sdk/pepper_canary/toolchain/mac_pnacl/bin/../x86_64-nacl/lib/libcrt_common.a(lib_a-impure.o)
 .debug_info    0x000000000000dfb9       0x65 /Users/jkwang/Desktop/nacl_sdk/pepper_canary/toolchain/mac_pnacl/bin/../x86_64-nacl/lib/libcrt_common.a(lib_a-init.o)
 .debug_info    0x000000000000e01e      0x1f2 /Users/jkwang/Desktop/nacl_sdk/pepper_canary/toolchain/mac_pnacl/bin/../x86_64-nacl/lib/libcrt_common.a(lib_a-memcpy.o)
 .debug_info    0x000000000000e210      0x1f2 /Users/jkwang/Desktop/nacl_sdk/pepper_canary/toolchain/mac_pnacl/bin/../x86_64-nacl/lib/libcrt_common.a(lib_a-memset.o)
 .debug_info    0x000000000000e402       0xb2 /Users/jkwang/Desktop/nacl_sdk/pepper_canary/toolchain/mac_pnacl/bin/../x86_64-nacl/lib/libcrt_common.a(lib_a-sleep.o)
 .debug_info    0x000000000000e4b4      0xa1c /Users/jkwang/Desktop/nacl_sdk/pepper_canary/toolchain/mac_pnacl/bin/../x86_64-nacl/lib/libcrt_common.a(lib_a-stdio.o)
 .debug_info    0x000000000000eed0       0xb2 /Users/jkwang/Desktop/nacl_sdk/pepper_canary/toolchain/mac_pnacl/bin/../x86_64-nacl/lib/libcrt_common.a(lib_a-strcat.o)
 .debug_info    0x000000000000ef82       0xb5 /Users/jkwang/Desktop/nacl_sdk/pepper_canary/toolchain/mac_pnacl/bin/../x86_64-nacl/lib/libcrt_common.a(lib_a-strcmp.o)
 .debug_info    0x000000000000f037       0xc3 /Users/jkwang/Desktop/nacl_sdk/pepper_canary/toolchain/mac_pnacl/bin/../x86_64-nacl/lib/libcrt_common.a(lib_a-strcpy.o)
 .debug_info    0x000000000000f0fa       0xa1 /Users/jkwang/Desktop/nacl_sdk/pepper_canary/toolchain/mac_pnacl/bin/../x86_64-nacl/lib/libcrt_common.a(lib_a-strlen.o)
 .debug_info    0x000000000000f19b       0xd6 /Users/jkwang/Desktop/nacl_sdk/pepper_canary/toolchain/mac_pnacl/bin/../x86_64-nacl/lib/libcrt_common.a(lib_a-strncmp.o)
 .debug_info    0x000000000000f271     0x1064 /Users/jkwang/Desktop/nacl_sdk/pepper_canary/toolchain/mac_pnacl/bin/../x86_64-nacl/lib/libcrt_common.a(lib_a-vfprintf.o)
 .debug_info    0x00000000000102d5      0x9b1 /Users/jkwang/Desktop/nacl_sdk/pepper_canary/toolchain/mac_pnacl/bin/../x86_64-nacl/lib/libcrt_common.a(lib_a-vsnprintf.o)
 .debug_info    0x0000000000010c86      0x98d /Users/jkwang/Desktop/nacl_sdk/pepper_canary/toolchain/mac_pnacl/bin/../x86_64-nacl/lib/libcrt_common.a(lib_a-vsprintf.o)
 .debug_info    0x0000000000011613      0x93f /Users/jkwang/Desktop/nacl_sdk/pepper_canary/toolchain/mac_pnacl/bin/../x86_64-nacl/lib/libcrt_common.a(lib_a-wcrtomb.o)
 .debug_info    0x0000000000011f52      0x91c /Users/jkwang/Desktop/nacl_sdk/pepper_canary/toolchain/mac_pnacl/bin/../x86_64-nacl/lib/libcrt_common.a(lib_a-wcsrtombs.o)
 .debug_info    0x000000000001286e      0xb77 /Users/jkwang/Desktop/nacl_sdk/pepper_canary/toolchain/mac_pnacl/bin/../x86_64-nacl/lib/libcrt_common.a(lib_a-wctomb_r.o)
 .debug_info    0x00000000000133e5      0x882 /Users/jkwang/Desktop/nacl_sdk/pepper_canary/toolchain/mac_pnacl/bin/../x86_64-nacl/lib/libcrt_common.a(lib_a-wsetup.o)
 .debug_info    0x0000000000013c67      0x16d /Users/jkwang/Desktop/nacl_sdk/pepper_canary/toolchain/mac_pnacl/bin/../x86_64-nacl/lib/libcrt_common.a(lib_a-__atexit.o)
 .debug_info    0x0000000000013dd4      0x20b /Users/jkwang/Desktop/nacl_sdk/pepper_canary/toolchain/mac_pnacl/bin/../x86_64-nacl/lib/libcrt_common.a(lib_a-__call_atexit.o)
 .debug_info    0x0000000000013fdf      0xc0f /Users/jkwang/Desktop/nacl_sdk/pepper_canary/toolchain/mac_pnacl/bin/../x86_64-nacl/lib/libcrt_common.a(lib_a-dtoa.o)
 .debug_info    0x0000000000014bee      0x878 /Users/jkwang/Desktop/nacl_sdk/pepper_canary/toolchain/mac_pnacl/bin/../x86_64-nacl/lib/libcrt_common.a(lib_a-envlock.o)
 .debug_info    0x0000000000015466      0x8b6 /Users/jkwang/Desktop/nacl_sdk/pepper_canary/toolchain/mac_pnacl/bin/../x86_64-nacl/lib/libcrt_common.a(lib_a-fclose.o)
 .debug_info    0x0000000000015d1c      0x989 /Users/jkwang/Desktop/nacl_sdk/pepper_canary/toolchain/mac_pnacl/bin/../x86_64-nacl/lib/libcrt_common.a(lib_a-fvwrite.o)
 .debug_info    0x00000000000166a5      0xe0f /Users/jkwang/Desktop/nacl_sdk/pepper_canary/toolchain/mac_pnacl/bin/../x86_64-nacl/lib/libcrt_common.a(lib_a-locale.o)
 .debug_info    0x00000000000174b4      0xa62 /Users/jkwang/Desktop/nacl_sdk/pepper_canary/toolchain/mac_pnacl/bin/../x86_64-nacl/lib/libcrt_common.a(lib_a-makebuf.o)
 .debug_info    0x0000000000017f16      0xdba /Users/jkwang/Desktop/nacl_sdk/pepper_canary/toolchain/mac_pnacl/bin/../x86_64-nacl/lib/libcrt_common.a(lib_a-mbtowc_r.o)
 .debug_info    0x0000000000018cd0       0xf7 /Users/jkwang/Desktop/nacl_sdk/pepper_canary/toolchain/mac_pnacl/bin/../x86_64-nacl/lib/libcrt_common.a(lib_a-memchr.o)
 .debug_info    0x0000000000018dc7       0xeb /Users/jkwang/Desktop/nacl_sdk/pepper_canary/toolchain/mac_pnacl/bin/../x86_64-nacl/lib/libcrt_common.a(lib_a-memmove.o)
 .debug_info    0x0000000000018eb2     0x16d6 /Users/jkwang/Desktop/nacl_sdk/pepper_canary/toolchain/mac_pnacl/bin/../x86_64-nacl/lib/libcrt_common.a(lib_a-mprec.o)
 .debug_info    0x000000000001a588       0xeb /Users/jkwang/Desktop/nacl_sdk/pepper_canary/toolchain/mac_pnacl/bin/../x86_64-nacl/lib/libcrt_common.a(lib_a-s_fpclassify.o)
 .debug_info    0x000000000001a673      0x15f /Users/jkwang/Desktop/nacl_sdk/pepper_canary/toolchain/mac_pnacl/bin/../x86_64-nacl/lib/libcrt_common.a(lib_a-s_frexp.o)
 .debug_info    0x000000000001a7d2      0x100 /Users/jkwang/Desktop/nacl_sdk/pepper_canary/toolchain/mac_pnacl/bin/../x86_64-nacl/lib/libcrt_common.a(lib_a-strcasecmp.o)
 .debug_info    0x000000000001a8d2       0xe9 /Users/jkwang/Desktop/nacl_sdk/pepper_canary/toolchain/mac_pnacl/bin/../x86_64-nacl/lib/libcrt_common.a(lib_a-strchr.o)
 .debug_info    0x000000000001a9bb       0xbf /Users/jkwang/Desktop/nacl_sdk/pepper_canary/toolchain/mac_pnacl/bin/../x86_64-nacl/lib/libcrt_common.a(lib_a-strlcpy.o)
 .debug_info    0x000000000001aa7a      0x11e /Users/jkwang/Desktop/nacl_sdk/pepper_canary/toolchain/mac_pnacl/bin/../x86_64-nacl/lib/libcrt_common.a(lib_a-strncasecmp.o)
 .debug_info    0x000000000001ab98       0xee /Users/jkwang/Desktop/nacl_sdk/pepper_canary/toolchain/mac_pnacl/bin/../x86_64-nacl/lib/libcrt_common.a(lib_a-strncpy.o)
 .debug_info    0x000000000001ac86      0x938 /Users/jkwang/Desktop/nacl_sdk/pepper_canary/toolchain/mac_pnacl/bin/../x86_64-nacl/lib/libcrt_common.a(lib_a-strtol.o)
 .debug_info    0x000000000001b5be      0xf63 /Users/jkwang/Desktop/nacl_sdk/pepper_canary/toolchain/mac_pnacl/bin/../x86_64-nacl/lib/libcrt_common.a(lib_a-svfprintf.o)
 .debug_info    0x000000000001c521     0x12ac /Users/jkwang/Desktop/nacl_sdk/pepper_canary/toolchain/mac_pnacl/bin/../x86_64-nacl/lib/libcrt_common.a(lib_a-vfiprintf.o)
 .debug_info    0x000000000001d7cd      0x9c8 /Users/jkwang/Desktop/nacl_sdk/pepper_canary/toolchain/mac_pnacl/bin/../x86_64-nacl/lib/libcrt_common.a(lib_a-wcsnrtombs.o)
 .debug_info    0x000000000001e195       0xb2 /Users/jkwang/Desktop/nacl_sdk/pepper_canary/toolchain/mac_pnacl/bin/../x86_64-nacl/lib/libcrt_common.a(lib_a-ctype_.o)
 .debug_info    0x000000000001e247      0x989 /Users/jkwang/Desktop/nacl_sdk/pepper_canary/toolchain/mac_pnacl/bin/../x86_64-nacl/lib/libcrt_common.a(lib_a-fputwc.o)
 .debug_info    0x000000000001ebd0      0xce1 /Users/jkwang/Desktop/nacl_sdk/pepper_canary/toolchain/mac_pnacl/bin/../x86_64-nacl/lib/libcrt_common.a(lib_a-svfiprintf.o)
 .debug_info    0x000000000001f8b1      0x8d4 /Users/jkwang/Desktop/nacl_sdk/pepper_canary/toolchain/mac_pnacl/bin/../x86_64-nacl/lib/libcrt_common.a(lib_a-wbuf.o)
 .debug_info    0x0000000000020185       0x62 /Users/jkwang/Desktop/nacl_sdk/pepper_canary/toolchain/mac_pnacl/bin/../x86_64-nacl/lib/libnacl.a(close.o)
 .debug_info    0x00000000000201e7      0x25c /Users/jkwang/Desktop/nacl_sdk/pepper_canary/toolchain/mac_pnacl/bin/../x86_64-nacl/lib/libnacl.a(fstat.o)
 .debug_info    0x0000000000020443       0x71 /Users/jkwang/Desktop/nacl_sdk/pepper_canary/toolchain/mac_pnacl/bin/../x86_64-nacl/lib/libnacl.a(isatty.o)
 .debug_info    0x00000000000204b4       0xb5 /Users/jkwang/Desktop/nacl_sdk/pepper_canary/toolchain/mac_pnacl/bin/../x86_64-nacl/lib/libnacl.a(lseek.o)
 .debug_info    0x0000000000020569       0xd0 /Users/jkwang/Desktop/nacl_sdk/pepper_canary/toolchain/mac_pnacl/bin/../x86_64-nacl/lib/libnacl.a(nanosleep.o)
 .debug_info    0x0000000000020639       0x38 /Users/jkwang/Desktop/nacl_sdk/pepper_canary/toolchain/mac_pnacl/bin/../x86_64-nacl/lib/libnacl.a(nacl_irt_fdio.o)
 .debug_info    0x0000000000020671       0xa2 /Users/jkwang/Desktop/nacl_sdk/pepper_canary/toolchain/mac_pnacl/bin/../x86_64-nacl/lib/libnacl.a(read.o)
 .debug_info    0x0000000000020713     0x1c2c /Users/jkwang/Desktop/nacl_sdk/pepper_canary/toolchain/mac_pnacl/bin/../lib/clang/3.7.0/lib/x86_64-nacl/libgcc_eh.a(unwind-dw2-fde-glibc.o)

.debug_abbrev   0x0000000000000000     0x6597
 *(.debug_abbrev)
 .debug_abbrev  0x0000000000000000      0x223 clang-newlib/Release/debugging_x86_64.o
 .debug_abbrev  0x0000000000000223      0x240 /Users/jkwang/Desktop/nacl_sdk/pepper_canary/lib/clang-newlib_x86_64/Release/liberror_handling.a(error_handling_x86_64.o)
 .debug_abbrev  0x0000000000000463       0xf7 /Users/jkwang/Desktop/nacl_sdk/pepper_canary/lib/clang-newlib_x86_64/Release/liberror_handling.a(string_stream_x86_64.o)
 .debug_abbrev  0x000000000000055a      0x3c2 /Users/jkwang/Desktop/nacl_sdk/pepper_canary/toolchain/mac_pnacl/bin/../x86_64-nacl/lib/libpthread.a(nc_thread.o)
 .debug_abbrev  0x000000000000091c      0x21f /Users/jkwang/Desktop/nacl_sdk/pepper_canary/toolchain/mac_pnacl/bin/../x86_64-nacl/lib/libpthread.a(nc_mutex.o)
 .debug_abbrev  0x0000000000000b3b      0x16c /Users/jkwang/Desktop/nacl_sdk/pepper_canary/toolchain/mac_pnacl/bin/../x86_64-nacl/lib/libpthread.a(nc_condvar.o)
 .debug_abbrev  0x0000000000000ca7       0xda /Users/jkwang/Desktop/nacl_sdk/pepper_canary/toolchain/mac_pnacl/bin/../x86_64-nacl/lib/libpthread.a(valgrind_annotations.o)
 .debug_abbrev  0x0000000000000d81       0xb8 /Users/jkwang/Desktop/nacl_sdk/pepper_canary/toolchain/mac_pnacl/bin/../x86_64-nacl/lib/libpthread.a(nc_init_irt.o)
 .debug_abbrev  0x0000000000000e39      0x1e7 /Users/jkwang/Desktop/nacl_sdk/pepper_canary/toolchain/mac_pnacl/bin/../x86_64-nacl/lib/libnacl.a(nacl_irt.o)
 .debug_abbrev  0x0000000000001020       0x4c /Users/jkwang/Desktop/nacl_sdk/pepper_canary/toolchain/mac_pnacl/bin/../x86_64-nacl/lib/libnacl.a(_exit.o)
 .debug_abbrev  0x000000000000106c       0x7e /Users/jkwang/Desktop/nacl_sdk/pepper_canary/toolchain/mac_pnacl/bin/../x86_64-nacl/lib/libnacl.a(mmap.o)
 .debug_abbrev  0x00000000000010ea       0x6f /Users/jkwang/Desktop/nacl_sdk/pepper_canary/toolchain/mac_pnacl/bin/../x86_64-nacl/lib/libnacl.a(munmap.o)
 .debug_abbrev  0x0000000000001159       0x6e /Users/jkwang/Desktop/nacl_sdk/pepper_canary/toolchain/mac_pnacl/bin/../x86_64-nacl/lib/libnacl.a(nacl_interface_query.o)
 .debug_abbrev  0x00000000000011c7       0x76 /Users/jkwang/Desktop/nacl_sdk/pepper_canary/toolchain/mac_pnacl/bin/../x86_64-nacl/lib/libnacl.a(write.o)
 .debug_abbrev  0x000000000000123d       0x60 /Users/jkwang/Desktop/nacl_sdk/pepper_canary/toolchain/mac_pnacl/bin/../x86_64-nacl/lib/libnacl.a(environ.o)
 .debug_abbrev  0x000000000000129d      0x372 /Users/jkwang/Desktop/nacl_sdk/pepper_canary/toolchain/mac_pnacl/bin/../x86_64-nacl/lib/libnacl.a(malloc.o)
 .debug_abbrev  0x000000000000160f      0x136 /Users/jkwang/Desktop/nacl_sdk/pepper_canary/toolchain/mac_pnacl/bin/../x86_64-nacl/lib/libnacl.a(start.o)
 .debug_abbrev  0x0000000000001745       0x67 /Users/jkwang/Desktop/nacl_sdk/pepper_canary/toolchain/mac_pnacl/bin/../x86_64-nacl/lib/libnacl.a(nacl_add_tp.o)
 .debug_abbrev  0x00000000000017ac       0x39 /Users/jkwang/Desktop/nacl_sdk/pepper_canary/toolchain/mac_pnacl/bin/../x86_64-nacl/lib/libnacl.a(nacl_read_tp.o)
 .debug_abbrev  0x00000000000017e5       0x6d /Users/jkwang/Desktop/nacl_sdk/pepper_canary/toolchain/mac_pnacl/bin/../x86_64-nacl/lib/libnacl.a(pthread_initialize_minimal.o)
 .debug_abbrev  0x0000000000001852      0x1d8 /Users/jkwang/Desktop/nacl_sdk/pepper_canary/toolchain/mac_pnacl/bin/../x86_64-nacl/lib/libnacl.a(tls.o)
 .debug_abbrev  0x0000000000001a2a      0x12e /Users/jkwang/Desktop/nacl_sdk/pepper_canary/toolchain/mac_pnacl/bin/../x86_64-nacl/lib/libnacl.a(nacl_irt_init.o)
 .debug_abbrev  0x0000000000001b58       0x39 /Users/jkwang/Desktop/nacl_sdk/pepper_canary/toolchain/mac_pnacl/bin/../x86_64-nacl/lib/libnacl.a(nacl_tls_get.o)
 .debug_abbrev  0x0000000000001b91       0x53 /Users/jkwang/Desktop/nacl_sdk/pepper_canary/toolchain/mac_pnacl/bin/../x86_64-nacl/lib/libnacl.a(nacl_tls_init.o)
 .debug_abbrev  0x0000000000001be4       0x6e /Users/jkwang/Desktop/nacl_sdk/pepper_canary/toolchain/mac_pnacl/bin/../x86_64-nacl/lib/libnacl.a(abort.o)
 .debug_abbrev  0x0000000000001c52       0x4e /Users/jkwang/Desktop/nacl_sdk/pepper_canary/toolchain/mac_pnacl/bin/../x86_64-nacl/lib/libnacl.a(sched_yield.o)
 .debug_abbrev  0x0000000000001ca0       0x5d /Users/jkwang/Desktop/nacl_sdk/pepper_canary/toolchain/mac_pnacl/bin/../x86_64-nacl/lib/libnacl.a(sysconf.o)
 .debug_abbrev  0x0000000000001cfd       0x74 /Users/jkwang/Desktop/nacl_sdk/pepper_canary/toolchain/mac_pnacl/bin/../x86_64-nacl/lib/libcrt_common.a(lib_a-atexit.o)
 .debug_abbrev  0x0000000000001d71       0x43 /Users/jkwang/Desktop/nacl_sdk/pepper_canary/toolchain/mac_pnacl/bin/../x86_64-nacl/lib/libcrt_common.a(lib_a-errno.o)
 .debug_abbrev  0x0000000000001db4       0x4e /Users/jkwang/Desktop/nacl_sdk/pepper_canary/toolchain/mac_pnacl/bin/../x86_64-nacl/lib/libcrt_common.a(lib_a-exit.o)
 .debug_abbrev  0x0000000000001e02      0x207 /Users/jkwang/Desktop/nacl_sdk/pepper_canary/toolchain/mac_pnacl/bin/../x86_64-nacl/lib/libcrt_common.a(lib_a-fflush.o)
 .debug_abbrev  0x0000000000002009      0x2ab /Users/jkwang/Desktop/nacl_sdk/pepper_canary/toolchain/mac_pnacl/bin/../x86_64-nacl/lib/libcrt_common.a(lib_a-findfp.o)
 .debug_abbrev  0x00000000000022b4       0x63 /Users/jkwang/Desktop/nacl_sdk/pepper_canary/toolchain/mac_pnacl/bin/../x86_64-nacl/lib/libcrt_common.a(lib_a-fini.o)
 .debug_abbrev  0x0000000000002317      0x177 /Users/jkwang/Desktop/nacl_sdk/pepper_canary/toolchain/mac_pnacl/bin/../x86_64-nacl/lib/libcrt_common.a(lib_a-fprintf.o)
 .debug_abbrev  0x000000000000248e      0x1c6 /Users/jkwang/Desktop/nacl_sdk/pepper_canary/toolchain/mac_pnacl/bin/../x86_64-nacl/lib/libcrt_common.a(lib_a-fwalk.o)
 .debug_abbrev  0x0000000000002654      0x171 /Users/jkwang/Desktop/nacl_sdk/pepper_canary/toolchain/mac_pnacl/bin/../x86_64-nacl/lib/libcrt_common.a(lib_a-fwrite.o)
 .debug_abbrev  0x00000000000027c5       0x66 /Users/jkwang/Desktop/nacl_sdk/pepper_canary/toolchain/mac_pnacl/bin/../x86_64-nacl/lib/libcrt_common.a(lib_a-getenv.o)
 .debug_abbrev  0x000000000000282b      0x185 /Users/jkwang/Desktop/nacl_sdk/pepper_canary/toolchain/mac_pnacl/bin/../x86_64-nacl/lib/libcrt_common.a(lib_a-getenv_r.o)
 .debug_abbrev  0x00000000000029b0      0x15a /Users/jkwang/Desktop/nacl_sdk/pepper_canary/toolchain/mac_pnacl/bin/../x86_64-nacl/lib/libcrt_common.a(lib_a-impure.o)
 .debug_abbrev  0x0000000000002b0a       0x63 /Users/jkwang/Desktop/nacl_sdk/pepper_canary/toolchain/mac_pnacl/bin/../x86_64-nacl/lib/libcrt_common.a(lib_a-init.o)
 .debug_abbrev  0x0000000000002b6d       0x28 /Users/jkwang/Desktop/nacl_sdk/pepper_canary/toolchain/mac_pnacl/bin/../x86_64-nacl/lib/libcrt_common.a(lib_a-memcpy.o)
 .debug_abbrev  0x0000000000002b95       0x28 /Users/jkwang/Desktop/nacl_sdk/pepper_canary/toolchain/mac_pnacl/bin/../x86_64-nacl/lib/libcrt_common.a(lib_a-memset.o)
 .debug_abbrev  0x0000000000002bbd       0x83 /Users/jkwang/Desktop/nacl_sdk/pepper_canary/toolchain/mac_pnacl/bin/../x86_64-nacl/lib/libcrt_common.a(lib_a-sleep.o)
 .debug_abbrev  0x0000000000002c40      0x187 /Users/jkwang/Desktop/nacl_sdk/pepper_canary/toolchain/mac_pnacl/bin/../x86_64-nacl/lib/libcrt_common.a(lib_a-stdio.o)
 .debug_abbrev  0x0000000000002dc7       0x94 /Users/jkwang/Desktop/nacl_sdk/pepper_canary/toolchain/mac_pnacl/bin/../x86_64-nacl/lib/libcrt_common.a(lib_a-strcat.o)
 .debug_abbrev  0x0000000000002e5b       0x68 /Users/jkwang/Desktop/nacl_sdk/pepper_canary/toolchain/mac_pnacl/bin/../x86_64-nacl/lib/libcrt_common.a(lib_a-strcmp.o)
 .debug_abbrev  0x0000000000002ec3       0x77 /Users/jkwang/Desktop/nacl_sdk/pepper_canary/toolchain/mac_pnacl/bin/../x86_64-nacl/lib/libcrt_common.a(lib_a-strcpy.o)
 .debug_abbrev  0x0000000000002f3a       0x82 /Users/jkwang/Desktop/nacl_sdk/pepper_canary/toolchain/mac_pnacl/bin/../x86_64-nacl/lib/libcrt_common.a(lib_a-strlen.o)
 .debug_abbrev  0x0000000000002fbc       0x75 /Users/jkwang/Desktop/nacl_sdk/pepper_canary/toolchain/mac_pnacl/bin/../x86_64-nacl/lib/libcrt_common.a(lib_a-strncmp.o)
 .debug_abbrev  0x0000000000003031      0x262 /Users/jkwang/Desktop/nacl_sdk/pepper_canary/toolchain/mac_pnacl/bin/../x86_64-nacl/lib/libcrt_common.a(lib_a-vfprintf.o)
 .debug_abbrev  0x0000000000003293      0x1d8 /Users/jkwang/Desktop/nacl_sdk/pepper_canary/toolchain/mac_pnacl/bin/../x86_64-nacl/lib/libcrt_common.a(lib_a-vsnprintf.o)
 .debug_abbrev  0x000000000000346b      0x1df /Users/jkwang/Desktop/nacl_sdk/pepper_canary/toolchain/mac_pnacl/bin/../x86_64-nacl/lib/libcrt_common.a(lib_a-vsprintf.o)
 .debug_abbrev  0x000000000000364a      0x172 /Users/jkwang/Desktop/nacl_sdk/pepper_canary/toolchain/mac_pnacl/bin/../x86_64-nacl/lib/libcrt_common.a(lib_a-wcrtomb.o)
 .debug_abbrev  0x00000000000037bc      0x163 /Users/jkwang/Desktop/nacl_sdk/pepper_canary/toolchain/mac_pnacl/bin/../x86_64-nacl/lib/libcrt_common.a(lib_a-wcsrtombs.o)
 .debug_abbrev  0x000000000000391f      0x19a /Users/jkwang/Desktop/nacl_sdk/pepper_canary/toolchain/mac_pnacl/bin/../x86_64-nacl/lib/libcrt_common.a(lib_a-wctomb_r.o)
 .debug_abbrev  0x0000000000003ab9      0x165 /Users/jkwang/Desktop/nacl_sdk/pepper_canary/toolchain/mac_pnacl/bin/../x86_64-nacl/lib/libcrt_common.a(lib_a-wsetup.o)
 .debug_abbrev  0x0000000000003c1e       0xe3 /Users/jkwang/Desktop/nacl_sdk/pepper_canary/toolchain/mac_pnacl/bin/../x86_64-nacl/lib/libcrt_common.a(lib_a-__atexit.o)
 .debug_abbrev  0x0000000000003d01      0x100 /Users/jkwang/Desktop/nacl_sdk/pepper_canary/toolchain/mac_pnacl/bin/../x86_64-nacl/lib/libcrt_common.a(lib_a-__call_atexit.o)
 .debug_abbrev  0x0000000000003e01      0x19d /Users/jkwang/Desktop/nacl_sdk/pepper_canary/toolchain/mac_pnacl/bin/../x86_64-nacl/lib/libcrt_common.a(lib_a-dtoa.o)
 .debug_abbrev  0x0000000000003f9e      0x158 /Users/jkwang/Desktop/nacl_sdk/pepper_canary/toolchain/mac_pnacl/bin/../x86_64-nacl/lib/libcrt_common.a(lib_a-envlock.o)
 .debug_abbrev  0x00000000000040f6      0x165 /Users/jkwang/Desktop/nacl_sdk/pepper_canary/toolchain/mac_pnacl/bin/../x86_64-nacl/lib/libcrt_common.a(lib_a-fclose.o)
 .debug_abbrev  0x000000000000425b      0x177 /Users/jkwang/Desktop/nacl_sdk/pepper_canary/toolchain/mac_pnacl/bin/../x86_64-nacl/lib/libcrt_common.a(lib_a-fvwrite.o)
 .debug_abbrev  0x00000000000043d2      0x233 /Users/jkwang/Desktop/nacl_sdk/pepper_canary/toolchain/mac_pnacl/bin/../x86_64-nacl/lib/libcrt_common.a(lib_a-locale.o)
 .debug_abbrev  0x0000000000004605      0x169 /Users/jkwang/Desktop/nacl_sdk/pepper_canary/toolchain/mac_pnacl/bin/../x86_64-nacl/lib/libcrt_common.a(lib_a-makebuf.o)
 .debug_abbrev  0x000000000000476e      0x20e /Users/jkwang/Desktop/nacl_sdk/pepper_canary/toolchain/mac_pnacl/bin/../x86_64-nacl/lib/libcrt_common.a(lib_a-mbtowc_r.o)
 .debug_abbrev  0x000000000000497c       0x9b /Users/jkwang/Desktop/nacl_sdk/pepper_canary/toolchain/mac_pnacl/bin/../x86_64-nacl/lib/libcrt_common.a(lib_a-memchr.o)
 .debug_abbrev  0x0000000000004a17       0x7f /Users/jkwang/Desktop/nacl_sdk/pepper_canary/toolchain/mac_pnacl/bin/../x86_64-nacl/lib/libcrt_common.a(lib_a-memmove.o)
 .debug_abbrev  0x0000000000004a96      0x2cf /Users/jkwang/Desktop/nacl_sdk/pepper_canary/toolchain/mac_pnacl/bin/../x86_64-nacl/lib/libcrt_common.a(lib_a-mprec.o)
 .debug_abbrev  0x0000000000004d65       0xb1 /Users/jkwang/Desktop/nacl_sdk/pepper_canary/toolchain/mac_pnacl/bin/../x86_64-nacl/lib/libcrt_common.a(lib_a-s_fpclassify.o)
 .debug_abbrev  0x0000000000004e16       0xcc /Users/jkwang/Desktop/nacl_sdk/pepper_canary/toolchain/mac_pnacl/bin/../x86_64-nacl/lib/libcrt_common.a(lib_a-s_frexp.o)
 .debug_abbrev  0x0000000000004ee2       0x85 /Users/jkwang/Desktop/nacl_sdk/pepper_canary/toolchain/mac_pnacl/bin/../x86_64-nacl/lib/libcrt_common.a(lib_a-strcasecmp.o)
 .debug_abbrev  0x0000000000004f67       0x77 /Users/jkwang/Desktop/nacl_sdk/pepper_canary/toolchain/mac_pnacl/bin/../x86_64-nacl/lib/libcrt_common.a(lib_a-strchr.o)
 .debug_abbrev  0x0000000000004fde       0x75 /Users/jkwang/Desktop/nacl_sdk/pepper_canary/toolchain/mac_pnacl/bin/../x86_64-nacl/lib/libcrt_common.a(lib_a-strlcpy.o)
 .debug_abbrev  0x0000000000005053       0xa1 /Users/jkwang/Desktop/nacl_sdk/pepper_canary/toolchain/mac_pnacl/bin/../x86_64-nacl/lib/libcrt_common.a(lib_a-strncasecmp.o)
 .debug_abbrev  0x00000000000050f4       0x8b /Users/jkwang/Desktop/nacl_sdk/pepper_canary/toolchain/mac_pnacl/bin/../x86_64-nacl/lib/libcrt_common.a(lib_a-strncpy.o)
 .debug_abbrev  0x000000000000517f      0x170 /Users/jkwang/Desktop/nacl_sdk/pepper_canary/toolchain/mac_pnacl/bin/../x86_64-nacl/lib/libcrt_common.a(lib_a-strtol.o)
 .debug_abbrev  0x00000000000052ef      0x241 /Users/jkwang/Desktop/nacl_sdk/pepper_canary/toolchain/mac_pnacl/bin/../x86_64-nacl/lib/libcrt_common.a(lib_a-svfprintf.o)
 .debug_abbrev  0x0000000000005530      0x234 /Users/jkwang/Desktop/nacl_sdk/pepper_canary/toolchain/mac_pnacl/bin/../x86_64-nacl/lib/libcrt_common.a(lib_a-vfiprintf.o)
 .debug_abbrev  0x0000000000005764      0x179 /Users/jkwang/Desktop/nacl_sdk/pepper_canary/toolchain/mac_pnacl/bin/../x86_64-nacl/lib/libcrt_common.a(lib_a-wcsnrtombs.o)
 .debug_abbrev  0x00000000000058dd       0x92 /Users/jkwang/Desktop/nacl_sdk/pepper_canary/toolchain/mac_pnacl/bin/../x86_64-nacl/lib/libcrt_common.a(lib_a-ctype_.o)
 .debug_abbrev  0x000000000000596f      0x1bb /Users/jkwang/Desktop/nacl_sdk/pepper_canary/toolchain/mac_pnacl/bin/../x86_64-nacl/lib/libcrt_common.a(lib_a-fputwc.o)
 .debug_abbrev  0x0000000000005b2a      0x1b2 /Users/jkwang/Desktop/nacl_sdk/pepper_canary/toolchain/mac_pnacl/bin/../x86_64-nacl/lib/libcrt_common.a(lib_a-svfiprintf.o)
 .debug_abbrev  0x0000000000005cdc      0x165 /Users/jkwang/Desktop/nacl_sdk/pepper_canary/toolchain/mac_pnacl/bin/../x86_64-nacl/lib/libcrt_common.a(lib_a-wbuf.o)
 .debug_abbrev  0x0000000000005e41       0x5d /Users/jkwang/Desktop/nacl_sdk/pepper_canary/toolchain/mac_pnacl/bin/../x86_64-nacl/lib/libnacl.a(close.o)
 .debug_abbrev  0x0000000000005e9e       0x8d /Users/jkwang/Desktop/nacl_sdk/pepper_canary/toolchain/mac_pnacl/bin/../x86_64-nacl/lib/libnacl.a(fstat.o)
 .debug_abbrev  0x0000000000005f2b       0x5d /Users/jkwang/Desktop/nacl_sdk/pepper_canary/toolchain/mac_pnacl/bin/../x86_64-nacl/lib/libnacl.a(isatty.o)
 .debug_abbrev  0x0000000000005f88       0x6a /Users/jkwang/Desktop/nacl_sdk/pepper_canary/toolchain/mac_pnacl/bin/../x86_64-nacl/lib/libnacl.a(lseek.o)
 .debug_abbrev  0x0000000000005ff2       0x94 /Users/jkwang/Desktop/nacl_sdk/pepper_canary/toolchain/mac_pnacl/bin/../x86_64-nacl/lib/libnacl.a(nanosleep.o)
 .debug_abbrev  0x0000000000006086       0x32 /Users/jkwang/Desktop/nacl_sdk/pepper_canary/toolchain/mac_pnacl/bin/../x86_64-nacl/lib/libnacl.a(nacl_irt_fdio.o)
 .debug_abbrev  0x00000000000060b8       0x6f /Users/jkwang/Desktop/nacl_sdk/pepper_canary/toolchain/mac_pnacl/bin/../x86_64-nacl/lib/libnacl.a(read.o)
 .debug_abbrev  0x0000000000006127      0x470 /Users/jkwang/Desktop/nacl_sdk/pepper_canary/toolchain/mac_pnacl/bin/../lib/clang/3.7.0/lib/x86_64-nacl/libgcc_eh.a(unwind-dw2-fde-glibc.o)

.debug_line     0x0000000000000000    0x16514
 *(.debug_line .debug_line.* .debug_line_end)
 .debug_line    0x0000000000000000      0x45e clang-newlib/Release/debugging_x86_64.o
 .debug_line    0x000000000000045e      0x4cc /Users/jkwang/Desktop/nacl_sdk/pepper_canary/lib/clang-newlib_x86_64/Release/liberror_handling.a(error_handling_x86_64.o)
 .debug_line    0x000000000000092a      0x173 /Users/jkwang/Desktop/nacl_sdk/pepper_canary/lib/clang-newlib_x86_64/Release/liberror_handling.a(string_stream_x86_64.o)
 .debug_line    0x0000000000000a9d      0xbc9 /Users/jkwang/Desktop/nacl_sdk/pepper_canary/toolchain/mac_pnacl/bin/../x86_64-nacl/lib/libpthread.a(nc_thread.o)
 .debug_line    0x0000000000001666      0x43e /Users/jkwang/Desktop/nacl_sdk/pepper_canary/toolchain/mac_pnacl/bin/../x86_64-nacl/lib/libpthread.a(nc_mutex.o)
 .debug_line    0x0000000000001aa4      0x372 /Users/jkwang/Desktop/nacl_sdk/pepper_canary/toolchain/mac_pnacl/bin/../x86_64-nacl/lib/libpthread.a(nc_condvar.o)
 .debug_line    0x0000000000001e16      0x1a7 /Users/jkwang/Desktop/nacl_sdk/pepper_canary/toolchain/mac_pnacl/bin/../x86_64-nacl/lib/libpthread.a(valgrind_annotations.o)
 .debug_line    0x0000000000001fbd      0x165 /Users/jkwang/Desktop/nacl_sdk/pepper_canary/toolchain/mac_pnacl/bin/../x86_64-nacl/lib/libpthread.a(nc_init_irt.o)
 .debug_line    0x0000000000002122      0x413 /Users/jkwang/Desktop/nacl_sdk/pepper_canary/toolchain/mac_pnacl/bin/../x86_64-nacl/lib/libnacl.a(nacl_irt.o)
 .debug_line    0x0000000000002535       0x50 /Users/jkwang/Desktop/nacl_sdk/pepper_canary/toolchain/mac_pnacl/bin/../x86_64-nacl/lib/libnacl.a(_exit.o)
 .debug_line    0x0000000000002585      0x24f /Users/jkwang/Desktop/nacl_sdk/pepper_canary/toolchain/mac_pnacl/bin/../x86_64-nacl/lib/libnacl.a(mmap.o)
 .debug_line    0x00000000000027d4       0xfc /Users/jkwang/Desktop/nacl_sdk/pepper_canary/toolchain/mac_pnacl/bin/../x86_64-nacl/lib/libnacl.a(munmap.o)
 .debug_line    0x00000000000028d0      0x105 /Users/jkwang/Desktop/nacl_sdk/pepper_canary/toolchain/mac_pnacl/bin/../x86_64-nacl/lib/libnacl.a(nacl_interface_query.o)
 .debug_line    0x00000000000029d5      0x101 /Users/jkwang/Desktop/nacl_sdk/pepper_canary/toolchain/mac_pnacl/bin/../x86_64-nacl/lib/libnacl.a(write.o)
 .debug_line    0x0000000000002ad6       0x43 /Users/jkwang/Desktop/nacl_sdk/pepper_canary/toolchain/mac_pnacl/bin/../x86_64-nacl/lib/libnacl.a(environ.o)
 .debug_line    0x0000000000002b19     0x2788 /Users/jkwang/Desktop/nacl_sdk/pepper_canary/toolchain/mac_pnacl/bin/../x86_64-nacl/lib/libnacl.a(malloc.o)
 .debug_line    0x00000000000052a1      0x278 /Users/jkwang/Desktop/nacl_sdk/pepper_canary/toolchain/mac_pnacl/bin/../x86_64-nacl/lib/libnacl.a(start.o)
 .debug_line    0x0000000000005519       0xf8 /Users/jkwang/Desktop/nacl_sdk/pepper_canary/toolchain/mac_pnacl/bin/../x86_64-nacl/lib/libnacl.a(nacl_add_tp.o)
 .debug_line    0x0000000000005611       0x55 /Users/jkwang/Desktop/nacl_sdk/pepper_canary/toolchain/mac_pnacl/bin/../x86_64-nacl/lib/libnacl.a(nacl_read_tp.o)
 .debug_line    0x0000000000005666      0x116 /Users/jkwang/Desktop/nacl_sdk/pepper_canary/toolchain/mac_pnacl/bin/../x86_64-nacl/lib/libnacl.a(pthread_initialize_minimal.o)
 .debug_line    0x000000000000577c      0x486 /Users/jkwang/Desktop/nacl_sdk/pepper_canary/toolchain/mac_pnacl/bin/../x86_64-nacl/lib/libnacl.a(tls.o)
 .debug_line    0x0000000000005c02      0x33d /Users/jkwang/Desktop/nacl_sdk/pepper_canary/toolchain/mac_pnacl/bin/../x86_64-nacl/lib/libnacl.a(nacl_irt_init.o)
 .debug_line    0x0000000000005f3f       0x55 /Users/jkwang/Desktop/nacl_sdk/pepper_canary/toolchain/mac_pnacl/bin/../x86_64-nacl/lib/libnacl.a(nacl_tls_get.o)
 .debug_line    0x0000000000005f94       0x56 /Users/jkwang/Desktop/nacl_sdk/pepper_canary/toolchain/mac_pnacl/bin/../x86_64-nacl/lib/libnacl.a(nacl_tls_init.o)
 .debug_line    0x0000000000005fea       0x50 /Users/jkwang/Desktop/nacl_sdk/pepper_canary/toolchain/mac_pnacl/bin/../x86_64-nacl/lib/libnacl.a(abort.o)
 .debug_line    0x000000000000603a       0x65 /Users/jkwang/Desktop/nacl_sdk/pepper_canary/toolchain/mac_pnacl/bin/../x86_64-nacl/lib/libnacl.a(sched_yield.o)
 .debug_line    0x000000000000609f       0x67 /Users/jkwang/Desktop/nacl_sdk/pepper_canary/toolchain/mac_pnacl/bin/../x86_64-nacl/lib/libnacl.a(sysconf.o)
 .debug_line    0x0000000000006106       0x83 /Users/jkwang/Desktop/nacl_sdk/pepper_canary/toolchain/mac_pnacl/bin/../x86_64-nacl/lib/libcrt_common.a(lib_a-atexit.o)
 .debug_line    0x0000000000006189       0x76 /Users/jkwang/Desktop/nacl_sdk/pepper_canary/toolchain/mac_pnacl/bin/../x86_64-nacl/lib/libcrt_common.a(lib_a-errno.o)
 .debug_line    0x00000000000061ff       0x84 /Users/jkwang/Desktop/nacl_sdk/pepper_canary/toolchain/mac_pnacl/bin/../x86_64-nacl/lib/libcrt_common.a(lib_a-exit.o)
 .debug_line    0x0000000000006283      0x4ff /Users/jkwang/Desktop/nacl_sdk/pepper_canary/toolchain/mac_pnacl/bin/../x86_64-nacl/lib/libcrt_common.a(lib_a-fflush.o)
 .debug_line    0x0000000000006782      0x678 /Users/jkwang/Desktop/nacl_sdk/pepper_canary/toolchain/mac_pnacl/bin/../x86_64-nacl/lib/libcrt_common.a(lib_a-findfp.o)
 .debug_line    0x0000000000006dfa      0x125 /Users/jkwang/Desktop/nacl_sdk/pepper_canary/toolchain/mac_pnacl/bin/../x86_64-nacl/lib/libcrt_common.a(lib_a-fini.o)
 .debug_line    0x0000000000006f1f      0x38a /Users/jkwang/Desktop/nacl_sdk/pepper_canary/toolchain/mac_pnacl/bin/../x86_64-nacl/lib/libcrt_common.a(lib_a-fprintf.o)
 .debug_line    0x00000000000072a9      0x422 /Users/jkwang/Desktop/nacl_sdk/pepper_canary/toolchain/mac_pnacl/bin/../x86_64-nacl/lib/libcrt_common.a(lib_a-fwalk.o)
 .debug_line    0x00000000000076cb      0x3f6 /Users/jkwang/Desktop/nacl_sdk/pepper_canary/toolchain/mac_pnacl/bin/../x86_64-nacl/lib/libcrt_common.a(lib_a-fwrite.o)
 .debug_line    0x0000000000007ac1       0x9a /Users/jkwang/Desktop/nacl_sdk/pepper_canary/toolchain/mac_pnacl/bin/../x86_64-nacl/lib/libcrt_common.a(lib_a-getenv.o)
 .debug_line    0x0000000000007b5b      0x362 /Users/jkwang/Desktop/nacl_sdk/pepper_canary/toolchain/mac_pnacl/bin/../x86_64-nacl/lib/libcrt_common.a(lib_a-getenv_r.o)
 .debug_line    0x0000000000007ebd      0x2ee /Users/jkwang/Desktop/nacl_sdk/pepper_canary/toolchain/mac_pnacl/bin/../x86_64-nacl/lib/libcrt_common.a(lib_a-impure.o)
 .debug_line    0x00000000000081ab      0x142 /Users/jkwang/Desktop/nacl_sdk/pepper_canary/toolchain/mac_pnacl/bin/../x86_64-nacl/lib/libcrt_common.a(lib_a-init.o)
 .debug_line    0x00000000000082ed       0xf8 /Users/jkwang/Desktop/nacl_sdk/pepper_canary/toolchain/mac_pnacl/bin/../x86_64-nacl/lib/libcrt_common.a(lib_a-memcpy.o)
 .debug_line    0x00000000000083e5       0xda /Users/jkwang/Desktop/nacl_sdk/pepper_canary/toolchain/mac_pnacl/bin/../x86_64-nacl/lib/libcrt_common.a(lib_a-memset.o)
 .debug_line    0x00000000000084bf      0x1b5 /Users/jkwang/Desktop/nacl_sdk/pepper_canary/toolchain/mac_pnacl/bin/../x86_64-nacl/lib/libcrt_common.a(lib_a-sleep.o)
 .debug_line    0x0000000000008674      0x3ec /Users/jkwang/Desktop/nacl_sdk/pepper_canary/toolchain/mac_pnacl/bin/../x86_64-nacl/lib/libcrt_common.a(lib_a-stdio.o)
 .debug_line    0x0000000000008a60       0x92 /Users/jkwang/Desktop/nacl_sdk/pepper_canary/toolchain/mac_pnacl/bin/../x86_64-nacl/lib/libcrt_common.a(lib_a-strcat.o)
 .debug_line    0x0000000000008af2       0xcd /Users/jkwang/Desktop/nacl_sdk/pepper_canary/toolchain/mac_pnacl/bin/../x86_64-nacl/lib/libcrt_common.a(lib_a-strcmp.o)
 .debug_line    0x0000000000008bbf       0xca /Users/jkwang/Desktop/nacl_sdk/pepper_canary/toolchain/mac_pnacl/bin/../x86_64-nacl/lib/libcrt_common.a(lib_a-strcpy.o)
 .debug_line    0x0000000000008c89      0x14f /Users/jkwang/Desktop/nacl_sdk/pepper_canary/toolchain/mac_pnacl/bin/../x86_64-nacl/lib/libcrt_common.a(lib_a-strlen.o)
 .debug_line    0x0000000000008dd8      0x1b6 /Users/jkwang/Desktop/nacl_sdk/pepper_canary/toolchain/mac_pnacl/bin/../x86_64-nacl/lib/libcrt_common.a(lib_a-strncmp.o)
 .debug_line    0x0000000000008f8e     0x1725 /Users/jkwang/Desktop/nacl_sdk/pepper_canary/toolchain/mac_pnacl/bin/../x86_64-nacl/lib/libcrt_common.a(lib_a-vfprintf.o)
 .debug_line    0x000000000000a6b3      0x3ed /Users/jkwang/Desktop/nacl_sdk/pepper_canary/toolchain/mac_pnacl/bin/../x86_64-nacl/lib/libcrt_common.a(lib_a-vsnprintf.o)
 .debug_line    0x000000000000aaa0      0x3b1 /Users/jkwang/Desktop/nacl_sdk/pepper_canary/toolchain/mac_pnacl/bin/../x86_64-nacl/lib/libcrt_common.a(lib_a-vsprintf.o)
 .debug_line    0x000000000000ae51      0x3ca /Users/jkwang/Desktop/nacl_sdk/pepper_canary/toolchain/mac_pnacl/bin/../x86_64-nacl/lib/libcrt_common.a(lib_a-wcrtomb.o)
 .debug_line    0x000000000000b21b      0x37c /Users/jkwang/Desktop/nacl_sdk/pepper_canary/toolchain/mac_pnacl/bin/../x86_64-nacl/lib/libcrt_common.a(lib_a-wcsrtombs.o)
 .debug_line    0x000000000000b597      0x59a /Users/jkwang/Desktop/nacl_sdk/pepper_canary/toolchain/mac_pnacl/bin/../x86_64-nacl/lib/libcrt_common.a(lib_a-wctomb_r.o)
 .debug_line    0x000000000000bb31      0x3ec /Users/jkwang/Desktop/nacl_sdk/pepper_canary/toolchain/mac_pnacl/bin/../x86_64-nacl/lib/libcrt_common.a(lib_a-wsetup.o)
 .debug_line    0x000000000000bf1d      0x185 /Users/jkwang/Desktop/nacl_sdk/pepper_canary/toolchain/mac_pnacl/bin/../x86_64-nacl/lib/libcrt_common.a(lib_a-__atexit.o)
 .debug_line    0x000000000000c0a2      0x191 /Users/jkwang/Desktop/nacl_sdk/pepper_canary/toolchain/mac_pnacl/bin/../x86_64-nacl/lib/libcrt_common.a(lib_a-__call_atexit.o)
 .debug_line    0x000000000000c233      0xaaf /Users/jkwang/Desktop/nacl_sdk/pepper_canary/toolchain/mac_pnacl/bin/../x86_64-nacl/lib/libcrt_common.a(lib_a-dtoa.o)
 .debug_line    0x000000000000cce2      0x2eb /Users/jkwang/Desktop/nacl_sdk/pepper_canary/toolchain/mac_pnacl/bin/../x86_64-nacl/lib/libcrt_common.a(lib_a-envlock.o)
 .debug_line    0x000000000000cfcd      0x40c /Users/jkwang/Desktop/nacl_sdk/pepper_canary/toolchain/mac_pnacl/bin/../x86_64-nacl/lib/libcrt_common.a(lib_a-fclose.o)
 .debug_line    0x000000000000d3d9      0x543 /Users/jkwang/Desktop/nacl_sdk/pepper_canary/toolchain/mac_pnacl/bin/../x86_64-nacl/lib/libcrt_common.a(lib_a-fvwrite.o)
 .debug_line    0x000000000000d91c      0x8f6 /Users/jkwang/Desktop/nacl_sdk/pepper_canary/toolchain/mac_pnacl/bin/../x86_64-nacl/lib/libcrt_common.a(lib_a-locale.o)
 .debug_line    0x000000000000e212      0x4a2 /Users/jkwang/Desktop/nacl_sdk/pepper_canary/toolchain/mac_pnacl/bin/../x86_64-nacl/lib/libcrt_common.a(lib_a-makebuf.o)
 .debug_line    0x000000000000e6b4      0x718 /Users/jkwang/Desktop/nacl_sdk/pepper_canary/toolchain/mac_pnacl/bin/../x86_64-nacl/lib/libcrt_common.a(lib_a-mbtowc_r.o)
 .debug_line    0x000000000000edcc      0x184 /Users/jkwang/Desktop/nacl_sdk/pepper_canary/toolchain/mac_pnacl/bin/../x86_64-nacl/lib/libcrt_common.a(lib_a-memchr.o)
 .debug_line    0x000000000000ef50      0x327 /Users/jkwang/Desktop/nacl_sdk/pepper_canary/toolchain/mac_pnacl/bin/../x86_64-nacl/lib/libcrt_common.a(lib_a-memmove.o)
 .debug_line    0x000000000000f277     0x10be /Users/jkwang/Desktop/nacl_sdk/pepper_canary/toolchain/mac_pnacl/bin/../x86_64-nacl/lib/libcrt_common.a(lib_a-mprec.o)
 .debug_line    0x0000000000010335      0x131 /Users/jkwang/Desktop/nacl_sdk/pepper_canary/toolchain/mac_pnacl/bin/../x86_64-nacl/lib/libcrt_common.a(lib_a-s_fpclassify.o)
 .debug_line    0x0000000000010466      0x18d /Users/jkwang/Desktop/nacl_sdk/pepper_canary/toolchain/mac_pnacl/bin/../x86_64-nacl/lib/libcrt_common.a(lib_a-s_frexp.o)
 .debug_line    0x00000000000105f3       0x9d /Users/jkwang/Desktop/nacl_sdk/pepper_canary/toolchain/mac_pnacl/bin/../x86_64-nacl/lib/libcrt_common.a(lib_a-strcasecmp.o)
 .debug_line    0x0000000000010690      0x120 /Users/jkwang/Desktop/nacl_sdk/pepper_canary/toolchain/mac_pnacl/bin/../x86_64-nacl/lib/libcrt_common.a(lib_a-strchr.o)
 .debug_line    0x00000000000107b0      0x156 /Users/jkwang/Desktop/nacl_sdk/pepper_canary/toolchain/mac_pnacl/bin/../x86_64-nacl/lib/libcrt_common.a(lib_a-strlcpy.o)
 .debug_line    0x0000000000010906      0x14e /Users/jkwang/Desktop/nacl_sdk/pepper_canary/toolchain/mac_pnacl/bin/../x86_64-nacl/lib/libcrt_common.a(lib_a-strncasecmp.o)
 .debug_line    0x0000000000010a54      0x18b /Users/jkwang/Desktop/nacl_sdk/pepper_canary/toolchain/mac_pnacl/bin/../x86_64-nacl/lib/libcrt_common.a(lib_a-strncpy.o)
 .debug_line    0x0000000000010bdf      0x399 /Users/jkwang/Desktop/nacl_sdk/pepper_canary/toolchain/mac_pnacl/bin/../x86_64-nacl/lib/libcrt_common.a(lib_a-strtol.o)
 .debug_line    0x0000000000010f78     0x15fd /Users/jkwang/Desktop/nacl_sdk/pepper_canary/toolchain/mac_pnacl/bin/../x86_64-nacl/lib/libcrt_common.a(lib_a-svfprintf.o)
 .debug_line    0x0000000000012575     0x14f1 /Users/jkwang/Desktop/nacl_sdk/pepper_canary/toolchain/mac_pnacl/bin/../x86_64-nacl/lib/libcrt_common.a(lib_a-vfiprintf.o)
 .debug_line    0x0000000000013a66      0x44b /Users/jkwang/Desktop/nacl_sdk/pepper_canary/toolchain/mac_pnacl/bin/../x86_64-nacl/lib/libcrt_common.a(lib_a-wcsnrtombs.o)
 .debug_line    0x0000000000013eb1       0x77 /Users/jkwang/Desktop/nacl_sdk/pepper_canary/toolchain/mac_pnacl/bin/../x86_64-nacl/lib/libcrt_common.a(lib_a-ctype_.o)
 .debug_line    0x0000000000013f28      0x424 /Users/jkwang/Desktop/nacl_sdk/pepper_canary/toolchain/mac_pnacl/bin/../x86_64-nacl/lib/libcrt_common.a(lib_a-fputwc.o)
 .debug_line    0x000000000001434c      0xf15 /Users/jkwang/Desktop/nacl_sdk/pepper_canary/toolchain/mac_pnacl/bin/../x86_64-nacl/lib/libcrt_common.a(lib_a-svfiprintf.o)
 .debug_line    0x0000000000015261      0x3fc /Users/jkwang/Desktop/nacl_sdk/pepper_canary/toolchain/mac_pnacl/bin/../x86_64-nacl/lib/libcrt_common.a(lib_a-wbuf.o)
 .debug_line    0x000000000001565d       0x5f /Users/jkwang/Desktop/nacl_sdk/pepper_canary/toolchain/mac_pnacl/bin/../x86_64-nacl/lib/libnacl.a(close.o)
 .debug_line    0x00000000000156bc      0x2e1 /Users/jkwang/Desktop/nacl_sdk/pepper_canary/toolchain/mac_pnacl/bin/../x86_64-nacl/lib/libnacl.a(fstat.o)
 .debug_line    0x000000000001599d       0x6a /Users/jkwang/Desktop/nacl_sdk/pepper_canary/toolchain/mac_pnacl/bin/../x86_64-nacl/lib/libnacl.a(isatty.o)
 .debug_line    0x0000000000015a07      0x1b6 /Users/jkwang/Desktop/nacl_sdk/pepper_canary/toolchain/mac_pnacl/bin/../x86_64-nacl/lib/libnacl.a(lseek.o)
 .debug_line    0x0000000000015bbd      0x117 /Users/jkwang/Desktop/nacl_sdk/pepper_canary/toolchain/mac_pnacl/bin/../x86_64-nacl/lib/libnacl.a(nanosleep.o)
 .debug_line    0x0000000000015cd4       0x69 /Users/jkwang/Desktop/nacl_sdk/pepper_canary/toolchain/mac_pnacl/bin/../x86_64-nacl/lib/libnacl.a(nacl_irt_fdio.o)
 .debug_line    0x0000000000015d3d      0x100 /Users/jkwang/Desktop/nacl_sdk/pepper_canary/toolchain/mac_pnacl/bin/../x86_64-nacl/lib/libnacl.a(read.o)
 .debug_line    0x0000000000015e3d      0x6d7 /Users/jkwang/Desktop/nacl_sdk/pepper_canary/toolchain/mac_pnacl/bin/../lib/clang/3.7.0/lib/x86_64-nacl/libgcc_eh.a(unwind-dw2-fde-glibc.o)

.debug_frame
 *(.debug_frame)

.debug_str      0x0000000000000000     0x5bec
 *(.debug_str)
 .debug_str     0x0000000000000000      0xa0a clang-newlib/Release/debugging_x86_64.o
                                        0xb1a (size before relaxing)
 .debug_str     0x0000000000000a0a      0x3e6 /Users/jkwang/Desktop/nacl_sdk/pepper_canary/lib/clang-newlib_x86_64/Release/liberror_handling.a(error_handling_x86_64.o)
                                        0x573 (size before relaxing)
 .debug_str     0x0000000000000df0       0x9a /Users/jkwang/Desktop/nacl_sdk/pepper_canary/lib/clang-newlib_x86_64/Release/liberror_handling.a(string_stream_x86_64.o)
                                        0x21b (size before relaxing)
 .debug_str     0x0000000000000e8a      0x942 /Users/jkwang/Desktop/nacl_sdk/pepper_canary/toolchain/mac_pnacl/bin/../x86_64-nacl/lib/libpthread.a(nc_thread.o)
                                        0xb8f (size before relaxing)
 .debug_str     0x00000000000017cc      0x22b /Users/jkwang/Desktop/nacl_sdk/pepper_canary/toolchain/mac_pnacl/bin/../x86_64-nacl/lib/libpthread.a(nc_mutex.o)
                                        0x673 (size before relaxing)
 .debug_str     0x00000000000019f7      0x18c /Users/jkwang/Desktop/nacl_sdk/pepper_canary/toolchain/mac_pnacl/bin/../x86_64-nacl/lib/libpthread.a(nc_condvar.o)
                                        0x53b (size before relaxing)
 .debug_str     0x0000000000001b83      0x4aa /Users/jkwang/Desktop/nacl_sdk/pepper_canary/toolchain/mac_pnacl/bin/../x86_64-nacl/lib/libpthread.a(valgrind_annotations.o)
                                        0x634 (size before relaxing)
 .debug_str     0x000000000000202d       0x6d /Users/jkwang/Desktop/nacl_sdk/pepper_canary/toolchain/mac_pnacl/bin/../x86_64-nacl/lib/libpthread.a(nc_init_irt.o)
                                        0x1f1 (size before relaxing)
 .debug_str     0x000000000000209a      0x341 /Users/jkwang/Desktop/nacl_sdk/pepper_canary/toolchain/mac_pnacl/bin/../x86_64-nacl/lib/libnacl.a(nacl_irt.o)
                                        0x642 (size before relaxing)
 .debug_str     0x00000000000023db       0x1b /Users/jkwang/Desktop/nacl_sdk/pepper_canary/toolchain/mac_pnacl/bin/../x86_64-nacl/lib/libnacl.a(_exit.o)
                                        0x154 (size before relaxing)
 .debug_str     0x00000000000023f6       0x2a /Users/jkwang/Desktop/nacl_sdk/pepper_canary/toolchain/mac_pnacl/bin/../x86_64-nacl/lib/libnacl.a(mmap.o)
                                        0x1ae (size before relaxing)
 .debug_str     0x0000000000002420       0x1c /Users/jkwang/Desktop/nacl_sdk/pepper_canary/toolchain/mac_pnacl/bin/../x86_64-nacl/lib/libnacl.a(munmap.o)
                                        0x176 (size before relaxing)
 .debug_str     0x000000000000243c       0x59 /Users/jkwang/Desktop/nacl_sdk/pepper_canary/toolchain/mac_pnacl/bin/../x86_64-nacl/lib/libnacl.a(nacl_interface_query.o)
                                        0x1a0 (size before relaxing)
 .debug_str     0x0000000000002495       0x1b /Users/jkwang/Desktop/nacl_sdk/pepper_canary/toolchain/mac_pnacl/bin/../x86_64-nacl/lib/libnacl.a(write.o)
                                        0x17d (size before relaxing)
 .debug_str     0x00000000000024b0       0x29 /Users/jkwang/Desktop/nacl_sdk/pepper_canary/toolchain/mac_pnacl/bin/../x86_64-nacl/lib/libnacl.a(environ.o)
                                        0x167 (size before relaxing)
 .debug_str     0x00000000000024d9      0xaa5 /Users/jkwang/Desktop/nacl_sdk/pepper_canary/toolchain/mac_pnacl/bin/../x86_64-nacl/lib/libnacl.a(malloc.o)
                                        0xe84 (size before relaxing)
 .debug_str     0x0000000000002f7e      0x157 /Users/jkwang/Desktop/nacl_sdk/pepper_canary/toolchain/mac_pnacl/bin/../x86_64-nacl/lib/libnacl.a(start.o)
                                        0x2ce (size before relaxing)
 .debug_str     0x00000000000030d5       0x2f /Users/jkwang/Desktop/nacl_sdk/pepper_canary/toolchain/mac_pnacl/bin/../x86_64-nacl/lib/libnacl.a(nacl_add_tp.o)
                                        0x16e (size before relaxing)
 .debug_str     0x0000000000003104       0x31 /Users/jkwang/Desktop/nacl_sdk/pepper_canary/toolchain/mac_pnacl/bin/../x86_64-nacl/lib/libnacl.a(nacl_read_tp.o)
                                        0x159 (size before relaxing)
 .debug_str     0x0000000000003135       0x4d /Users/jkwang/Desktop/nacl_sdk/pepper_canary/toolchain/mac_pnacl/bin/../x86_64-nacl/lib/libnacl.a(pthread_initialize_minimal.o)
                                        0x1b1 (size before relaxing)
 .debug_str     0x0000000000003182      0x1d0 /Users/jkwang/Desktop/nacl_sdk/pepper_canary/toolchain/mac_pnacl/bin/../x86_64-nacl/lib/libnacl.a(tls.o)
                                        0x3f3 (size before relaxing)
 .debug_str     0x0000000000003352       0x85 /Users/jkwang/Desktop/nacl_sdk/pepper_canary/toolchain/mac_pnacl/bin/../x86_64-nacl/lib/libnacl.a(nacl_irt_init.o)
                                        0x273 (size before relaxing)
 .debug_str     0x00000000000033d7       0x2f /Users/jkwang/Desktop/nacl_sdk/pepper_canary/toolchain/mac_pnacl/bin/../x86_64-nacl/lib/libnacl.a(nacl_tls_get.o)
                                        0x157 (size before relaxing)
 .debug_str     0x0000000000003406       0x3c /Users/jkwang/Desktop/nacl_sdk/pepper_canary/toolchain/mac_pnacl/bin/../x86_64-nacl/lib/libnacl.a(nacl_tls_init.o)
                                        0x168 (size before relaxing)
 .debug_str     0x0000000000003442       0x21 /Users/jkwang/Desktop/nacl_sdk/pepper_canary/toolchain/mac_pnacl/bin/../x86_64-nacl/lib/libnacl.a(abort.o)
                                        0x15f (size before relaxing)
 .debug_str     0x0000000000003463       0x21 /Users/jkwang/Desktop/nacl_sdk/pepper_canary/toolchain/mac_pnacl/bin/../x86_64-nacl/lib/libnacl.a(sched_yield.o)
                                        0x15f (size before relaxing)
 .debug_str     0x0000000000003484       0x1d /Users/jkwang/Desktop/nacl_sdk/pepper_canary/toolchain/mac_pnacl/bin/../x86_64-nacl/lib/libnacl.a(sysconf.o)
                                        0x16b (size before relaxing)
 .debug_str     0x00000000000034a1       0xf0 /Users/jkwang/Desktop/nacl_sdk/pepper_canary/toolchain/mac_pnacl/bin/../x86_64-nacl/lib/libcrt_common.a(lib_a-atexit.o)
                                        0x1eb (size before relaxing)
 .debug_str     0x0000000000003591       0xc5 /Users/jkwang/Desktop/nacl_sdk/pepper_canary/toolchain/mac_pnacl/bin/../x86_64-nacl/lib/libcrt_common.a(lib_a-errno.o)
                                        0x1b6 (size before relaxing)
 .debug_str     0x0000000000003656       0x42 /Users/jkwang/Desktop/nacl_sdk/pepper_canary/toolchain/mac_pnacl/bin/../x86_64-nacl/lib/libcrt_common.a(lib_a-exit.o)
                                        0x1b9 (size before relaxing)
 .debug_str     0x0000000000003698       0xff /Users/jkwang/Desktop/nacl_sdk/pepper_canary/toolchain/mac_pnacl/bin/../x86_64-nacl/lib/libcrt_common.a(lib_a-fflush.o)
                                        0x6d3 (size before relaxing)
 .debug_str     0x0000000000003797      0x113 /Users/jkwang/Desktop/nacl_sdk/pepper_canary/toolchain/mac_pnacl/bin/../x86_64-nacl/lib/libcrt_common.a(lib_a-findfp.o)
                                        0x78a (size before relaxing)
 .debug_str     0x00000000000038aa       0xcc /Users/jkwang/Desktop/nacl_sdk/pepper_canary/toolchain/mac_pnacl/bin/../x86_64-nacl/lib/libcrt_common.a(lib_a-fini.o)
                                        0x1d5 (size before relaxing)
 .debug_str     0x0000000000003976       0x4e /Users/jkwang/Desktop/nacl_sdk/pepper_canary/toolchain/mac_pnacl/bin/../x86_64-nacl/lib/libcrt_common.a(lib_a-fprintf.o)
                                        0x6fa (size before relaxing)
 .debug_str     0x00000000000039c4       0x62 /Users/jkwang/Desktop/nacl_sdk/pepper_canary/toolchain/mac_pnacl/bin/../x86_64-nacl/lib/libcrt_common.a(lib_a-fwalk.o)
                                        0x6d8 (size before relaxing)
 .debug_str     0x0000000000003a26       0x8b /Users/jkwang/Desktop/nacl_sdk/pepper_canary/toolchain/mac_pnacl/bin/../x86_64-nacl/lib/libcrt_common.a(lib_a-fwrite.o)
                                        0x6fc (size before relaxing)
 .debug_str     0x0000000000003ab1       0x4f /Users/jkwang/Desktop/nacl_sdk/pepper_canary/toolchain/mac_pnacl/bin/../x86_64-nacl/lib/libcrt_common.a(lib_a-getenv.o)
                                        0x1d2 (size before relaxing)
 .debug_str     0x0000000000003b00       0x6a /Users/jkwang/Desktop/nacl_sdk/pepper_canary/toolchain/mac_pnacl/bin/../x86_64-nacl/lib/libcrt_common.a(lib_a-getenv_r.o)
                                        0x6b4 (size before relaxing)
 .debug_str     0x0000000000003b6a      0x10e /Users/jkwang/Desktop/nacl_sdk/pepper_canary/toolchain/mac_pnacl/bin/../x86_64-nacl/lib/libcrt_common.a(lib_a-impure.o)
                                        0x6db (size before relaxing)
 .debug_str     0x0000000000003c78       0x4d /Users/jkwang/Desktop/nacl_sdk/pepper_canary/toolchain/mac_pnacl/bin/../x86_64-nacl/lib/libcrt_common.a(lib_a-init.o)
                                        0x1d5 (size before relaxing)
 .debug_str     0x0000000000003cc5       0xc5 /Users/jkwang/Desktop/nacl_sdk/pepper_canary/toolchain/mac_pnacl/bin/../x86_64-nacl/lib/libcrt_common.a(lib_a-sleep.o)
                                        0x211 (size before relaxing)
 .debug_str     0x0000000000003d8a       0x73 /Users/jkwang/Desktop/nacl_sdk/pepper_canary/toolchain/mac_pnacl/bin/../x86_64-nacl/lib/libcrt_common.a(lib_a-stdio.o)
                                        0x6e6 (size before relaxing)
 .debug_str     0x0000000000003dfd       0xd2 /Users/jkwang/Desktop/nacl_sdk/pepper_canary/toolchain/mac_pnacl/bin/../x86_64-nacl/lib/libcrt_common.a(lib_a-strcat.o)
                                        0x1e7 (size before relaxing)
 .debug_str     0x0000000000003ecf       0x4c /Users/jkwang/Desktop/nacl_sdk/pepper_canary/toolchain/mac_pnacl/bin/../x86_64-nacl/lib/libcrt_common.a(lib_a-strcmp.o)
                                        0x1f2 (size before relaxing)
 .debug_str     0x0000000000003f1b       0x68 /Users/jkwang/Desktop/nacl_sdk/pepper_canary/toolchain/mac_pnacl/bin/../x86_64-nacl/lib/libcrt_common.a(lib_a-strcpy.o)
                                        0x1ec (size before relaxing)
 .debug_str     0x0000000000003f83       0x3f /Users/jkwang/Desktop/nacl_sdk/pepper_canary/toolchain/mac_pnacl/bin/../x86_64-nacl/lib/libcrt_common.a(lib_a-strlen.o)
                                        0x1ff (size before relaxing)
 .debug_str     0x0000000000003fc2       0x48 /Users/jkwang/Desktop/nacl_sdk/pepper_canary/toolchain/mac_pnacl/bin/../x86_64-nacl/lib/libcrt_common.a(lib_a-strncmp.o)
                                        0x20a (size before relaxing)
 .debug_str     0x000000000000400a      0x181 /Users/jkwang/Desktop/nacl_sdk/pepper_canary/toolchain/mac_pnacl/bin/../x86_64-nacl/lib/libcrt_common.a(lib_a-vfprintf.o)
                                        0x935 (size before relaxing)
 .debug_str     0x000000000000418b       0x58 /Users/jkwang/Desktop/nacl_sdk/pepper_canary/toolchain/mac_pnacl/bin/../x86_64-nacl/lib/libcrt_common.a(lib_a-vsnprintf.o)
                                        0x6f5 (size before relaxing)
 .debug_str     0x00000000000041e3       0x55 /Users/jkwang/Desktop/nacl_sdk/pepper_canary/toolchain/mac_pnacl/bin/../x86_64-nacl/lib/libcrt_common.a(lib_a-vsprintf.o)
                                        0x6e6 (size before relaxing)
 .debug_str     0x0000000000004238       0x53 /Users/jkwang/Desktop/nacl_sdk/pepper_canary/toolchain/mac_pnacl/bin/../x86_64-nacl/lib/libcrt_common.a(lib_a-wcrtomb.o)
                                        0x6bf (size before relaxing)
 .debug_str     0x000000000000428b       0x59 /Users/jkwang/Desktop/nacl_sdk/pepper_canary/toolchain/mac_pnacl/bin/../x86_64-nacl/lib/libcrt_common.a(lib_a-wcsrtombs.o)
                                        0x6b9 (size before relaxing)
 .debug_str     0x00000000000042e4       0xae /Users/jkwang/Desktop/nacl_sdk/pepper_canary/toolchain/mac_pnacl/bin/../x86_64-nacl/lib/libcrt_common.a(lib_a-wctomb_r.o)
                                        0x71d (size before relaxing)
 .debug_str     0x0000000000004392       0x4a /Users/jkwang/Desktop/nacl_sdk/pepper_canary/toolchain/mac_pnacl/bin/../x86_64-nacl/lib/libcrt_common.a(lib_a-wsetup.o)
                                        0x69b (size before relaxing)
 .debug_str     0x00000000000043dc       0x55 /Users/jkwang/Desktop/nacl_sdk/pepper_canary/toolchain/mac_pnacl/bin/../x86_64-nacl/lib/libcrt_common.a(lib_a-__atexit.o)
                                        0x27a (size before relaxing)
 .debug_str     0x0000000000004431       0x6b /Users/jkwang/Desktop/nacl_sdk/pepper_canary/toolchain/mac_pnacl/bin/../x86_64-nacl/lib/libcrt_common.a(lib_a-__call_atexit.o)
                                        0x2d9 (size before relaxing)
 .debug_str     0x000000000000449c       0xd6 /Users/jkwang/Desktop/nacl_sdk/pepper_canary/toolchain/mac_pnacl/bin/../x86_64-nacl/lib/libcrt_common.a(lib_a-dtoa.o)
                                        0x788 (size before relaxing)
 .debug_str     0x0000000000004572       0x6a /Users/jkwang/Desktop/nacl_sdk/pepper_canary/toolchain/mac_pnacl/bin/../x86_64-nacl/lib/libcrt_common.a(lib_a-envlock.o)
                                        0x6a4 (size before relaxing)
 .debug_str     0x00000000000045dc       0x4f /Users/jkwang/Desktop/nacl_sdk/pepper_canary/toolchain/mac_pnacl/bin/../x86_64-nacl/lib/libcrt_common.a(lib_a-fclose.o)
                                        0x6a3 (size before relaxing)
 .debug_str     0x000000000000462b       0x65 /Users/jkwang/Desktop/nacl_sdk/pepper_canary/toolchain/mac_pnacl/bin/../x86_64-nacl/lib/libcrt_common.a(lib_a-fvwrite.o)
                                        0x707 (size before relaxing)
 .debug_str     0x0000000000004690      0x34e /Users/jkwang/Desktop/nacl_sdk/pepper_canary/toolchain/mac_pnacl/bin/../x86_64-nacl/lib/libcrt_common.a(lib_a-locale.o)
                                        0x9e1 (size before relaxing)
 .debug_str     0x00000000000049de      0x12c /Users/jkwang/Desktop/nacl_sdk/pepper_canary/toolchain/mac_pnacl/bin/../x86_64-nacl/lib/libcrt_common.a(lib_a-makebuf.o)
                                        0x7fb (size before relaxing)
 .debug_str     0x0000000000004b0a      0x19e /Users/jkwang/Desktop/nacl_sdk/pepper_canary/toolchain/mac_pnacl/bin/../x86_64-nacl/lib/libcrt_common.a(lib_a-mbtowc_r.o)
                                        0x81a (size before relaxing)
 .debug_str     0x0000000000004ca8       0x59 /Users/jkwang/Desktop/nacl_sdk/pepper_canary/toolchain/mac_pnacl/bin/../x86_64-nacl/lib/libcrt_common.a(lib_a-memchr.o)
                                        0x219 (size before relaxing)
 .debug_str     0x0000000000004d01       0x51 /Users/jkwang/Desktop/nacl_sdk/pepper_canary/toolchain/mac_pnacl/bin/../x86_64-nacl/lib/libcrt_common.a(lib_a-memmove.o)
                                        0x211 (size before relaxing)
 .debug_str     0x0000000000004d52      0x166 /Users/jkwang/Desktop/nacl_sdk/pepper_canary/toolchain/mac_pnacl/bin/../x86_64-nacl/lib/libcrt_common.a(lib_a-mprec.o)
                                        0x816 (size before relaxing)
 .debug_str     0x0000000000004eb8       0xfe /Users/jkwang/Desktop/nacl_sdk/pepper_canary/toolchain/mac_pnacl/bin/../x86_64-nacl/lib/libcrt_common.a(lib_a-s_fpclassify.o)
                                        0x216 (size before relaxing)
 .debug_str     0x0000000000004fb6       0xde /Users/jkwang/Desktop/nacl_sdk/pepper_canary/toolchain/mac_pnacl/bin/../x86_64-nacl/lib/libcrt_common.a(lib_a-s_frexp.o)
                                        0x22d (size before relaxing)
 .debug_str     0x0000000000005094       0x62 /Users/jkwang/Desktop/nacl_sdk/pepper_canary/toolchain/mac_pnacl/bin/../x86_64-nacl/lib/libcrt_common.a(lib_a-strcasecmp.o)
                                        0x1ef (size before relaxing)
 .debug_str     0x00000000000050f6       0x46 /Users/jkwang/Desktop/nacl_sdk/pepper_canary/toolchain/mac_pnacl/bin/../x86_64-nacl/lib/libcrt_common.a(lib_a-strchr.o)
                                        0x203 (size before relaxing)
 .debug_str     0x000000000000513c       0x4c /Users/jkwang/Desktop/nacl_sdk/pepper_canary/toolchain/mac_pnacl/bin/../x86_64-nacl/lib/libcrt_common.a(lib_a-strlcpy.o)
                                        0x1e1 (size before relaxing)
 .debug_str     0x0000000000005188       0x50 /Users/jkwang/Desktop/nacl_sdk/pepper_canary/toolchain/mac_pnacl/bin/../x86_64-nacl/lib/libcrt_common.a(lib_a-strncasecmp.o)
                                        0x207 (size before relaxing)
 .debug_str     0x00000000000051d8       0x48 /Users/jkwang/Desktop/nacl_sdk/pepper_canary/toolchain/mac_pnacl/bin/../x86_64-nacl/lib/libcrt_common.a(lib_a-strncpy.o)
                                        0x208 (size before relaxing)
 .debug_str     0x0000000000005220       0x6d /Users/jkwang/Desktop/nacl_sdk/pepper_canary/toolchain/mac_pnacl/bin/../x86_64-nacl/lib/libcrt_common.a(lib_a-strtol.o)
                                        0x6be (size before relaxing)
 .debug_str     0x000000000000528d        0xd /Users/jkwang/Desktop/nacl_sdk/pepper_canary/toolchain/mac_pnacl/bin/../x86_64-nacl/lib/libcrt_common.a(lib_a-svfprintf.o)
                                        0x901 (size before relaxing)
 .debug_str     0x000000000000529a       0x22 /Users/jkwang/Desktop/nacl_sdk/pepper_canary/toolchain/mac_pnacl/bin/../x86_64-nacl/lib/libcrt_common.a(lib_a-vfiprintf.o)
                                        0x876 (size before relaxing)
 .debug_str     0x00000000000052bc       0x6a /Users/jkwang/Desktop/nacl_sdk/pepper_canary/toolchain/mac_pnacl/bin/../x86_64-nacl/lib/libcrt_common.a(lib_a-wcsnrtombs.o)
                                        0x6e2 (size before relaxing)
 .debug_str     0x0000000000005326       0xe9 /Users/jkwang/Desktop/nacl_sdk/pepper_canary/toolchain/mac_pnacl/bin/../x86_64-nacl/lib/libcrt_common.a(lib_a-ctype_.o)
                                        0x1ec (size before relaxing)
 .debug_str     0x000000000000540f       0x51 /Users/jkwang/Desktop/nacl_sdk/pepper_canary/toolchain/mac_pnacl/bin/../x86_64-nacl/lib/libcrt_common.a(lib_a-fputwc.o)
                                        0x6cd (size before relaxing)
 .debug_str     0x0000000000005460       0x1a /Users/jkwang/Desktop/nacl_sdk/pepper_canary/toolchain/mac_pnacl/bin/../x86_64-nacl/lib/libcrt_common.a(lib_a-svfiprintf.o)
                                        0x851 (size before relaxing)
 .debug_str     0x000000000000547a       0x4e /Users/jkwang/Desktop/nacl_sdk/pepper_canary/toolchain/mac_pnacl/bin/../x86_64-nacl/lib/libcrt_common.a(lib_a-wbuf.o)
                                        0x6a3 (size before relaxing)
 .debug_str     0x00000000000054c8       0x1b /Users/jkwang/Desktop/nacl_sdk/pepper_canary/toolchain/mac_pnacl/bin/../x86_64-nacl/lib/libnacl.a(close.o)
                                        0x158 (size before relaxing)
 .debug_str     0x00000000000054e3       0x1b /Users/jkwang/Desktop/nacl_sdk/pepper_canary/toolchain/mac_pnacl/bin/../x86_64-nacl/lib/libnacl.a(fstat.o)
                                        0x2ee (size before relaxing)
 .debug_str     0x00000000000054fe       0x1c /Users/jkwang/Desktop/nacl_sdk/pepper_canary/toolchain/mac_pnacl/bin/../x86_64-nacl/lib/libnacl.a(isatty.o)
                                        0x15f (size before relaxing)
 .debug_str     0x000000000000551a       0x21 /Users/jkwang/Desktop/nacl_sdk/pepper_canary/toolchain/mac_pnacl/bin/../x86_64-nacl/lib/libnacl.a(lseek.o)
                                        0x192 (size before relaxing)
 .debug_str     0x000000000000553b       0x1f /Users/jkwang/Desktop/nacl_sdk/pepper_canary/toolchain/mac_pnacl/bin/../x86_64-nacl/lib/libnacl.a(nanosleep.o)
                                        0x1ac (size before relaxing)
 .debug_str     0x000000000000555a       0x3f /Users/jkwang/Desktop/nacl_sdk/pepper_canary/toolchain/mac_pnacl/bin/../x86_64-nacl/lib/libnacl.a(nacl_irt_fdio.o)
                                        0x167 (size before relaxing)
 .debug_str     0x0000000000005599       0x1a /Users/jkwang/Desktop/nacl_sdk/pepper_canary/toolchain/mac_pnacl/bin/../x86_64-nacl/lib/libnacl.a(read.o)
                                        0x17a (size before relaxing)
 .debug_str     0x00000000000055b3      0x639 /Users/jkwang/Desktop/nacl_sdk/pepper_canary/toolchain/mac_pnacl/bin/../lib/clang/3.7.0/lib/x86_64-nacl/libgcc_eh.a(unwind-dw2-fde-glibc.o)
                                        0x71e (size before relaxing)

.debug_loc      0x0000000000000000    0x17bd3
 *(.debug_loc)
 .debug_loc     0x0000000000000000      0x1ff clang-newlib/Release/debugging_x86_64.o
 .debug_loc     0x00000000000001ff      0x2e1 /Users/jkwang/Desktop/nacl_sdk/pepper_canary/lib/clang-newlib_x86_64/Release/liberror_handling.a(error_handling_x86_64.o)
 .debug_loc     0x00000000000004e0       0xbd /Users/jkwang/Desktop/nacl_sdk/pepper_canary/lib/clang-newlib_x86_64/Release/liberror_handling.a(string_stream_x86_64.o)
 .debug_loc     0x000000000000059d      0x8f6 /Users/jkwang/Desktop/nacl_sdk/pepper_canary/toolchain/mac_pnacl/bin/../x86_64-nacl/lib/libpthread.a(nc_thread.o)
 .debug_loc     0x0000000000000e93      0x3a9 /Users/jkwang/Desktop/nacl_sdk/pepper_canary/toolchain/mac_pnacl/bin/../x86_64-nacl/lib/libpthread.a(nc_mutex.o)
 .debug_loc     0x000000000000123c      0x1a7 /Users/jkwang/Desktop/nacl_sdk/pepper_canary/toolchain/mac_pnacl/bin/../x86_64-nacl/lib/libpthread.a(nc_condvar.o)
 .debug_loc     0x00000000000013e3       0x2a /Users/jkwang/Desktop/nacl_sdk/pepper_canary/toolchain/mac_pnacl/bin/../x86_64-nacl/lib/libpthread.a(valgrind_annotations.o)
 .debug_loc     0x000000000000140d        0x0 /Users/jkwang/Desktop/nacl_sdk/pepper_canary/toolchain/mac_pnacl/bin/../x86_64-nacl/lib/libpthread.a(nc_init_irt.o)
 .debug_loc     0x000000000000140d       0xef /Users/jkwang/Desktop/nacl_sdk/pepper_canary/toolchain/mac_pnacl/bin/../x86_64-nacl/lib/libnacl.a(nacl_irt.o)
 .debug_loc     0x00000000000014fc        0x0 /Users/jkwang/Desktop/nacl_sdk/pepper_canary/toolchain/mac_pnacl/bin/../x86_64-nacl/lib/libnacl.a(_exit.o)
 .debug_loc     0x00000000000014fc       0x35 /Users/jkwang/Desktop/nacl_sdk/pepper_canary/toolchain/mac_pnacl/bin/../x86_64-nacl/lib/libnacl.a(mmap.o)
 .debug_loc     0x0000000000001531       0x15 /Users/jkwang/Desktop/nacl_sdk/pepper_canary/toolchain/mac_pnacl/bin/../x86_64-nacl/lib/libnacl.a(munmap.o)
 .debug_loc     0x0000000000001546        0x0 /Users/jkwang/Desktop/nacl_sdk/pepper_canary/toolchain/mac_pnacl/bin/../x86_64-nacl/lib/libnacl.a(nacl_interface_query.o)
 .debug_loc     0x0000000000001546       0x28 /Users/jkwang/Desktop/nacl_sdk/pepper_canary/toolchain/mac_pnacl/bin/../x86_64-nacl/lib/libnacl.a(write.o)
 .debug_loc     0x000000000000156e        0x0 /Users/jkwang/Desktop/nacl_sdk/pepper_canary/toolchain/mac_pnacl/bin/../x86_64-nacl/lib/libnacl.a(environ.o)
 .debug_loc     0x000000000000156e     0x2faa /Users/jkwang/Desktop/nacl_sdk/pepper_canary/toolchain/mac_pnacl/bin/../x86_64-nacl/lib/libnacl.a(malloc.o)
 .debug_loc     0x0000000000004518       0xea /Users/jkwang/Desktop/nacl_sdk/pepper_canary/toolchain/mac_pnacl/bin/../x86_64-nacl/lib/libnacl.a(start.o)
 .debug_loc     0x0000000000004602       0x22 /Users/jkwang/Desktop/nacl_sdk/pepper_canary/toolchain/mac_pnacl/bin/../x86_64-nacl/lib/libnacl.a(nacl_add_tp.o)
 .debug_loc     0x0000000000004624        0x0 /Users/jkwang/Desktop/nacl_sdk/pepper_canary/toolchain/mac_pnacl/bin/../x86_64-nacl/lib/libnacl.a(nacl_read_tp.o)
 .debug_loc     0x0000000000004624       0x22 /Users/jkwang/Desktop/nacl_sdk/pepper_canary/toolchain/mac_pnacl/bin/../x86_64-nacl/lib/libnacl.a(pthread_initialize_minimal.o)
 .debug_loc     0x0000000000004646      0x265 /Users/jkwang/Desktop/nacl_sdk/pepper_canary/toolchain/mac_pnacl/bin/../x86_64-nacl/lib/libnacl.a(tls.o)
 .debug_loc     0x00000000000048ab       0x3f /Users/jkwang/Desktop/nacl_sdk/pepper_canary/toolchain/mac_pnacl/bin/../x86_64-nacl/lib/libnacl.a(nacl_irt_init.o)
 .debug_loc     0x00000000000048ea        0x0 /Users/jkwang/Desktop/nacl_sdk/pepper_canary/toolchain/mac_pnacl/bin/../x86_64-nacl/lib/libnacl.a(nacl_tls_get.o)
 .debug_loc     0x00000000000048ea        0x0 /Users/jkwang/Desktop/nacl_sdk/pepper_canary/toolchain/mac_pnacl/bin/../x86_64-nacl/lib/libnacl.a(nacl_tls_init.o)
 .debug_loc     0x00000000000048ea        0x0 /Users/jkwang/Desktop/nacl_sdk/pepper_canary/toolchain/mac_pnacl/bin/../x86_64-nacl/lib/libnacl.a(abort.o)
 .debug_loc     0x00000000000048ea       0x15 /Users/jkwang/Desktop/nacl_sdk/pepper_canary/toolchain/mac_pnacl/bin/../x86_64-nacl/lib/libnacl.a(sched_yield.o)
 .debug_loc     0x00000000000048ff       0x28 /Users/jkwang/Desktop/nacl_sdk/pepper_canary/toolchain/mac_pnacl/bin/../x86_64-nacl/lib/libnacl.a(sysconf.o)
 .debug_loc     0x0000000000004927       0x2f /Users/jkwang/Desktop/nacl_sdk/pepper_canary/toolchain/mac_pnacl/bin/../x86_64-nacl/lib/libcrt_common.a(lib_a-atexit.o)
 .debug_loc     0x0000000000004956        0x0 /Users/jkwang/Desktop/nacl_sdk/pepper_canary/toolchain/mac_pnacl/bin/../x86_64-nacl/lib/libcrt_common.a(lib_a-errno.o)
 .debug_loc     0x0000000000004956       0x22 /Users/jkwang/Desktop/nacl_sdk/pepper_canary/toolchain/mac_pnacl/bin/../x86_64-nacl/lib/libcrt_common.a(lib_a-exit.o)
 .debug_loc     0x0000000000004978      0x290 /Users/jkwang/Desktop/nacl_sdk/pepper_canary/toolchain/mac_pnacl/bin/../x86_64-nacl/lib/libcrt_common.a(lib_a-fflush.o)
 .debug_loc     0x0000000000004c08      0x11b /Users/jkwang/Desktop/nacl_sdk/pepper_canary/toolchain/mac_pnacl/bin/../x86_64-nacl/lib/libcrt_common.a(lib_a-findfp.o)
 .debug_loc     0x0000000000004d23       0x22 /Users/jkwang/Desktop/nacl_sdk/pepper_canary/toolchain/mac_pnacl/bin/../x86_64-nacl/lib/libcrt_common.a(lib_a-fini.o)
 .debug_loc     0x0000000000004d45       0x5e /Users/jkwang/Desktop/nacl_sdk/pepper_canary/toolchain/mac_pnacl/bin/../x86_64-nacl/lib/libcrt_common.a(lib_a-fprintf.o)
 .debug_loc     0x0000000000004da3      0x25c /Users/jkwang/Desktop/nacl_sdk/pepper_canary/toolchain/mac_pnacl/bin/../x86_64-nacl/lib/libcrt_common.a(lib_a-fwalk.o)
 .debug_loc     0x0000000000004fff      0x1da /Users/jkwang/Desktop/nacl_sdk/pepper_canary/toolchain/mac_pnacl/bin/../x86_64-nacl/lib/libcrt_common.a(lib_a-fwrite.o)
 .debug_loc     0x00000000000051d9       0x8d /Users/jkwang/Desktop/nacl_sdk/pepper_canary/toolchain/mac_pnacl/bin/../x86_64-nacl/lib/libcrt_common.a(lib_a-getenv.o)
 .debug_loc     0x0000000000005266      0x109 /Users/jkwang/Desktop/nacl_sdk/pepper_canary/toolchain/mac_pnacl/bin/../x86_64-nacl/lib/libcrt_common.a(lib_a-getenv_r.o)
 .debug_loc     0x000000000000536f        0x0 /Users/jkwang/Desktop/nacl_sdk/pepper_canary/toolchain/mac_pnacl/bin/../x86_64-nacl/lib/libcrt_common.a(lib_a-impure.o)
 .debug_loc     0x000000000000536f       0x49 /Users/jkwang/Desktop/nacl_sdk/pepper_canary/toolchain/mac_pnacl/bin/../x86_64-nacl/lib/libcrt_common.a(lib_a-init.o)
 .debug_loc     0x00000000000053b8       0x28 /Users/jkwang/Desktop/nacl_sdk/pepper_canary/toolchain/mac_pnacl/bin/../x86_64-nacl/lib/libcrt_common.a(lib_a-sleep.o)
 .debug_loc     0x00000000000053e0      0x199 /Users/jkwang/Desktop/nacl_sdk/pepper_canary/toolchain/mac_pnacl/bin/../x86_64-nacl/lib/libcrt_common.a(lib_a-stdio.o)
 .debug_loc     0x0000000000005579       0x44 /Users/jkwang/Desktop/nacl_sdk/pepper_canary/toolchain/mac_pnacl/bin/../x86_64-nacl/lib/libcrt_common.a(lib_a-strcat.o)
 .debug_loc     0x00000000000055bd       0x7b /Users/jkwang/Desktop/nacl_sdk/pepper_canary/toolchain/mac_pnacl/bin/../x86_64-nacl/lib/libcrt_common.a(lib_a-strcmp.o)
 .debug_loc     0x0000000000005638       0x90 /Users/jkwang/Desktop/nacl_sdk/pepper_canary/toolchain/mac_pnacl/bin/../x86_64-nacl/lib/libcrt_common.a(lib_a-strcpy.o)
 .debug_loc     0x00000000000056c8       0x49 /Users/jkwang/Desktop/nacl_sdk/pepper_canary/toolchain/mac_pnacl/bin/../x86_64-nacl/lib/libcrt_common.a(lib_a-strlen.o)
 .debug_loc     0x0000000000005711       0xaa /Users/jkwang/Desktop/nacl_sdk/pepper_canary/toolchain/mac_pnacl/bin/../x86_64-nacl/lib/libcrt_common.a(lib_a-strncmp.o)
 .debug_loc     0x00000000000057bb     0x28d2 /Users/jkwang/Desktop/nacl_sdk/pepper_canary/toolchain/mac_pnacl/bin/../x86_64-nacl/lib/libcrt_common.a(lib_a-vfprintf.o)
 .debug_loc     0x000000000000808d      0x18a /Users/jkwang/Desktop/nacl_sdk/pepper_canary/toolchain/mac_pnacl/bin/../x86_64-nacl/lib/libcrt_common.a(lib_a-vsnprintf.o)
 .debug_loc     0x0000000000008217       0xe9 /Users/jkwang/Desktop/nacl_sdk/pepper_canary/toolchain/mac_pnacl/bin/../x86_64-nacl/lib/libcrt_common.a(lib_a-vsprintf.o)
 .debug_loc     0x0000000000008300      0x193 /Users/jkwang/Desktop/nacl_sdk/pepper_canary/toolchain/mac_pnacl/bin/../x86_64-nacl/lib/libcrt_common.a(lib_a-wcrtomb.o)
 .debug_loc     0x0000000000008493      0x10d /Users/jkwang/Desktop/nacl_sdk/pepper_canary/toolchain/mac_pnacl/bin/../x86_64-nacl/lib/libcrt_common.a(lib_a-wcsrtombs.o)
 .debug_loc     0x00000000000085a0      0x384 /Users/jkwang/Desktop/nacl_sdk/pepper_canary/toolchain/mac_pnacl/bin/../x86_64-nacl/lib/libcrt_common.a(lib_a-wctomb_r.o)
 .debug_loc     0x0000000000008924       0x66 /Users/jkwang/Desktop/nacl_sdk/pepper_canary/toolchain/mac_pnacl/bin/../x86_64-nacl/lib/libcrt_common.a(lib_a-wsetup.o)
 .debug_loc     0x000000000000898a       0xe9 /Users/jkwang/Desktop/nacl_sdk/pepper_canary/toolchain/mac_pnacl/bin/../x86_64-nacl/lib/libcrt_common.a(lib_a-__atexit.o)
 .debug_loc     0x0000000000008a73      0x147 /Users/jkwang/Desktop/nacl_sdk/pepper_canary/toolchain/mac_pnacl/bin/../x86_64-nacl/lib/libcrt_common.a(lib_a-__call_atexit.o)
 .debug_loc     0x0000000000008bba     0x19a4 /Users/jkwang/Desktop/nacl_sdk/pepper_canary/toolchain/mac_pnacl/bin/../x86_64-nacl/lib/libcrt_common.a(lib_a-dtoa.o)
 .debug_loc     0x000000000000a55e       0x2a /Users/jkwang/Desktop/nacl_sdk/pepper_canary/toolchain/mac_pnacl/bin/../x86_64-nacl/lib/libcrt_common.a(lib_a-envlock.o)
 .debug_loc     0x000000000000a588       0xc4 /Users/jkwang/Desktop/nacl_sdk/pepper_canary/toolchain/mac_pnacl/bin/../x86_64-nacl/lib/libcrt_common.a(lib_a-fclose.o)
 .debug_loc     0x000000000000a64c      0x387 /Users/jkwang/Desktop/nacl_sdk/pepper_canary/toolchain/mac_pnacl/bin/../x86_64-nacl/lib/libcrt_common.a(lib_a-fvwrite.o)
 .debug_loc     0x000000000000a9d3      0x83c /Users/jkwang/Desktop/nacl_sdk/pepper_canary/toolchain/mac_pnacl/bin/../x86_64-nacl/lib/libcrt_common.a(lib_a-locale.o)
 .debug_loc     0x000000000000b20f       0x93 /Users/jkwang/Desktop/nacl_sdk/pepper_canary/toolchain/mac_pnacl/bin/../x86_64-nacl/lib/libcrt_common.a(lib_a-makebuf.o)
 .debug_loc     0x000000000000b2a2      0x84c /Users/jkwang/Desktop/nacl_sdk/pepper_canary/toolchain/mac_pnacl/bin/../x86_64-nacl/lib/libcrt_common.a(lib_a-mbtowc_r.o)
 .debug_loc     0x000000000000baee       0xcc /Users/jkwang/Desktop/nacl_sdk/pepper_canary/toolchain/mac_pnacl/bin/../x86_64-nacl/lib/libcrt_common.a(lib_a-memchr.o)
 .debug_loc     0x000000000000bbba      0x3d3 /Users/jkwang/Desktop/nacl_sdk/pepper_canary/toolchain/mac_pnacl/bin/../x86_64-nacl/lib/libcrt_common.a(lib_a-memmove.o)
 .debug_loc     0x000000000000bf8d     0x1fc5 /Users/jkwang/Desktop/nacl_sdk/pepper_canary/toolchain/mac_pnacl/bin/../x86_64-nacl/lib/libcrt_common.a(lib_a-mprec.o)
 .debug_loc     0x000000000000df52       0x2a /Users/jkwang/Desktop/nacl_sdk/pepper_canary/toolchain/mac_pnacl/bin/../x86_64-nacl/lib/libcrt_common.a(lib_a-s_fpclassify.o)
 .debug_loc     0x000000000000df7c       0xb0 /Users/jkwang/Desktop/nacl_sdk/pepper_canary/toolchain/mac_pnacl/bin/../x86_64-nacl/lib/libcrt_common.a(lib_a-s_frexp.o)
 .debug_loc     0x000000000000e02c       0xba /Users/jkwang/Desktop/nacl_sdk/pepper_canary/toolchain/mac_pnacl/bin/../x86_64-nacl/lib/libcrt_common.a(lib_a-strcasecmp.o)
 .debug_loc     0x000000000000e0e6       0xe6 /Users/jkwang/Desktop/nacl_sdk/pepper_canary/toolchain/mac_pnacl/bin/../x86_64-nacl/lib/libcrt_common.a(lib_a-strchr.o)
 .debug_loc     0x000000000000e1cc       0xcc /Users/jkwang/Desktop/nacl_sdk/pepper_canary/toolchain/mac_pnacl/bin/../x86_64-nacl/lib/libcrt_common.a(lib_a-strlcpy.o)
 .debug_loc     0x000000000000e298       0xba /Users/jkwang/Desktop/nacl_sdk/pepper_canary/toolchain/mac_pnacl/bin/../x86_64-nacl/lib/libcrt_common.a(lib_a-strncasecmp.o)
 .debug_loc     0x000000000000e352      0x10d /Users/jkwang/Desktop/nacl_sdk/pepper_canary/toolchain/mac_pnacl/bin/../x86_64-nacl/lib/libcrt_common.a(lib_a-strncpy.o)
 .debug_loc     0x000000000000e45f      0x303 /Users/jkwang/Desktop/nacl_sdk/pepper_canary/toolchain/mac_pnacl/bin/../x86_64-nacl/lib/libcrt_common.a(lib_a-strtol.o)
 .debug_loc     0x000000000000e762     0x2777 /Users/jkwang/Desktop/nacl_sdk/pepper_canary/toolchain/mac_pnacl/bin/../x86_64-nacl/lib/libcrt_common.a(lib_a-svfprintf.o)
 .debug_loc     0x0000000000010ed9     0x263c /Users/jkwang/Desktop/nacl_sdk/pepper_canary/toolchain/mac_pnacl/bin/../x86_64-nacl/lib/libcrt_common.a(lib_a-vfiprintf.o)
 .debug_loc     0x0000000000013515      0x314 /Users/jkwang/Desktop/nacl_sdk/pepper_canary/toolchain/mac_pnacl/bin/../x86_64-nacl/lib/libcrt_common.a(lib_a-wcsnrtombs.o)
 .debug_loc     0x0000000000013829        0x0 /Users/jkwang/Desktop/nacl_sdk/pepper_canary/toolchain/mac_pnacl/bin/../x86_64-nacl/lib/libcrt_common.a(lib_a-ctype_.o)
 .debug_loc     0x0000000000013829      0x1e4 /Users/jkwang/Desktop/nacl_sdk/pepper_canary/toolchain/mac_pnacl/bin/../x86_64-nacl/lib/libcrt_common.a(lib_a-fputwc.o)
 .debug_loc     0x0000000000013a0d     0x15f4 /Users/jkwang/Desktop/nacl_sdk/pepper_canary/toolchain/mac_pnacl/bin/../x86_64-nacl/lib/libcrt_common.a(lib_a-svfiprintf.o)
 .debug_loc     0x0000000000015001      0x13c /Users/jkwang/Desktop/nacl_sdk/pepper_canary/toolchain/mac_pnacl/bin/../x86_64-nacl/lib/libcrt_common.a(lib_a-wbuf.o)
 .debug_loc     0x000000000001513d       0x15 /Users/jkwang/Desktop/nacl_sdk/pepper_canary/toolchain/mac_pnacl/bin/../x86_64-nacl/lib/libnacl.a(close.o)
 .debug_loc     0x0000000000015152       0x15 /Users/jkwang/Desktop/nacl_sdk/pepper_canary/toolchain/mac_pnacl/bin/../x86_64-nacl/lib/libnacl.a(fstat.o)
 .debug_loc     0x0000000000015167       0x4a /Users/jkwang/Desktop/nacl_sdk/pepper_canary/toolchain/mac_pnacl/bin/../x86_64-nacl/lib/libnacl.a(isatty.o)
 .debug_loc     0x00000000000151b1       0x28 /Users/jkwang/Desktop/nacl_sdk/pepper_canary/toolchain/mac_pnacl/bin/../x86_64-nacl/lib/libnacl.a(lseek.o)
 .debug_loc     0x00000000000151d9       0x15 /Users/jkwang/Desktop/nacl_sdk/pepper_canary/toolchain/mac_pnacl/bin/../x86_64-nacl/lib/libnacl.a(nanosleep.o)
 .debug_loc     0x00000000000151ee        0x0 /Users/jkwang/Desktop/nacl_sdk/pepper_canary/toolchain/mac_pnacl/bin/../x86_64-nacl/lib/libnacl.a(nacl_irt_fdio.o)
 .debug_loc     0x00000000000151ee       0x28 /Users/jkwang/Desktop/nacl_sdk/pepper_canary/toolchain/mac_pnacl/bin/../x86_64-nacl/lib/libnacl.a(read.o)
 .debug_loc     0x0000000000015216     0x29bd /Users/jkwang/Desktop/nacl_sdk/pepper_canary/toolchain/mac_pnacl/bin/../lib/clang/3.7.0/lib/x86_64-nacl/libgcc_eh.a(unwind-dw2-fde-glibc.o)

.debug_macinfo
 *(.debug_macinfo)

.debug_weaknames
 *(.debug_weaknames)

.debug_funcnames
 *(.debug_funcnames)

.debug_typenames
 *(.debug_typenames)

.debug_varnames
 *(.debug_varnames)

.debug_pubtypes
                0x0000000000000000     0x593d
 *(.debug_pubtypes)
 .debug_pubtypes
                0x0000000000000000      0x254 clang-newlib/Release/debugging_x86_64.o
 .debug_pubtypes
                0x0000000000000254      0x1bb /Users/jkwang/Desktop/nacl_sdk/pepper_canary/lib/clang-newlib_x86_64/Release/liberror_handling.a(error_handling_x86_64.o)
 .debug_pubtypes
                0x000000000000040f       0x81 /Users/jkwang/Desktop/nacl_sdk/pepper_canary/lib/clang-newlib_x86_64/Release/liberror_handling.a(string_stream_x86_64.o)
 .debug_pubtypes
                0x0000000000000490      0x22c /Users/jkwang/Desktop/nacl_sdk/pepper_canary/toolchain/mac_pnacl/bin/../x86_64-nacl/lib/libpthread.a(nc_thread.o)
 .debug_pubtypes
                0x00000000000006bc      0x1bf /Users/jkwang/Desktop/nacl_sdk/pepper_canary/toolchain/mac_pnacl/bin/../x86_64-nacl/lib/libpthread.a(nc_mutex.o)
 .debug_pubtypes
                0x000000000000087b      0x1a2 /Users/jkwang/Desktop/nacl_sdk/pepper_canary/toolchain/mac_pnacl/bin/../x86_64-nacl/lib/libpthread.a(nc_condvar.o)
 .debug_pubtypes
                0x0000000000000a1d       0x30 /Users/jkwang/Desktop/nacl_sdk/pepper_canary/toolchain/mac_pnacl/bin/../x86_64-nacl/lib/libpthread.a(valgrind_annotations.o)
 .debug_pubtypes
                0x0000000000000a4d       0x7f /Users/jkwang/Desktop/nacl_sdk/pepper_canary/toolchain/mac_pnacl/bin/../x86_64-nacl/lib/libpthread.a(nc_init_irt.o)
 .debug_pubtypes
                0x0000000000000acc      0x21f /Users/jkwang/Desktop/nacl_sdk/pepper_canary/toolchain/mac_pnacl/bin/../x86_64-nacl/lib/libnacl.a(nacl_irt.o)
 .debug_pubtypes
                0x0000000000000ceb       0x1a /Users/jkwang/Desktop/nacl_sdk/pepper_canary/toolchain/mac_pnacl/bin/../x86_64-nacl/lib/libnacl.a(_exit.o)
 .debug_pubtypes
                0x0000000000000d05       0x6b /Users/jkwang/Desktop/nacl_sdk/pepper_canary/toolchain/mac_pnacl/bin/../x86_64-nacl/lib/libnacl.a(mmap.o)
 .debug_pubtypes
                0x0000000000000d70       0x36 /Users/jkwang/Desktop/nacl_sdk/pepper_canary/toolchain/mac_pnacl/bin/../x86_64-nacl/lib/libnacl.a(munmap.o)
 .debug_pubtypes
                0x0000000000000da6       0x37 /Users/jkwang/Desktop/nacl_sdk/pepper_canary/toolchain/mac_pnacl/bin/../x86_64-nacl/lib/libnacl.a(nacl_interface_query.o)
 .debug_pubtypes
                0x0000000000000ddd       0x36 /Users/jkwang/Desktop/nacl_sdk/pepper_canary/toolchain/mac_pnacl/bin/../x86_64-nacl/lib/libnacl.a(write.o)
 .debug_pubtypes
                0x0000000000000e13       0x1b /Users/jkwang/Desktop/nacl_sdk/pepper_canary/toolchain/mac_pnacl/bin/../x86_64-nacl/lib/libnacl.a(environ.o)
 .debug_pubtypes
                0x0000000000000e2e      0x2b5 /Users/jkwang/Desktop/nacl_sdk/pepper_canary/toolchain/mac_pnacl/bin/../x86_64-nacl/lib/libnacl.a(malloc.o)
 .debug_pubtypes
                0x00000000000010e3       0xa6 /Users/jkwang/Desktop/nacl_sdk/pepper_canary/toolchain/mac_pnacl/bin/../x86_64-nacl/lib/libnacl.a(start.o)
 .debug_pubtypes
                0x0000000000001189       0x31 /Users/jkwang/Desktop/nacl_sdk/pepper_canary/toolchain/mac_pnacl/bin/../x86_64-nacl/lib/libnacl.a(nacl_add_tp.o)
 .debug_pubtypes
                0x00000000000011ba       0x2e /Users/jkwang/Desktop/nacl_sdk/pepper_canary/toolchain/mac_pnacl/bin/../x86_64-nacl/lib/libnacl.a(pthread_initialize_minimal.o)
 .debug_pubtypes
                0x00000000000011e8      0x151 /Users/jkwang/Desktop/nacl_sdk/pepper_canary/toolchain/mac_pnacl/bin/../x86_64-nacl/lib/libnacl.a(tls.o)
 .debug_pubtypes
                0x0000000000001339       0xeb /Users/jkwang/Desktop/nacl_sdk/pepper_canary/toolchain/mac_pnacl/bin/../x86_64-nacl/lib/libnacl.a(nacl_irt_init.o)
 .debug_pubtypes
                0x0000000000001424       0x1a /Users/jkwang/Desktop/nacl_sdk/pepper_canary/toolchain/mac_pnacl/bin/../x86_64-nacl/lib/libnacl.a(nacl_tls_init.o)
 .debug_pubtypes
                0x000000000000143e       0x1b /Users/jkwang/Desktop/nacl_sdk/pepper_canary/toolchain/mac_pnacl/bin/../x86_64-nacl/lib/libnacl.a(abort.o)
 .debug_pubtypes
                0x0000000000001459       0x1a /Users/jkwang/Desktop/nacl_sdk/pepper_canary/toolchain/mac_pnacl/bin/../x86_64-nacl/lib/libnacl.a(sched_yield.o)
 .debug_pubtypes
                0x0000000000001473       0x27 /Users/jkwang/Desktop/nacl_sdk/pepper_canary/toolchain/mac_pnacl/bin/../x86_64-nacl/lib/libnacl.a(sysconf.o)
 .debug_pubtypes
                0x000000000000149a       0x2d /Users/jkwang/Desktop/nacl_sdk/pepper_canary/toolchain/mac_pnacl/bin/../x86_64-nacl/lib/libcrt_common.a(lib_a-atexit.o)
 .debug_pubtypes
                0x00000000000014c7       0x1a /Users/jkwang/Desktop/nacl_sdk/pepper_canary/toolchain/mac_pnacl/bin/../x86_64-nacl/lib/libcrt_common.a(lib_a-errno.o)
 .debug_pubtypes
                0x00000000000014e1       0x1a /Users/jkwang/Desktop/nacl_sdk/pepper_canary/toolchain/mac_pnacl/bin/../x86_64-nacl/lib/libcrt_common.a(lib_a-exit.o)
 .debug_pubtypes
                0x00000000000014fb      0x1c8 /Users/jkwang/Desktop/nacl_sdk/pepper_canary/toolchain/mac_pnacl/bin/../x86_64-nacl/lib/libcrt_common.a(lib_a-fflush.o)
 .debug_pubtypes
                0x00000000000016c3      0x1db /Users/jkwang/Desktop/nacl_sdk/pepper_canary/toolchain/mac_pnacl/bin/../x86_64-nacl/lib/libcrt_common.a(lib_a-findfp.o)
 .debug_pubtypes
                0x000000000000189e       0x2e /Users/jkwang/Desktop/nacl_sdk/pepper_canary/toolchain/mac_pnacl/bin/../x86_64-nacl/lib/libcrt_common.a(lib_a-fini.o)
 .debug_pubtypes
                0x00000000000018cc      0x1fc /Users/jkwang/Desktop/nacl_sdk/pepper_canary/toolchain/mac_pnacl/bin/../x86_64-nacl/lib/libcrt_common.a(lib_a-fprintf.o)
 .debug_pubtypes
                0x0000000000001ac8      0x1c8 /Users/jkwang/Desktop/nacl_sdk/pepper_canary/toolchain/mac_pnacl/bin/../x86_64-nacl/lib/libcrt_common.a(lib_a-fwalk.o)
 .debug_pubtypes
                0x0000000000001c90      0x1e9 /Users/jkwang/Desktop/nacl_sdk/pepper_canary/toolchain/mac_pnacl/bin/../x86_64-nacl/lib/libcrt_common.a(lib_a-fwrite.o)
 .debug_pubtypes
                0x0000000000001e79       0x23 /Users/jkwang/Desktop/nacl_sdk/pepper_canary/toolchain/mac_pnacl/bin/../x86_64-nacl/lib/libcrt_common.a(lib_a-getenv.o)
 .debug_pubtypes
                0x0000000000001e9c      0x1bf /Users/jkwang/Desktop/nacl_sdk/pepper_canary/toolchain/mac_pnacl/bin/../x86_64-nacl/lib/libcrt_common.a(lib_a-getenv_r.o)
 .debug_pubtypes
                0x000000000000205b      0x1bf /Users/jkwang/Desktop/nacl_sdk/pepper_canary/toolchain/mac_pnacl/bin/../x86_64-nacl/lib/libcrt_common.a(lib_a-impure.o)
 .debug_pubtypes
                0x000000000000221a       0x2e /Users/jkwang/Desktop/nacl_sdk/pepper_canary/toolchain/mac_pnacl/bin/../x86_64-nacl/lib/libcrt_common.a(lib_a-init.o)
 .debug_pubtypes
                0x0000000000002248       0x75 /Users/jkwang/Desktop/nacl_sdk/pepper_canary/toolchain/mac_pnacl/bin/../x86_64-nacl/lib/libcrt_common.a(lib_a-sleep.o)
 .debug_pubtypes
                0x00000000000022bd      0x1e1 /Users/jkwang/Desktop/nacl_sdk/pepper_canary/toolchain/mac_pnacl/bin/../x86_64-nacl/lib/libcrt_common.a(lib_a-stdio.o)
 .debug_pubtypes
                0x000000000000249e       0x3e /Users/jkwang/Desktop/nacl_sdk/pepper_canary/toolchain/mac_pnacl/bin/../x86_64-nacl/lib/libcrt_common.a(lib_a-strcat.o)
 .debug_pubtypes
                0x00000000000024dc       0x58 /Users/jkwang/Desktop/nacl_sdk/pepper_canary/toolchain/mac_pnacl/bin/../x86_64-nacl/lib/libcrt_common.a(lib_a-strcmp.o)
 .debug_pubtypes
                0x0000000000002534       0x28 /Users/jkwang/Desktop/nacl_sdk/pepper_canary/toolchain/mac_pnacl/bin/../x86_64-nacl/lib/libcrt_common.a(lib_a-strcpy.o)
 .debug_pubtypes
                0x000000000000255c       0x5a /Users/jkwang/Desktop/nacl_sdk/pepper_canary/toolchain/mac_pnacl/bin/../x86_64-nacl/lib/libcrt_common.a(lib_a-strlen.o)
 .debug_pubtypes
                0x00000000000025b6       0x74 /Users/jkwang/Desktop/nacl_sdk/pepper_canary/toolchain/mac_pnacl/bin/../x86_64-nacl/lib/libcrt_common.a(lib_a-strncmp.o)
 .debug_pubtypes
                0x000000000000262a      0x285 /Users/jkwang/Desktop/nacl_sdk/pepper_canary/toolchain/mac_pnacl/bin/../x86_64-nacl/lib/libcrt_common.a(lib_a-vfprintf.o)
 .debug_pubtypes
                0x00000000000028af      0x1e5 /Users/jkwang/Desktop/nacl_sdk/pepper_canary/toolchain/mac_pnacl/bin/../x86_64-nacl/lib/libcrt_common.a(lib_a-vsnprintf.o)
 .debug_pubtypes
                0x0000000000002a94      0x1da /Users/jkwang/Desktop/nacl_sdk/pepper_canary/toolchain/mac_pnacl/bin/../x86_64-nacl/lib/libcrt_common.a(lib_a-vsprintf.o)
 .debug_pubtypes
                0x0000000000002c6e      0x1e4 /Users/jkwang/Desktop/nacl_sdk/pepper_canary/toolchain/mac_pnacl/bin/../x86_64-nacl/lib/libcrt_common.a(lib_a-wcrtomb.o)
 .debug_pubtypes
                0x0000000000002e52      0x1e4 /Users/jkwang/Desktop/nacl_sdk/pepper_canary/toolchain/mac_pnacl/bin/../x86_64-nacl/lib/libcrt_common.a(lib_a-wcsrtombs.o)
 .debug_pubtypes
                0x0000000000003036      0x1e4 /Users/jkwang/Desktop/nacl_sdk/pepper_canary/toolchain/mac_pnacl/bin/../x86_64-nacl/lib/libcrt_common.a(lib_a-wctomb_r.o)
 .debug_pubtypes
                0x000000000000321a      0x1c8 /Users/jkwang/Desktop/nacl_sdk/pepper_canary/toolchain/mac_pnacl/bin/../x86_64-nacl/lib/libcrt_common.a(lib_a-wsetup.o)
 .debug_pubtypes
                0x00000000000033e2       0x6d /Users/jkwang/Desktop/nacl_sdk/pepper_canary/toolchain/mac_pnacl/bin/../x86_64-nacl/lib/libcrt_common.a(lib_a-__atexit.o)
 .debug_pubtypes
                0x000000000000344f       0x98 /Users/jkwang/Desktop/nacl_sdk/pepper_canary/toolchain/mac_pnacl/bin/../x86_64-nacl/lib/libcrt_common.a(lib_a-__call_atexit.o)
 .debug_pubtypes
                0x00000000000034e7      0x1ea /Users/jkwang/Desktop/nacl_sdk/pepper_canary/toolchain/mac_pnacl/bin/../x86_64-nacl/lib/libcrt_common.a(lib_a-dtoa.o)
 .debug_pubtypes
                0x00000000000036d1      0x1bf /Users/jkwang/Desktop/nacl_sdk/pepper_canary/toolchain/mac_pnacl/bin/../x86_64-nacl/lib/libcrt_common.a(lib_a-envlock.o)
 .debug_pubtypes
                0x0000000000003890      0x1c8 /Users/jkwang/Desktop/nacl_sdk/pepper_canary/toolchain/mac_pnacl/bin/../x86_64-nacl/lib/libcrt_common.a(lib_a-fclose.o)
 .debug_pubtypes
                0x0000000000003a58      0x1e9 /Users/jkwang/Desktop/nacl_sdk/pepper_canary/toolchain/mac_pnacl/bin/../x86_64-nacl/lib/libcrt_common.a(lib_a-fvwrite.o)
 .debug_pubtypes
                0x0000000000003c41      0x1ee /Users/jkwang/Desktop/nacl_sdk/pepper_canary/toolchain/mac_pnacl/bin/../x86_64-nacl/lib/libcrt_common.a(lib_a-locale.o)
 .debug_pubtypes
                0x0000000000003e2f      0x2ed /Users/jkwang/Desktop/nacl_sdk/pepper_canary/toolchain/mac_pnacl/bin/../x86_64-nacl/lib/libcrt_common.a(lib_a-makebuf.o)
 .debug_pubtypes
                0x000000000000411c      0x213 /Users/jkwang/Desktop/nacl_sdk/pepper_canary/toolchain/mac_pnacl/bin/../x86_64-nacl/lib/libcrt_common.a(lib_a-mbtowc_r.o)
 .debug_pubtypes
                0x000000000000432f       0x6b /Users/jkwang/Desktop/nacl_sdk/pepper_canary/toolchain/mac_pnacl/bin/../x86_64-nacl/lib/libcrt_common.a(lib_a-memchr.o)
 .debug_pubtypes
                0x000000000000439a       0x44 /Users/jkwang/Desktop/nacl_sdk/pepper_canary/toolchain/mac_pnacl/bin/../x86_64-nacl/lib/libcrt_common.a(lib_a-memmove.o)
 .debug_pubtypes
                0x00000000000043de      0x1ea /Users/jkwang/Desktop/nacl_sdk/pepper_canary/toolchain/mac_pnacl/bin/../x86_64-nacl/lib/libcrt_common.a(lib_a-mprec.o)
 .debug_pubtypes
                0x00000000000045c8       0x60 /Users/jkwang/Desktop/nacl_sdk/pepper_canary/toolchain/mac_pnacl/bin/../x86_64-nacl/lib/libcrt_common.a(lib_a-s_fpclassify.o)
 .debug_pubtypes
                0x0000000000004628       0x6e /Users/jkwang/Desktop/nacl_sdk/pepper_canary/toolchain/mac_pnacl/bin/../x86_64-nacl/lib/libcrt_common.a(lib_a-s_frexp.o)
 .debug_pubtypes
                0x0000000000004696       0x35 /Users/jkwang/Desktop/nacl_sdk/pepper_canary/toolchain/mac_pnacl/bin/../x86_64-nacl/lib/libcrt_common.a(lib_a-strcasecmp.o)
 .debug_pubtypes
                0x00000000000046cb       0x58 /Users/jkwang/Desktop/nacl_sdk/pepper_canary/toolchain/mac_pnacl/bin/../x86_64-nacl/lib/libcrt_common.a(lib_a-strchr.o)
 .debug_pubtypes
                0x0000000000004723       0x37 /Users/jkwang/Desktop/nacl_sdk/pepper_canary/toolchain/mac_pnacl/bin/../x86_64-nacl/lib/libcrt_common.a(lib_a-strlcpy.o)
 .debug_pubtypes
                0x000000000000475a       0x51 /Users/jkwang/Desktop/nacl_sdk/pepper_canary/toolchain/mac_pnacl/bin/../x86_64-nacl/lib/libcrt_common.a(lib_a-strncasecmp.o)
 .debug_pubtypes
                0x00000000000047ab       0x44 /Users/jkwang/Desktop/nacl_sdk/pepper_canary/toolchain/mac_pnacl/bin/../x86_64-nacl/lib/libcrt_common.a(lib_a-strncpy.o)
 .debug_pubtypes
                0x00000000000047ef      0x1bf /Users/jkwang/Desktop/nacl_sdk/pepper_canary/toolchain/mac_pnacl/bin/../x86_64-nacl/lib/libcrt_common.a(lib_a-strtol.o)
 .debug_pubtypes
                0x00000000000049ae      0x285 /Users/jkwang/Desktop/nacl_sdk/pepper_canary/toolchain/mac_pnacl/bin/../x86_64-nacl/lib/libcrt_common.a(lib_a-svfprintf.o)
 .debug_pubtypes
                0x0000000000004c33      0x25a /Users/jkwang/Desktop/nacl_sdk/pepper_canary/toolchain/mac_pnacl/bin/../x86_64-nacl/lib/libcrt_common.a(lib_a-vfiprintf.o)
 .debug_pubtypes
                0x0000000000004e8d      0x1e4 /Users/jkwang/Desktop/nacl_sdk/pepper_canary/toolchain/mac_pnacl/bin/../x86_64-nacl/lib/libcrt_common.a(lib_a-wcsnrtombs.o)
 .debug_pubtypes
                0x0000000000005071       0x1b /Users/jkwang/Desktop/nacl_sdk/pepper_canary/toolchain/mac_pnacl/bin/../x86_64-nacl/lib/libcrt_common.a(lib_a-ctype_.o)
 .debug_pubtypes
                0x000000000000508c      0x1df /Users/jkwang/Desktop/nacl_sdk/pepper_canary/toolchain/mac_pnacl/bin/../x86_64-nacl/lib/libcrt_common.a(lib_a-fputwc.o)
 .debug_pubtypes
                0x000000000000526b      0x25a /Users/jkwang/Desktop/nacl_sdk/pepper_canary/toolchain/mac_pnacl/bin/../x86_64-nacl/lib/libcrt_common.a(lib_a-svfiprintf.o)
 .debug_pubtypes
                0x00000000000054c5      0x1c8 /Users/jkwang/Desktop/nacl_sdk/pepper_canary/toolchain/mac_pnacl/bin/../x86_64-nacl/lib/libcrt_common.a(lib_a-wbuf.o)
 .debug_pubtypes
                0x000000000000568d       0x1a /Users/jkwang/Desktop/nacl_sdk/pepper_canary/toolchain/mac_pnacl/bin/../x86_64-nacl/lib/libnacl.a(close.o)
 .debug_pubtypes
                0x00000000000056a7      0x18b /Users/jkwang/Desktop/nacl_sdk/pepper_canary/toolchain/mac_pnacl/bin/../x86_64-nacl/lib/libnacl.a(fstat.o)
 .debug_pubtypes
                0x0000000000005832       0x1a /Users/jkwang/Desktop/nacl_sdk/pepper_canary/toolchain/mac_pnacl/bin/../x86_64-nacl/lib/libnacl.a(isatty.o)
 .debug_pubtypes
                0x000000000000584c       0x4f /Users/jkwang/Desktop/nacl_sdk/pepper_canary/toolchain/mac_pnacl/bin/../x86_64-nacl/lib/libnacl.a(lseek.o)
 .debug_pubtypes
                0x000000000000589b       0x6c /Users/jkwang/Desktop/nacl_sdk/pepper_canary/toolchain/mac_pnacl/bin/../x86_64-nacl/lib/libnacl.a(nanosleep.o)
 .debug_pubtypes
                0x0000000000005907       0x36 /Users/jkwang/Desktop/nacl_sdk/pepper_canary/toolchain/mac_pnacl/bin/../x86_64-nacl/lib/libnacl.a(read.o)

.debug_ranges   0x0000000000000000     0x2900
 *(.debug_ranges)
 .debug_ranges  0x0000000000000000       0x90 clang-newlib/Release/debugging_x86_64.o
 .debug_ranges  0x0000000000000090       0x50 /Users/jkwang/Desktop/nacl_sdk/pepper_canary/lib/clang-newlib_x86_64/Release/liberror_handling.a(error_handling_x86_64.o)
 .debug_ranges  0x00000000000000e0        0x0 /Users/jkwang/Desktop/nacl_sdk/pepper_canary/lib/clang-newlib_x86_64/Release/liberror_handling.a(string_stream_x86_64.o)
 .debug_ranges  0x00000000000000e0      0x160 /Users/jkwang/Desktop/nacl_sdk/pepper_canary/toolchain/mac_pnacl/bin/../x86_64-nacl/lib/libpthread.a(nc_thread.o)
 .debug_ranges  0x0000000000000240       0x90 /Users/jkwang/Desktop/nacl_sdk/pepper_canary/toolchain/mac_pnacl/bin/../x86_64-nacl/lib/libpthread.a(nc_mutex.o)
 .debug_ranges  0x00000000000002d0        0x0 /Users/jkwang/Desktop/nacl_sdk/pepper_canary/toolchain/mac_pnacl/bin/../x86_64-nacl/lib/libpthread.a(nc_condvar.o)
 .debug_ranges  0x00000000000002d0        0x0 /Users/jkwang/Desktop/nacl_sdk/pepper_canary/toolchain/mac_pnacl/bin/../x86_64-nacl/lib/libpthread.a(valgrind_annotations.o)
 .debug_ranges  0x00000000000002d0        0x0 /Users/jkwang/Desktop/nacl_sdk/pepper_canary/toolchain/mac_pnacl/bin/../x86_64-nacl/lib/libpthread.a(nc_init_irt.o)
 .debug_ranges  0x00000000000002d0       0x18 /Users/jkwang/Desktop/nacl_sdk/pepper_canary/toolchain/mac_pnacl/bin/../x86_64-nacl/lib/libnacl.a(nacl_irt.o)
 .debug_ranges  0x00000000000002e8        0x0 /Users/jkwang/Desktop/nacl_sdk/pepper_canary/toolchain/mac_pnacl/bin/../x86_64-nacl/lib/libnacl.a(_exit.o)
 .debug_ranges  0x00000000000002e8        0x0 /Users/jkwang/Desktop/nacl_sdk/pepper_canary/toolchain/mac_pnacl/bin/../x86_64-nacl/lib/libnacl.a(mmap.o)
 .debug_ranges  0x00000000000002e8        0x0 /Users/jkwang/Desktop/nacl_sdk/pepper_canary/toolchain/mac_pnacl/bin/../x86_64-nacl/lib/libnacl.a(munmap.o)
 .debug_ranges  0x00000000000002e8        0x0 /Users/jkwang/Desktop/nacl_sdk/pepper_canary/toolchain/mac_pnacl/bin/../x86_64-nacl/lib/libnacl.a(nacl_interface_query.o)
 .debug_ranges  0x00000000000002e8        0x0 /Users/jkwang/Desktop/nacl_sdk/pepper_canary/toolchain/mac_pnacl/bin/../x86_64-nacl/lib/libnacl.a(write.o)
 .debug_ranges  0x00000000000002e8        0x0 /Users/jkwang/Desktop/nacl_sdk/pepper_canary/toolchain/mac_pnacl/bin/../x86_64-nacl/lib/libnacl.a(environ.o)
 .debug_ranges  0x00000000000002e8     0x1268 /Users/jkwang/Desktop/nacl_sdk/pepper_canary/toolchain/mac_pnacl/bin/../x86_64-nacl/lib/libnacl.a(malloc.o)
 .debug_ranges  0x0000000000001550        0x0 /Users/jkwang/Desktop/nacl_sdk/pepper_canary/toolchain/mac_pnacl/bin/../x86_64-nacl/lib/libnacl.a(start.o)
 .debug_ranges  0x0000000000001550        0x0 /Users/jkwang/Desktop/nacl_sdk/pepper_canary/toolchain/mac_pnacl/bin/../x86_64-nacl/lib/libnacl.a(nacl_add_tp.o)
 .debug_ranges  0x0000000000001550        0x0 /Users/jkwang/Desktop/nacl_sdk/pepper_canary/toolchain/mac_pnacl/bin/../x86_64-nacl/lib/libnacl.a(nacl_read_tp.o)
 .debug_ranges  0x0000000000001550        0x0 /Users/jkwang/Desktop/nacl_sdk/pepper_canary/toolchain/mac_pnacl/bin/../x86_64-nacl/lib/libnacl.a(pthread_initialize_minimal.o)
 .debug_ranges  0x0000000000001550       0xc0 /Users/jkwang/Desktop/nacl_sdk/pepper_canary/toolchain/mac_pnacl/bin/../x86_64-nacl/lib/libnacl.a(tls.o)
 .debug_ranges  0x0000000000001610        0x0 /Users/jkwang/Desktop/nacl_sdk/pepper_canary/toolchain/mac_pnacl/bin/../x86_64-nacl/lib/libnacl.a(nacl_irt_init.o)
 .debug_ranges  0x0000000000001610        0x0 /Users/jkwang/Desktop/nacl_sdk/pepper_canary/toolchain/mac_pnacl/bin/../x86_64-nacl/lib/libnacl.a(nacl_tls_get.o)
 .debug_ranges  0x0000000000001610        0x0 /Users/jkwang/Desktop/nacl_sdk/pepper_canary/toolchain/mac_pnacl/bin/../x86_64-nacl/lib/libnacl.a(nacl_tls_init.o)
 .debug_ranges  0x0000000000001610        0x0 /Users/jkwang/Desktop/nacl_sdk/pepper_canary/toolchain/mac_pnacl/bin/../x86_64-nacl/lib/libnacl.a(abort.o)
 .debug_ranges  0x0000000000001610        0x0 /Users/jkwang/Desktop/nacl_sdk/pepper_canary/toolchain/mac_pnacl/bin/../x86_64-nacl/lib/libnacl.a(sched_yield.o)
 .debug_ranges  0x0000000000001610        0x0 /Users/jkwang/Desktop/nacl_sdk/pepper_canary/toolchain/mac_pnacl/bin/../x86_64-nacl/lib/libnacl.a(sysconf.o)
 .debug_ranges  0x0000000000001610        0x0 /Users/jkwang/Desktop/nacl_sdk/pepper_canary/toolchain/mac_pnacl/bin/../x86_64-nacl/lib/libcrt_common.a(lib_a-atexit.o)
 .debug_ranges  0x0000000000001610        0x0 /Users/jkwang/Desktop/nacl_sdk/pepper_canary/toolchain/mac_pnacl/bin/../x86_64-nacl/lib/libcrt_common.a(lib_a-errno.o)
 .debug_ranges  0x0000000000001610        0x0 /Users/jkwang/Desktop/nacl_sdk/pepper_canary/toolchain/mac_pnacl/bin/../x86_64-nacl/lib/libcrt_common.a(lib_a-exit.o)
 .debug_ranges  0x0000000000001610       0x50 /Users/jkwang/Desktop/nacl_sdk/pepper_canary/toolchain/mac_pnacl/bin/../x86_64-nacl/lib/libcrt_common.a(lib_a-fflush.o)
 .debug_ranges  0x0000000000001660       0x88 /Users/jkwang/Desktop/nacl_sdk/pepper_canary/toolchain/mac_pnacl/bin/../x86_64-nacl/lib/libcrt_common.a(lib_a-findfp.o)
 .debug_ranges  0x00000000000016e8        0x0 /Users/jkwang/Desktop/nacl_sdk/pepper_canary/toolchain/mac_pnacl/bin/../x86_64-nacl/lib/libcrt_common.a(lib_a-fini.o)
 .debug_ranges  0x00000000000016e8       0x18 /Users/jkwang/Desktop/nacl_sdk/pepper_canary/toolchain/mac_pnacl/bin/../x86_64-nacl/lib/libcrt_common.a(lib_a-fprintf.o)
 .debug_ranges  0x0000000000001700       0x30 /Users/jkwang/Desktop/nacl_sdk/pepper_canary/toolchain/mac_pnacl/bin/../x86_64-nacl/lib/libcrt_common.a(lib_a-fwalk.o)
 .debug_ranges  0x0000000000001730       0x18 /Users/jkwang/Desktop/nacl_sdk/pepper_canary/toolchain/mac_pnacl/bin/../x86_64-nacl/lib/libcrt_common.a(lib_a-fwrite.o)
 .debug_ranges  0x0000000000001748       0x18 /Users/jkwang/Desktop/nacl_sdk/pepper_canary/toolchain/mac_pnacl/bin/../x86_64-nacl/lib/libcrt_common.a(lib_a-getenv.o)
 .debug_ranges  0x0000000000001760       0x18 /Users/jkwang/Desktop/nacl_sdk/pepper_canary/toolchain/mac_pnacl/bin/../x86_64-nacl/lib/libcrt_common.a(lib_a-getenv_r.o)
 .debug_ranges  0x0000000000001778       0x18 /Users/jkwang/Desktop/nacl_sdk/pepper_canary/toolchain/mac_pnacl/bin/../x86_64-nacl/lib/libcrt_common.a(lib_a-impure.o)
 .debug_ranges  0x0000000000001790        0x0 /Users/jkwang/Desktop/nacl_sdk/pepper_canary/toolchain/mac_pnacl/bin/../x86_64-nacl/lib/libcrt_common.a(lib_a-init.o)
 .debug_ranges  0x0000000000001790        0x0 /Users/jkwang/Desktop/nacl_sdk/pepper_canary/toolchain/mac_pnacl/bin/../x86_64-nacl/lib/libcrt_common.a(lib_a-sleep.o)
 .debug_ranges  0x0000000000001790       0x30 /Users/jkwang/Desktop/nacl_sdk/pepper_canary/toolchain/mac_pnacl/bin/../x86_64-nacl/lib/libcrt_common.a(lib_a-stdio.o)
 .debug_ranges  0x00000000000017c0        0x0 /Users/jkwang/Desktop/nacl_sdk/pepper_canary/toolchain/mac_pnacl/bin/../x86_64-nacl/lib/libcrt_common.a(lib_a-strcat.o)
 .debug_ranges  0x00000000000017c0        0x0 /Users/jkwang/Desktop/nacl_sdk/pepper_canary/toolchain/mac_pnacl/bin/../x86_64-nacl/lib/libcrt_common.a(lib_a-strcmp.o)
 .debug_ranges  0x00000000000017c0        0x0 /Users/jkwang/Desktop/nacl_sdk/pepper_canary/toolchain/mac_pnacl/bin/../x86_64-nacl/lib/libcrt_common.a(lib_a-strcpy.o)
 .debug_ranges  0x00000000000017c0        0x0 /Users/jkwang/Desktop/nacl_sdk/pepper_canary/toolchain/mac_pnacl/bin/../x86_64-nacl/lib/libcrt_common.a(lib_a-strlen.o)
 .debug_ranges  0x00000000000017c0        0x0 /Users/jkwang/Desktop/nacl_sdk/pepper_canary/toolchain/mac_pnacl/bin/../x86_64-nacl/lib/libcrt_common.a(lib_a-strncmp.o)
 .debug_ranges  0x00000000000017c0      0x168 /Users/jkwang/Desktop/nacl_sdk/pepper_canary/toolchain/mac_pnacl/bin/../x86_64-nacl/lib/libcrt_common.a(lib_a-vfprintf.o)
 .debug_ranges  0x0000000000001928       0x18 /Users/jkwang/Desktop/nacl_sdk/pepper_canary/toolchain/mac_pnacl/bin/../x86_64-nacl/lib/libcrt_common.a(lib_a-vsnprintf.o)
 .debug_ranges  0x0000000000001940       0x18 /Users/jkwang/Desktop/nacl_sdk/pepper_canary/toolchain/mac_pnacl/bin/../x86_64-nacl/lib/libcrt_common.a(lib_a-vsprintf.o)
 .debug_ranges  0x0000000000001958       0x18 /Users/jkwang/Desktop/nacl_sdk/pepper_canary/toolchain/mac_pnacl/bin/../x86_64-nacl/lib/libcrt_common.a(lib_a-wcrtomb.o)
 .debug_ranges  0x0000000000001970       0x18 /Users/jkwang/Desktop/nacl_sdk/pepper_canary/toolchain/mac_pnacl/bin/../x86_64-nacl/lib/libcrt_common.a(lib_a-wcsrtombs.o)
 .debug_ranges  0x0000000000001988       0x38 /Users/jkwang/Desktop/nacl_sdk/pepper_canary/toolchain/mac_pnacl/bin/../x86_64-nacl/lib/libcrt_common.a(lib_a-wctomb_r.o)
 .debug_ranges  0x00000000000019c0        0x0 /Users/jkwang/Desktop/nacl_sdk/pepper_canary/toolchain/mac_pnacl/bin/../x86_64-nacl/lib/libcrt_common.a(lib_a-wsetup.o)
 .debug_ranges  0x00000000000019c0        0x0 /Users/jkwang/Desktop/nacl_sdk/pepper_canary/toolchain/mac_pnacl/bin/../x86_64-nacl/lib/libcrt_common.a(lib_a-__atexit.o)
 .debug_ranges  0x00000000000019c0        0x0 /Users/jkwang/Desktop/nacl_sdk/pepper_canary/toolchain/mac_pnacl/bin/../x86_64-nacl/lib/libcrt_common.a(lib_a-__call_atexit.o)
 .debug_ranges  0x00000000000019c0       0x18 /Users/jkwang/Desktop/nacl_sdk/pepper_canary/toolchain/mac_pnacl/bin/../x86_64-nacl/lib/libcrt_common.a(lib_a-dtoa.o)
 .debug_ranges  0x00000000000019d8       0x18 /Users/jkwang/Desktop/nacl_sdk/pepper_canary/toolchain/mac_pnacl/bin/../x86_64-nacl/lib/libcrt_common.a(lib_a-envlock.o)
 .debug_ranges  0x00000000000019f0       0x18 /Users/jkwang/Desktop/nacl_sdk/pepper_canary/toolchain/mac_pnacl/bin/../x86_64-nacl/lib/libcrt_common.a(lib_a-fclose.o)
 .debug_ranges  0x0000000000001a08       0x20 /Users/jkwang/Desktop/nacl_sdk/pepper_canary/toolchain/mac_pnacl/bin/../x86_64-nacl/lib/libcrt_common.a(lib_a-fvwrite.o)
 .debug_ranges  0x0000000000001a28       0x58 /Users/jkwang/Desktop/nacl_sdk/pepper_canary/toolchain/mac_pnacl/bin/../x86_64-nacl/lib/libcrt_common.a(lib_a-locale.o)
 .debug_ranges  0x0000000000001a80        0x0 /Users/jkwang/Desktop/nacl_sdk/pepper_canary/toolchain/mac_pnacl/bin/../x86_64-nacl/lib/libcrt_common.a(lib_a-makebuf.o)
 .debug_ranges  0x0000000000001a80       0x78 /Users/jkwang/Desktop/nacl_sdk/pepper_canary/toolchain/mac_pnacl/bin/../x86_64-nacl/lib/libcrt_common.a(lib_a-mbtowc_r.o)
 .debug_ranges  0x0000000000001af8        0x0 /Users/jkwang/Desktop/nacl_sdk/pepper_canary/toolchain/mac_pnacl/bin/../x86_64-nacl/lib/libcrt_common.a(lib_a-memchr.o)
 .debug_ranges  0x0000000000001af8        0x0 /Users/jkwang/Desktop/nacl_sdk/pepper_canary/toolchain/mac_pnacl/bin/../x86_64-nacl/lib/libcrt_common.a(lib_a-memmove.o)
 .debug_ranges  0x0000000000001af8      0x1f0 /Users/jkwang/Desktop/nacl_sdk/pepper_canary/toolchain/mac_pnacl/bin/../x86_64-nacl/lib/libcrt_common.a(lib_a-mprec.o)
 .debug_ranges  0x0000000000001ce8        0x0 /Users/jkwang/Desktop/nacl_sdk/pepper_canary/toolchain/mac_pnacl/bin/../x86_64-nacl/lib/libcrt_common.a(lib_a-s_fpclassify.o)
 .debug_ranges  0x0000000000001ce8        0x0 /Users/jkwang/Desktop/nacl_sdk/pepper_canary/toolchain/mac_pnacl/bin/../x86_64-nacl/lib/libcrt_common.a(lib_a-s_frexp.o)
 .debug_ranges  0x0000000000001ce8       0x40 /Users/jkwang/Desktop/nacl_sdk/pepper_canary/toolchain/mac_pnacl/bin/../x86_64-nacl/lib/libcrt_common.a(lib_a-strcasecmp.o)
 .debug_ranges  0x0000000000001d28        0x0 /Users/jkwang/Desktop/nacl_sdk/pepper_canary/toolchain/mac_pnacl/bin/../x86_64-nacl/lib/libcrt_common.a(lib_a-strchr.o)
 .debug_ranges  0x0000000000001d28        0x0 /Users/jkwang/Desktop/nacl_sdk/pepper_canary/toolchain/mac_pnacl/bin/../x86_64-nacl/lib/libcrt_common.a(lib_a-strlcpy.o)
 .debug_ranges  0x0000000000001d28       0x40 /Users/jkwang/Desktop/nacl_sdk/pepper_canary/toolchain/mac_pnacl/bin/../x86_64-nacl/lib/libcrt_common.a(lib_a-strncasecmp.o)
 .debug_ranges  0x0000000000001d68        0x0 /Users/jkwang/Desktop/nacl_sdk/pepper_canary/toolchain/mac_pnacl/bin/../x86_64-nacl/lib/libcrt_common.a(lib_a-strncpy.o)
 .debug_ranges  0x0000000000001d68       0x18 /Users/jkwang/Desktop/nacl_sdk/pepper_canary/toolchain/mac_pnacl/bin/../x86_64-nacl/lib/libcrt_common.a(lib_a-strtol.o)
 .debug_ranges  0x0000000000001d80      0x148 /Users/jkwang/Desktop/nacl_sdk/pepper_canary/toolchain/mac_pnacl/bin/../x86_64-nacl/lib/libcrt_common.a(lib_a-svfprintf.o)
 .debug_ranges  0x0000000000001ec8      0x248 /Users/jkwang/Desktop/nacl_sdk/pepper_canary/toolchain/mac_pnacl/bin/../x86_64-nacl/lib/libcrt_common.a(lib_a-vfiprintf.o)
 .debug_ranges  0x0000000000002110       0x30 /Users/jkwang/Desktop/nacl_sdk/pepper_canary/toolchain/mac_pnacl/bin/../x86_64-nacl/lib/libcrt_common.a(lib_a-wcsnrtombs.o)
 .debug_ranges  0x0000000000002140        0x0 /Users/jkwang/Desktop/nacl_sdk/pepper_canary/toolchain/mac_pnacl/bin/../x86_64-nacl/lib/libcrt_common.a(lib_a-ctype_.o)
 .debug_ranges  0x0000000000002140       0x30 /Users/jkwang/Desktop/nacl_sdk/pepper_canary/toolchain/mac_pnacl/bin/../x86_64-nacl/lib/libcrt_common.a(lib_a-fputwc.o)
 .debug_ranges  0x0000000000002170       0x78 /Users/jkwang/Desktop/nacl_sdk/pepper_canary/toolchain/mac_pnacl/bin/../x86_64-nacl/lib/libcrt_common.a(lib_a-svfiprintf.o)
 .debug_ranges  0x00000000000021e8       0x18 /Users/jkwang/Desktop/nacl_sdk/pepper_canary/toolchain/mac_pnacl/bin/../x86_64-nacl/lib/libcrt_common.a(lib_a-wbuf.o)
 .debug_ranges  0x0000000000002200        0x0 /Users/jkwang/Desktop/nacl_sdk/pepper_canary/toolchain/mac_pnacl/bin/../x86_64-nacl/lib/libnacl.a(close.o)
 .debug_ranges  0x0000000000002200        0x0 /Users/jkwang/Desktop/nacl_sdk/pepper_canary/toolchain/mac_pnacl/bin/../x86_64-nacl/lib/libnacl.a(fstat.o)
 .debug_ranges  0x0000000000002200        0x0 /Users/jkwang/Desktop/nacl_sdk/pepper_canary/toolchain/mac_pnacl/bin/../x86_64-nacl/lib/libnacl.a(isatty.o)
 .debug_ranges  0x0000000000002200        0x0 /Users/jkwang/Desktop/nacl_sdk/pepper_canary/toolchain/mac_pnacl/bin/../x86_64-nacl/lib/libnacl.a(lseek.o)
 .debug_ranges  0x0000000000002200        0x0 /Users/jkwang/Desktop/nacl_sdk/pepper_canary/toolchain/mac_pnacl/bin/../x86_64-nacl/lib/libnacl.a(nanosleep.o)
 .debug_ranges  0x0000000000002200        0x0 /Users/jkwang/Desktop/nacl_sdk/pepper_canary/toolchain/mac_pnacl/bin/../x86_64-nacl/lib/libnacl.a(nacl_irt_fdio.o)
 .debug_ranges  0x0000000000002200        0x0 /Users/jkwang/Desktop/nacl_sdk/pepper_canary/toolchain/mac_pnacl/bin/../x86_64-nacl/lib/libnacl.a(read.o)
 .debug_ranges  0x0000000000002200      0x700 /Users/jkwang/Desktop/nacl_sdk/pepper_canary/toolchain/mac_pnacl/bin/../lib/clang/3.7.0/lib/x86_64-nacl/libgcc_eh.a(unwind-dw2-fde-glibc.o)

.debug_macro
 *(.debug_macro)

.gnu.attributes
 *(.gnu.attributes)

/DISCARD/
 *(.note.GNU-stack)
 *(.gnu_debuglink)
 *(.gnu.lto_*)
OUTPUT(clang-newlib/Release/debugging_unstripped_x86_64.nexe elf64-x86-64-nacl)
