Archive member included to satisfy reference by file (symbol)

/Users/jkwang/Desktop/nacl_sdk/pepper_canary/lib/clang-newlib_arm/Release/liberror_handling.a(error_handling_arm.o)
                              clang-newlib/Release/debugging_arm.o (EHRequestExceptionsJson)
/Users/jkwang/Desktop/nacl_sdk/pepper_canary/lib/clang-newlib_arm/Release/liberror_handling.a(string_stream_arm.o)
                              /Users/jkwang/Desktop/nacl_sdk/pepper_canary/lib/clang-newlib_arm/Release/liberror_handling.a(error_handling_arm.o) (ssinit)
/Users/jkwang/Desktop/nacl_sdk/pepper_canary/toolchain/mac_pnacl/bin/../arm-nacl/lib/libppapi_stub.a(plugin_main_irt.o)
                              (main)
/Users/jkwang/Desktop/nacl_sdk/pepper_canary/toolchain/mac_pnacl/bin/../arm-nacl/lib/libppapi_stub.a(ppapi_plugin_main.o)
                              /Users/jkwang/Desktop/nacl_sdk/pepper_canary/toolchain/mac_pnacl/bin/../arm-nacl/lib/libppapi_stub.a(plugin_main_irt.o) (PpapiPluginMain)
/Users/jkwang/Desktop/nacl_sdk/pepper_canary/toolchain/mac_pnacl/bin/../arm-nacl/lib/libppapi_stub.a(ppapi_plugin_start.o)
                              /Users/jkwang/Desktop/nacl_sdk/pepper_canary/toolchain/mac_pnacl/bin/../arm-nacl/lib/libppapi_stub.a(ppapi_plugin_main.o) (PpapiPluginStart)
/Users/jkwang/Desktop/nacl_sdk/pepper_canary/toolchain/mac_pnacl/bin/../arm-nacl/lib/libppapi_stub.a(thread_creator.o)
                              /Users/jkwang/Desktop/nacl_sdk/pepper_canary/toolchain/mac_pnacl/bin/../arm-nacl/lib/libppapi_stub.a(ppapi_plugin_start.o) (__nacl_register_thread_creator)
/Users/jkwang/Desktop/nacl_sdk/pepper_canary/toolchain/mac_pnacl/bin/../arm-nacl/lib/libpthread.a(nc_thread.o)
                              clang-newlib/Release/debugging_arm.o (pthread_create)
/Users/jkwang/Desktop/nacl_sdk/pepper_canary/toolchain/mac_pnacl/bin/../arm-nacl/lib/libpthread.a(nc_mutex.o)
                              /Users/jkwang/Desktop/nacl_sdk/pepper_canary/toolchain/mac_pnacl/bin/../arm-nacl/lib/libpthread.a(nc_thread.o) (pthread_mutex_destroy)
/Users/jkwang/Desktop/nacl_sdk/pepper_canary/toolchain/mac_pnacl/bin/../arm-nacl/lib/libpthread.a(nc_condvar.o)
                              /Users/jkwang/Desktop/nacl_sdk/pepper_canary/toolchain/mac_pnacl/bin/../arm-nacl/lib/libpthread.a(nc_thread.o) (pthread_cond_destroy)
/Users/jkwang/Desktop/nacl_sdk/pepper_canary/toolchain/mac_pnacl/bin/../arm-nacl/lib/libpthread.a(valgrind_annotations.o)
                              /Users/jkwang/Desktop/nacl_sdk/pepper_canary/toolchain/mac_pnacl/bin/../arm-nacl/lib/libpthread.a(nc_thread.o) (NACL_AnnotateCondVarWait)
/Users/jkwang/Desktop/nacl_sdk/pepper_canary/toolchain/mac_pnacl/bin/../arm-nacl/lib/libpthread.a(nc_init_irt.o)
                              /Users/jkwang/Desktop/nacl_sdk/pepper_canary/toolchain/mac_pnacl/bin/../arm-nacl/lib/libpthread.a(nc_mutex.o) (__libnacl_irt_futex)
/Users/jkwang/Desktop/nacl_sdk/pepper_canary/toolchain/mac_pnacl/bin/../arm-nacl/lib/libnacl.a(nacl_irt.o)
                              /Users/jkwang/Desktop/nacl_sdk/pepper_canary/toolchain/mac_pnacl/bin/../arm-nacl/lib/libpthread.a(nc_init_irt.o) (__libnacl_mandatory_irt_query)
/Users/jkwang/Desktop/nacl_sdk/pepper_canary/toolchain/mac_pnacl/bin/../arm-nacl/lib/libnacl.a(_exit.o)
                              (_exit)
/Users/jkwang/Desktop/nacl_sdk/pepper_canary/toolchain/mac_pnacl/bin/../arm-nacl/lib/libnacl.a(mmap.o)
                              /Users/jkwang/Desktop/nacl_sdk/pepper_canary/lib/clang-newlib_arm/Release/liberror_handling.a(error_handling_arm.o) (mmap)
/Users/jkwang/Desktop/nacl_sdk/pepper_canary/toolchain/mac_pnacl/bin/../arm-nacl/lib/libnacl.a(munmap.o)
                              /Users/jkwang/Desktop/nacl_sdk/pepper_canary/lib/clang-newlib_arm/Release/liberror_handling.a(error_handling_arm.o) (munmap)
/Users/jkwang/Desktop/nacl_sdk/pepper_canary/toolchain/mac_pnacl/bin/../arm-nacl/lib/libnacl.a(nacl_interface_query.o)
                              /Users/jkwang/Desktop/nacl_sdk/pepper_canary/lib/clang-newlib_arm/Release/liberror_handling.a(error_handling_arm.o) (nacl_interface_query)
/Users/jkwang/Desktop/nacl_sdk/pepper_canary/toolchain/mac_pnacl/bin/../arm-nacl/lib/libnacl.a(write.o)
                              /Users/jkwang/Desktop/nacl_sdk/pepper_canary/toolchain/mac_pnacl/bin/../arm-nacl/lib/libppapi_stub.a(ppapi_plugin_start.o) (write)
/Users/jkwang/Desktop/nacl_sdk/pepper_canary/toolchain/mac_pnacl/bin/../arm-nacl/lib/libnacl.a(environ.o)
                              /Users/jkwang/Desktop/nacl_sdk/pepper_canary/toolchain/mac_pnacl/bin/../arm-nacl/lib/libppapi_stub.a(ppapi_plugin_start.o) (environ)
/Users/jkwang/Desktop/nacl_sdk/pepper_canary/toolchain/mac_pnacl/bin/../arm-nacl/lib/libnacl.a(malloc.o)
                              /Users/jkwang/Desktop/nacl_sdk/pepper_canary/toolchain/mac_pnacl/bin/../arm-nacl/lib/libpthread.a(nc_thread.o) (calloc)
/Users/jkwang/Desktop/nacl_sdk/pepper_canary/toolchain/mac_pnacl/bin/../arm-nacl/lib/libnacl.a(start.o)
                              (_start)
/Users/jkwang/Desktop/nacl_sdk/pepper_canary/toolchain/mac_pnacl/bin/../arm-nacl/lib/libnacl.a(nacl_read_tp.o)
                              /Users/jkwang/Desktop/nacl_sdk/pepper_canary/toolchain/mac_pnacl/bin/../arm-nacl/lib/libpthread.a(nc_thread.o) (__nacl_read_tp)
/Users/jkwang/Desktop/nacl_sdk/pepper_canary/toolchain/mac_pnacl/bin/../arm-nacl/lib/libnacl.a(pthread_initialize_minimal.o)
                              /Users/jkwang/Desktop/nacl_sdk/pepper_canary/toolchain/mac_pnacl/bin/../arm-nacl/lib/libpthread.a(nc_thread.o) (__pthread_initialize_minimal)
/Users/jkwang/Desktop/nacl_sdk/pepper_canary/toolchain/mac_pnacl/bin/../arm-nacl/lib/libnacl.a(tls.o)
                              /Users/jkwang/Desktop/nacl_sdk/pepper_canary/toolchain/mac_pnacl/bin/../arm-nacl/lib/libpthread.a(nc_thread.o) (__nacl_tls_combined_size)
/Users/jkwang/Desktop/nacl_sdk/pepper_canary/toolchain/mac_pnacl/bin/../arm-nacl/lib/libnacl.a(nacl_irt_init.o)
                              /Users/jkwang/Desktop/nacl_sdk/pepper_canary/toolchain/mac_pnacl/bin/../arm-nacl/lib/libnacl.a(start.o) (__libnacl_irt_init)
/Users/jkwang/Desktop/nacl_sdk/pepper_canary/toolchain/mac_pnacl/bin/../arm-nacl/lib/libnacl.a(nacl_tls_get.o)
                              /Users/jkwang/Desktop/nacl_sdk/pepper_canary/toolchain/mac_pnacl/bin/../arm-nacl/lib/libnacl.a(nacl_read_tp.o) (nacl_tls_get)
/Users/jkwang/Desktop/nacl_sdk/pepper_canary/toolchain/mac_pnacl/bin/../arm-nacl/lib/libnacl.a(nacl_tls_init.o)
                              /Users/jkwang/Desktop/nacl_sdk/pepper_canary/toolchain/mac_pnacl/bin/../arm-nacl/lib/libnacl.a(pthread_initialize_minimal.o) (nacl_tls_init)
/Users/jkwang/Desktop/nacl_sdk/pepper_canary/toolchain/mac_pnacl/bin/../arm-nacl/lib/libnacl.a(abort.o)
                              /Users/jkwang/Desktop/nacl_sdk/pepper_canary/toolchain/mac_pnacl/bin/../arm-nacl/lib/libnacl.a(malloc.o) (abort)
/Users/jkwang/Desktop/nacl_sdk/pepper_canary/toolchain/mac_pnacl/bin/../arm-nacl/lib/libnacl.a(sched_yield.o)
                              /Users/jkwang/Desktop/nacl_sdk/pepper_canary/toolchain/mac_pnacl/bin/../arm-nacl/lib/libnacl.a(malloc.o) (sched_yield)
/Users/jkwang/Desktop/nacl_sdk/pepper_canary/toolchain/mac_pnacl/bin/../arm-nacl/lib/libnacl.a(sysconf.o)
                              /Users/jkwang/Desktop/nacl_sdk/pepper_canary/toolchain/mac_pnacl/bin/../arm-nacl/lib/libnacl.a(malloc.o) (sysconf)
/Users/jkwang/Desktop/nacl_sdk/pepper_canary/toolchain/mac_pnacl/bin/../arm-nacl/lib/libcrt_common.a(lib_a-atexit.o)
                              /Users/jkwang/Desktop/nacl_sdk/pepper_canary/toolchain/mac_pnacl/bin/../arm-nacl/lib/libnacl.a(start.o) (atexit)
/Users/jkwang/Desktop/nacl_sdk/pepper_canary/toolchain/mac_pnacl/bin/../arm-nacl/lib/libcrt_common.a(lib_a-errno.o)
                              /Users/jkwang/Desktop/nacl_sdk/pepper_canary/toolchain/mac_pnacl/bin/../arm-nacl/lib/libnacl.a(nacl_irt.o) (__errno)
/Users/jkwang/Desktop/nacl_sdk/pepper_canary/toolchain/mac_pnacl/bin/../arm-nacl/lib/libcrt_common.a(lib_a-exit.o)
                              (exit)
/Users/jkwang/Desktop/nacl_sdk/pepper_canary/toolchain/mac_pnacl/bin/../arm-nacl/lib/libcrt_common.a(lib_a-fflush.o)
                              clang-newlib/Release/debugging_arm.o (fflush)
/Users/jkwang/Desktop/nacl_sdk/pepper_canary/toolchain/mac_pnacl/bin/../arm-nacl/lib/libcrt_common.a(lib_a-findfp.o)
                              /Users/jkwang/Desktop/nacl_sdk/pepper_canary/toolchain/mac_pnacl/bin/../arm-nacl/lib/libcrt_common.a(lib_a-fflush.o) (__sinit)
/Users/jkwang/Desktop/nacl_sdk/pepper_canary/toolchain/mac_pnacl/bin/../arm-nacl/lib/libcrt_common.a(lib_a-fini.o)
                              /Users/jkwang/Desktop/nacl_sdk/pepper_canary/toolchain/mac_pnacl/bin/../arm-nacl/lib/libnacl.a(start.o) (__libc_fini_array)
/Users/jkwang/Desktop/nacl_sdk/pepper_canary/toolchain/mac_pnacl/bin/../arm-nacl/lib/libcrt_common.a(lib_a-fprintf.o)
                              clang-newlib/Release/debugging_arm.o (fprintf)
/Users/jkwang/Desktop/nacl_sdk/pepper_canary/toolchain/mac_pnacl/bin/../arm-nacl/lib/libcrt_common.a(lib_a-fwalk.o)
                              /Users/jkwang/Desktop/nacl_sdk/pepper_canary/toolchain/mac_pnacl/bin/../arm-nacl/lib/libcrt_common.a(lib_a-findfp.o) (_fwalk)
/Users/jkwang/Desktop/nacl_sdk/pepper_canary/toolchain/mac_pnacl/bin/../arm-nacl/lib/libcrt_common.a(lib_a-fwrite.o)
                              /Users/jkwang/Desktop/nacl_sdk/pepper_canary/lib/clang-newlib_arm/Release/liberror_handling.a(error_handling_arm.o) (fwrite)
/Users/jkwang/Desktop/nacl_sdk/pepper_canary/toolchain/mac_pnacl/bin/../arm-nacl/lib/libcrt_common.a(lib_a-getenv.o)
                              /Users/jkwang/Desktop/nacl_sdk/pepper_canary/toolchain/mac_pnacl/bin/../arm-nacl/lib/libpthread.a(valgrind_annotations.o) (getenv)
/Users/jkwang/Desktop/nacl_sdk/pepper_canary/toolchain/mac_pnacl/bin/../arm-nacl/lib/libcrt_common.a(lib_a-getenv_r.o)
                              /Users/jkwang/Desktop/nacl_sdk/pepper_canary/toolchain/mac_pnacl/bin/../arm-nacl/lib/libcrt_common.a(lib_a-getenv.o) (_findenv_r)
/Users/jkwang/Desktop/nacl_sdk/pepper_canary/toolchain/mac_pnacl/bin/../arm-nacl/lib/libcrt_common.a(lib_a-impure.o)
                              clang-newlib/Release/debugging_arm.o (_impure_ptr)
/Users/jkwang/Desktop/nacl_sdk/pepper_canary/toolchain/mac_pnacl/bin/../arm-nacl/lib/libcrt_common.a(lib_a-init.o)
                              /Users/jkwang/Desktop/nacl_sdk/pepper_canary/toolchain/mac_pnacl/bin/../arm-nacl/lib/libnacl.a(start.o) (__libc_init_array)
/Users/jkwang/Desktop/nacl_sdk/pepper_canary/toolchain/mac_pnacl/bin/../arm-nacl/lib/libcrt_common.a(lib_a-memset.o)
                              /Users/jkwang/Desktop/nacl_sdk/pepper_canary/toolchain/mac_pnacl/bin/../arm-nacl/lib/libcrt_common.a(lib_a-findfp.o) (memset)
/Users/jkwang/Desktop/nacl_sdk/pepper_canary/toolchain/mac_pnacl/bin/../arm-nacl/lib/libcrt_common.a(lib_a-sleep.o)
                              /Users/jkwang/Desktop/nacl_sdk/pepper_canary/lib/clang-newlib_arm/Release/liberror_handling.a(error_handling_arm.o) (sleep)
/Users/jkwang/Desktop/nacl_sdk/pepper_canary/toolchain/mac_pnacl/bin/../arm-nacl/lib/libcrt_common.a(lib_a-stdio.o)
                              /Users/jkwang/Desktop/nacl_sdk/pepper_canary/toolchain/mac_pnacl/bin/../arm-nacl/lib/libcrt_common.a(lib_a-findfp.o) (__sread)
/Users/jkwang/Desktop/nacl_sdk/pepper_canary/toolchain/mac_pnacl/bin/../arm-nacl/lib/libcrt_common.a(lib_a-strcat.o)
                              clang-newlib/Release/debugging_arm.o (strcat)
/Users/jkwang/Desktop/nacl_sdk/pepper_canary/toolchain/mac_pnacl/bin/../arm-nacl/lib/libcrt_common.a(lib_a-strcmp.o)
                              clang-newlib/Release/debugging_arm.o (strcmp)
/Users/jkwang/Desktop/nacl_sdk/pepper_canary/toolchain/mac_pnacl/bin/../arm-nacl/lib/libcrt_common.a(lib_a-strcpy.o)
                              /Users/jkwang/Desktop/nacl_sdk/pepper_canary/toolchain/mac_pnacl/bin/../arm-nacl/lib/libcrt_common.a(lib_a-strcat.o) (strcpy)
/Users/jkwang/Desktop/nacl_sdk/pepper_canary/toolchain/mac_pnacl/bin/../arm-nacl/lib/libcrt_common.a(lib_a-strlen-armv7.o)
                              clang-newlib/Release/debugging_arm.o (strlen)
/Users/jkwang/Desktop/nacl_sdk/pepper_canary/toolchain/mac_pnacl/bin/../arm-nacl/lib/libcrt_common.a(lib_a-strncmp.o)
                              /Users/jkwang/Desktop/nacl_sdk/pepper_canary/toolchain/mac_pnacl/bin/../arm-nacl/lib/libcrt_common.a(lib_a-getenv_r.o) (strncmp)
/Users/jkwang/Desktop/nacl_sdk/pepper_canary/toolchain/mac_pnacl/bin/../arm-nacl/lib/libcrt_common.a(lib_a-vfprintf.o)
                              /Users/jkwang/Desktop/nacl_sdk/pepper_canary/toolchain/mac_pnacl/bin/../arm-nacl/lib/libcrt_common.a(lib_a-fprintf.o) (_vfprintf_r)
/Users/jkwang/Desktop/nacl_sdk/pepper_canary/toolchain/mac_pnacl/bin/../arm-nacl/lib/libcrt_common.a(lib_a-vsnprintf.o)
                              /Users/jkwang/Desktop/nacl_sdk/pepper_canary/lib/clang-newlib_arm/Release/liberror_handling.a(string_stream_arm.o) (vsnprintf)
/Users/jkwang/Desktop/nacl_sdk/pepper_canary/toolchain/mac_pnacl/bin/../arm-nacl/lib/libcrt_common.a(lib_a-vsprintf.o)
                              /Users/jkwang/Desktop/nacl_sdk/pepper_canary/lib/clang-newlib_arm/Release/liberror_handling.a(string_stream_arm.o) (vsprintf)
/Users/jkwang/Desktop/nacl_sdk/pepper_canary/toolchain/mac_pnacl/bin/../arm-nacl/lib/libcrt_common.a(lib_a-wcrtomb.o)
                              /Users/jkwang/Desktop/nacl_sdk/pepper_canary/toolchain/mac_pnacl/bin/../arm-nacl/lib/libcrt_common.a(lib_a-vfprintf.o) (_wcrtomb_r)
/Users/jkwang/Desktop/nacl_sdk/pepper_canary/toolchain/mac_pnacl/bin/../arm-nacl/lib/libcrt_common.a(lib_a-wcsrtombs.o)
                              /Users/jkwang/Desktop/nacl_sdk/pepper_canary/toolchain/mac_pnacl/bin/../arm-nacl/lib/libcrt_common.a(lib_a-vfprintf.o) (_wcsrtombs_r)
/Users/jkwang/Desktop/nacl_sdk/pepper_canary/toolchain/mac_pnacl/bin/../arm-nacl/lib/libcrt_common.a(lib_a-wctomb_r.o)
                              /Users/jkwang/Desktop/nacl_sdk/pepper_canary/toolchain/mac_pnacl/bin/../arm-nacl/lib/libcrt_common.a(lib_a-wcrtomb.o) (__wctomb)
/Users/jkwang/Desktop/nacl_sdk/pepper_canary/toolchain/mac_pnacl/bin/../arm-nacl/lib/libcrt_common.a(lib_a-wsetup.o)
                              /Users/jkwang/Desktop/nacl_sdk/pepper_canary/toolchain/mac_pnacl/bin/../arm-nacl/lib/libcrt_common.a(lib_a-vfprintf.o) (__swsetup_r)
/Users/jkwang/Desktop/nacl_sdk/pepper_canary/toolchain/mac_pnacl/bin/../arm-nacl/lib/libcrt_common.a(lib_a-__atexit.o)
                              /Users/jkwang/Desktop/nacl_sdk/pepper_canary/toolchain/mac_pnacl/bin/../arm-nacl/lib/libcrt_common.a(lib_a-atexit.o) (__register_exitproc)
/Users/jkwang/Desktop/nacl_sdk/pepper_canary/toolchain/mac_pnacl/bin/../arm-nacl/lib/libcrt_common.a(lib_a-__call_atexit.o)
                              /Users/jkwang/Desktop/nacl_sdk/pepper_canary/toolchain/mac_pnacl/bin/../arm-nacl/lib/libcrt_common.a(lib_a-exit.o) (__call_exitprocs)
/Users/jkwang/Desktop/nacl_sdk/pepper_canary/toolchain/mac_pnacl/bin/../arm-nacl/lib/libcrt_common.a(lib_a-dtoa.o)
                              /Users/jkwang/Desktop/nacl_sdk/pepper_canary/toolchain/mac_pnacl/bin/../arm-nacl/lib/libcrt_common.a(lib_a-vfprintf.o) (_dtoa_r)
/Users/jkwang/Desktop/nacl_sdk/pepper_canary/toolchain/mac_pnacl/bin/../arm-nacl/lib/libcrt_common.a(lib_a-envlock.o)
                              /Users/jkwang/Desktop/nacl_sdk/pepper_canary/toolchain/mac_pnacl/bin/../arm-nacl/lib/libcrt_common.a(lib_a-getenv_r.o) (__env_lock)
/Users/jkwang/Desktop/nacl_sdk/pepper_canary/toolchain/mac_pnacl/bin/../arm-nacl/lib/libcrt_common.a(lib_a-fclose.o)
                              /Users/jkwang/Desktop/nacl_sdk/pepper_canary/toolchain/mac_pnacl/bin/../arm-nacl/lib/libcrt_common.a(lib_a-findfp.o) (_fclose_r)
/Users/jkwang/Desktop/nacl_sdk/pepper_canary/toolchain/mac_pnacl/bin/../arm-nacl/lib/libcrt_common.a(lib_a-fvwrite.o)
                              /Users/jkwang/Desktop/nacl_sdk/pepper_canary/toolchain/mac_pnacl/bin/../arm-nacl/lib/libcrt_common.a(lib_a-fwrite.o) (__sfvwrite_r)
/Users/jkwang/Desktop/nacl_sdk/pepper_canary/toolchain/mac_pnacl/bin/../arm-nacl/lib/libcrt_common.a(lib_a-locale.o)
                              /Users/jkwang/Desktop/nacl_sdk/pepper_canary/toolchain/mac_pnacl/bin/../arm-nacl/lib/libcrt_common.a(lib_a-vfprintf.o) (__locale_charset)
/Users/jkwang/Desktop/nacl_sdk/pepper_canary/toolchain/mac_pnacl/bin/../arm-nacl/lib/libcrt_common.a(lib_a-makebuf.o)
                              /Users/jkwang/Desktop/nacl_sdk/pepper_canary/toolchain/mac_pnacl/bin/../arm-nacl/lib/libcrt_common.a(lib_a-wsetup.o) (__smakebuf_r)
/Users/jkwang/Desktop/nacl_sdk/pepper_canary/toolchain/mac_pnacl/bin/../arm-nacl/lib/libcrt_common.a(lib_a-mbtowc_r.o)
                              /Users/jkwang/Desktop/nacl_sdk/pepper_canary/toolchain/mac_pnacl/bin/../arm-nacl/lib/libcrt_common.a(lib_a-locale.o) (__ascii_mbtowc)
/Users/jkwang/Desktop/nacl_sdk/pepper_canary/toolchain/mac_pnacl/bin/../arm-nacl/lib/libcrt_common.a(lib_a-memchr.o)
                              /Users/jkwang/Desktop/nacl_sdk/pepper_canary/toolchain/mac_pnacl/bin/../arm-nacl/lib/libcrt_common.a(lib_a-vfprintf.o) (memchr)
/Users/jkwang/Desktop/nacl_sdk/pepper_canary/toolchain/mac_pnacl/bin/../arm-nacl/lib/libcrt_common.a(lib_a-memcpy.o)
                              /Users/jkwang/Desktop/nacl_sdk/pepper_canary/toolchain/mac_pnacl/bin/../arm-nacl/lib/libcrt_common.a(lib_a-dtoa.o) (memcpy)
/Users/jkwang/Desktop/nacl_sdk/pepper_canary/toolchain/mac_pnacl/bin/../arm-nacl/lib/libcrt_common.a(lib_a-memmove.o)
                              /Users/jkwang/Desktop/nacl_sdk/pepper_canary/toolchain/mac_pnacl/bin/../arm-nacl/lib/libcrt_common.a(lib_a-fvwrite.o) (memmove)
/Users/jkwang/Desktop/nacl_sdk/pepper_canary/toolchain/mac_pnacl/bin/../arm-nacl/lib/libcrt_common.a(lib_a-mprec.o)
                              /Users/jkwang/Desktop/nacl_sdk/pepper_canary/toolchain/mac_pnacl/bin/../arm-nacl/lib/libcrt_common.a(lib_a-dtoa.o) (_Balloc)
/Users/jkwang/Desktop/nacl_sdk/pepper_canary/toolchain/mac_pnacl/bin/../arm-nacl/lib/libcrt_common.a(lib_a-s_fpclassify.o)
                              /Users/jkwang/Desktop/nacl_sdk/pepper_canary/toolchain/mac_pnacl/bin/../arm-nacl/lib/libcrt_common.a(lib_a-vfprintf.o) (__fpclassifyd)
/Users/jkwang/Desktop/nacl_sdk/pepper_canary/toolchain/mac_pnacl/bin/../arm-nacl/lib/libcrt_common.a(lib_a-s_frexp.o)
                              /Users/jkwang/Desktop/nacl_sdk/pepper_canary/toolchain/mac_pnacl/bin/../arm-nacl/lib/libcrt_common.a(lib_a-vfprintf.o) (frexp)
/Users/jkwang/Desktop/nacl_sdk/pepper_canary/toolchain/mac_pnacl/bin/../arm-nacl/lib/libcrt_common.a(lib_a-strcasecmp.o)
                              /Users/jkwang/Desktop/nacl_sdk/pepper_canary/toolchain/mac_pnacl/bin/../arm-nacl/lib/libcrt_common.a(lib_a-locale.o) (strcasecmp)
/Users/jkwang/Desktop/nacl_sdk/pepper_canary/toolchain/mac_pnacl/bin/../arm-nacl/lib/libcrt_common.a(lib_a-strchr.o)
                              /Users/jkwang/Desktop/nacl_sdk/pepper_canary/toolchain/mac_pnacl/bin/../arm-nacl/lib/libcrt_common.a(lib_a-locale.o) (strchr)
/Users/jkwang/Desktop/nacl_sdk/pepper_canary/toolchain/mac_pnacl/bin/../arm-nacl/lib/libcrt_common.a(lib_a-strlcpy.o)
                              /Users/jkwang/Desktop/nacl_sdk/pepper_canary/toolchain/mac_pnacl/bin/../arm-nacl/lib/libcrt_common.a(lib_a-locale.o) (strlcpy)
/Users/jkwang/Desktop/nacl_sdk/pepper_canary/toolchain/mac_pnacl/bin/../arm-nacl/lib/libcrt_common.a(lib_a-strncasecmp.o)
                              /Users/jkwang/Desktop/nacl_sdk/pepper_canary/toolchain/mac_pnacl/bin/../arm-nacl/lib/libcrt_common.a(lib_a-locale.o) (strncasecmp)
/Users/jkwang/Desktop/nacl_sdk/pepper_canary/toolchain/mac_pnacl/bin/../arm-nacl/lib/libcrt_common.a(lib_a-strncpy.o)
                              /Users/jkwang/Desktop/nacl_sdk/pepper_canary/toolchain/mac_pnacl/bin/../arm-nacl/lib/libcrt_common.a(lib_a-vfprintf.o) (strncpy)
/Users/jkwang/Desktop/nacl_sdk/pepper_canary/toolchain/mac_pnacl/bin/../arm-nacl/lib/libcrt_common.a(lib_a-strtol.o)
                              /Users/jkwang/Desktop/nacl_sdk/pepper_canary/toolchain/mac_pnacl/bin/../arm-nacl/lib/libcrt_common.a(lib_a-locale.o) (_strtol_r)
/Users/jkwang/Desktop/nacl_sdk/pepper_canary/toolchain/mac_pnacl/bin/../arm-nacl/lib/libcrt_common.a(lib_a-svfprintf.o)
                              /Users/jkwang/Desktop/nacl_sdk/pepper_canary/toolchain/mac_pnacl/bin/../arm-nacl/lib/libcrt_common.a(lib_a-vsnprintf.o) (_svfprintf_r)
/Users/jkwang/Desktop/nacl_sdk/pepper_canary/toolchain/mac_pnacl/bin/../arm-nacl/lib/libcrt_common.a(lib_a-vfiprintf.o)
                              /Users/jkwang/Desktop/nacl_sdk/pepper_canary/toolchain/mac_pnacl/bin/../arm-nacl/lib/libcrt_common.a(lib_a-vfprintf.o) (__sprint_r)
/Users/jkwang/Desktop/nacl_sdk/pepper_canary/toolchain/mac_pnacl/bin/../arm-nacl/lib/libcrt_common.a(lib_a-wcsnrtombs.o)
                              /Users/jkwang/Desktop/nacl_sdk/pepper_canary/toolchain/mac_pnacl/bin/../arm-nacl/lib/libcrt_common.a(lib_a-wcsrtombs.o) (_wcsnrtombs_r)
/Users/jkwang/Desktop/nacl_sdk/pepper_canary/toolchain/mac_pnacl/bin/../arm-nacl/lib/libcrt_common.a(lib_a-ctype_.o)
                              /Users/jkwang/Desktop/nacl_sdk/pepper_canary/toolchain/mac_pnacl/bin/../arm-nacl/lib/libcrt_common.a(lib_a-locale.o) (__set_ctype)
/Users/jkwang/Desktop/nacl_sdk/pepper_canary/toolchain/mac_pnacl/bin/../arm-nacl/lib/libcrt_common.a(lib_a-fputwc.o)
                              /Users/jkwang/Desktop/nacl_sdk/pepper_canary/toolchain/mac_pnacl/bin/../arm-nacl/lib/libcrt_common.a(lib_a-vfiprintf.o) (_fputwc_r)
/Users/jkwang/Desktop/nacl_sdk/pepper_canary/toolchain/mac_pnacl/bin/../arm-nacl/lib/libcrt_common.a(lib_a-svfiprintf.o)
                              /Users/jkwang/Desktop/nacl_sdk/pepper_canary/toolchain/mac_pnacl/bin/../arm-nacl/lib/libcrt_common.a(lib_a-svfprintf.o) (__ssprint_r)
/Users/jkwang/Desktop/nacl_sdk/pepper_canary/toolchain/mac_pnacl/bin/../arm-nacl/lib/libcrt_common.a(lib_a-wbuf.o)
                              /Users/jkwang/Desktop/nacl_sdk/pepper_canary/toolchain/mac_pnacl/bin/../arm-nacl/lib/libcrt_common.a(lib_a-fputwc.o) (__swbuf_r)
/Users/jkwang/Desktop/nacl_sdk/pepper_canary/toolchain/mac_pnacl/bin/../arm-nacl/lib/libnacl.a(close.o)
                              /Users/jkwang/Desktop/nacl_sdk/pepper_canary/toolchain/mac_pnacl/bin/../arm-nacl/lib/libcrt_common.a(lib_a-stdio.o) (close)
/Users/jkwang/Desktop/nacl_sdk/pepper_canary/toolchain/mac_pnacl/bin/../arm-nacl/lib/libnacl.a(fstat.o)
                              /Users/jkwang/Desktop/nacl_sdk/pepper_canary/toolchain/mac_pnacl/bin/../arm-nacl/lib/libcrt_common.a(lib_a-makebuf.o) (fstat)
/Users/jkwang/Desktop/nacl_sdk/pepper_canary/toolchain/mac_pnacl/bin/../arm-nacl/lib/libnacl.a(isatty.o)
                              /Users/jkwang/Desktop/nacl_sdk/pepper_canary/toolchain/mac_pnacl/bin/../arm-nacl/lib/libcrt_common.a(lib_a-makebuf.o) (isatty)
/Users/jkwang/Desktop/nacl_sdk/pepper_canary/toolchain/mac_pnacl/bin/../arm-nacl/lib/libnacl.a(lseek.o)
                              /Users/jkwang/Desktop/nacl_sdk/pepper_canary/toolchain/mac_pnacl/bin/../arm-nacl/lib/libcrt_common.a(lib_a-stdio.o) (lseek)
/Users/jkwang/Desktop/nacl_sdk/pepper_canary/toolchain/mac_pnacl/bin/../arm-nacl/lib/libnacl.a(nanosleep.o)
                              /Users/jkwang/Desktop/nacl_sdk/pepper_canary/toolchain/mac_pnacl/bin/../arm-nacl/lib/libcrt_common.a(lib_a-sleep.o) (nanosleep)
/Users/jkwang/Desktop/nacl_sdk/pepper_canary/toolchain/mac_pnacl/bin/../arm-nacl/lib/libnacl.a(nacl_irt_fdio.o)
                              /Users/jkwang/Desktop/nacl_sdk/pepper_canary/toolchain/mac_pnacl/bin/../arm-nacl/lib/libnacl.a(isatty.o) (__libnacl_irt_dev_fdio_init)
/Users/jkwang/Desktop/nacl_sdk/pepper_canary/toolchain/mac_pnacl/bin/../arm-nacl/lib/libnacl.a(read.o)
                              /Users/jkwang/Desktop/nacl_sdk/pepper_canary/toolchain/mac_pnacl/bin/../arm-nacl/lib/libcrt_common.a(lib_a-stdio.o) (read)
/Users/jkwang/Desktop/nacl_sdk/pepper_canary/toolchain/mac_pnacl/bin/../lib/clang/3.7.0/lib/arm-nacl/libgcc.a(aeabi_memcpy.o)
                              /Users/jkwang/Desktop/nacl_sdk/pepper_canary/lib/clang-newlib_arm/Release/liberror_handling.a(string_stream_arm.o) (__aeabi_memcpy)
/Users/jkwang/Desktop/nacl_sdk/pepper_canary/toolchain/mac_pnacl/bin/../lib/clang/3.7.0/lib/arm-nacl/libgcc.a(aeabi_memset.o)
                              /Users/jkwang/Desktop/nacl_sdk/pepper_canary/toolchain/mac_pnacl/bin/../arm-nacl/lib/libnacl.a(malloc.o) (__aeabi_memset)
/Users/jkwang/Desktop/nacl_sdk/pepper_canary/toolchain/mac_pnacl/bin/../lib/clang/3.7.0/lib/arm-nacl/libgcc.a(aeabi_uldivmod.o)
                              /Users/jkwang/Desktop/nacl_sdk/pepper_canary/toolchain/mac_pnacl/bin/../arm-nacl/lib/libcrt_common.a(lib_a-vfprintf.o) (__aeabi_uldivmod)
/Users/jkwang/Desktop/nacl_sdk/pepper_canary/toolchain/mac_pnacl/bin/../lib/clang/3.7.0/lib/arm-nacl/libgcc.a(modsi3.o)
                              /Users/jkwang/Desktop/nacl_sdk/pepper_canary/toolchain/mac_pnacl/bin/../arm-nacl/lib/libcrt_common.a(lib_a-fvwrite.o) (__modsi3)
/Users/jkwang/Desktop/nacl_sdk/pepper_canary/toolchain/mac_pnacl/bin/../lib/clang/3.7.0/lib/arm-nacl/libgcc.a(udivmoddi4.o)
                              /Users/jkwang/Desktop/nacl_sdk/pepper_canary/toolchain/mac_pnacl/bin/../lib/clang/3.7.0/lib/arm-nacl/libgcc.a(aeabi_uldivmod.o) (__udivmoddi4)
/Users/jkwang/Desktop/nacl_sdk/pepper_canary/toolchain/mac_pnacl/bin/../lib/clang/3.7.0/lib/arm-nacl/libgcc.a(udivsi3.o)
                              /Users/jkwang/Desktop/nacl_sdk/pepper_canary/toolchain/mac_pnacl/bin/../arm-nacl/lib/libnacl.a(malloc.o) (__aeabi_uidiv)
/Users/jkwang/Desktop/nacl_sdk/pepper_canary/toolchain/mac_pnacl/bin/../lib/clang/3.7.0/lib/arm-nacl/libgcc.a(umoddi3.o)
                              /Users/jkwang/Desktop/nacl_sdk/pepper_canary/toolchain/mac_pnacl/bin/../arm-nacl/lib/libcrt_common.a(lib_a-vfprintf.o) (__umoddi3)
/Users/jkwang/Desktop/nacl_sdk/pepper_canary/toolchain/mac_pnacl/bin/../lib/clang/3.7.0/lib/arm-nacl/libgcc.a(umodsi3.o)
                              /Users/jkwang/Desktop/nacl_sdk/pepper_canary/toolchain/mac_pnacl/bin/../arm-nacl/lib/libcrt_common.a(lib_a-strtol.o) (__umodsi3)
/Users/jkwang/Desktop/nacl_sdk/pepper_canary/toolchain/mac_pnacl/bin/../lib/clang/3.7.0/lib/arm-nacl/libgcc.a(divsi3.o)
                              /Users/jkwang/Desktop/nacl_sdk/pepper_canary/toolchain/mac_pnacl/bin/../lib/clang/3.7.0/lib/arm-nacl/libgcc.a(modsi3.o) (__divsi3)
/Users/jkwang/Desktop/nacl_sdk/pepper_canary/toolchain/mac_pnacl/bin/../lib/clang/3.7.0/lib/arm-nacl/libgcc_eh.a(unwind-dw2-fde-glibc.o)
                              /Users/jkwang/Desktop/nacl_sdk/pepper_canary/toolchain/mac_pnacl/bin/../lib/clang/3.7.0/lib/arm-nacl/crtbeginT.o (__register_frame_info)

Allocating common symbols
Common symbol       size              file

__nacl_irt_query    0x4               /Users/jkwang/Desktop/nacl_sdk/pepper_canary/toolchain/mac_pnacl/bin/../arm-nacl/lib/libnacl.a(nacl_irt.o)
__libnacl_irt_dev_filename
                    0x40              /Users/jkwang/Desktop/nacl_sdk/pepper_canary/toolchain/mac_pnacl/bin/../arm-nacl/lib/libnacl.a(nacl_irt.o)
__nc_thread_initialized
                    0x4               /Users/jkwang/Desktop/nacl_sdk/pepper_canary/toolchain/mac_pnacl/bin/../arm-nacl/lib/libpthread.a(nc_thread.o)
g_PPAPIThread       0x4               clang-newlib/Release/debugging_arm.o
__libnacl_irt_clock
                    0x8               /Users/jkwang/Desktop/nacl_sdk/pepper_canary/toolchain/mac_pnacl/bin/../arm-nacl/lib/libnacl.a(nacl_irt.o)
__libnacl_irt_futex
                    0x8               /Users/jkwang/Desktop/nacl_sdk/pepper_canary/toolchain/mac_pnacl/bin/../arm-nacl/lib/libpthread.a(nc_init_irt.o)
g_Instance          0x4               clang-newlib/Release/debugging_arm.o
__nacl_initial_thread_stack_end
                    0x4               /Users/jkwang/Desktop/nacl_sdk/pepper_canary/toolchain/mac_pnacl/bin/../arm-nacl/lib/libnacl.a(start.o)
__libnacl_irt_memory
                    0xc               /Users/jkwang/Desktop/nacl_sdk/pepper_canary/toolchain/mac_pnacl/bin/../arm-nacl/lib/libnacl.a(nacl_irt.o)
__nc_initial_thread_id
                    0x4               /Users/jkwang/Desktop/nacl_sdk/pepper_canary/toolchain/mac_pnacl/bin/../arm-nacl/lib/libpthread.a(nc_thread.o)
__libnacl_irt_dev_fdio
                    0x38              /Users/jkwang/Desktop/nacl_sdk/pepper_canary/toolchain/mac_pnacl/bin/../arm-nacl/lib/libnacl.a(nacl_irt.o)
g_NexeThread        0x4               clang-newlib/Release/debugging_arm.o
__libnacl_irt_basic
                    0x18              /Users/jkwang/Desktop/nacl_sdk/pepper_canary/toolchain/mac_pnacl/bin/../arm-nacl/lib/libnacl.a(nacl_irt.o)
__libnacl_irt_thread
                    0xc               /Users/jkwang/Desktop/nacl_sdk/pepper_canary/toolchain/mac_pnacl/bin/../arm-nacl/lib/libpthread.a(nc_thread.o)
__libnacl_irt_tls   0x8               /Users/jkwang/Desktop/nacl_sdk/pepper_canary/toolchain/mac_pnacl/bin/../arm-nacl/lib/libnacl.a(nacl_irt.o)
__libnacl_irt_dev_getpid
                    0x4               /Users/jkwang/Desktop/nacl_sdk/pepper_canary/toolchain/mac_pnacl/bin/../arm-nacl/lib/libnacl.a(nacl_irt.o)

Discarded input sections

 .group         0x0000000000000000        0x8 /Users/jkwang/Desktop/nacl_sdk/pepper_canary/toolchain/mac_pnacl/bin/../arm-nacl/lib/crti.o
 .group         0x0000000000000000        0x8 /Users/jkwang/Desktop/nacl_sdk/pepper_canary/toolchain/mac_pnacl/bin/../lib/clang/3.7.0/lib/arm-nacl/crtbeginT.o
 .note.NaCl.ABI.arm
                0x0000000000000000       0x30 /Users/jkwang/Desktop/nacl_sdk/pepper_canary/toolchain/mac_pnacl/bin/../lib/clang/3.7.0/lib/arm-nacl/crtbeginT.o
 .note.GNU-stack
                0x0000000000000000        0x0 /Users/jkwang/Desktop/nacl_sdk/pepper_canary/toolchain/mac_pnacl/bin/../lib/clang/3.7.0/lib/arm-nacl/crtbeginT.o
 .group         0x0000000000000000        0x8 clang-newlib/Release/debugging_arm.o
 .note.NaCl.ABI.arm
                0x0000000000000000       0x30 clang-newlib/Release/debugging_arm.o
 .note.GNU-stack
                0x0000000000000000        0x0 clang-newlib/Release/debugging_arm.o
 .group         0x0000000000000000        0x8 /Users/jkwang/Desktop/nacl_sdk/pepper_canary/lib/clang-newlib_arm/Release/liberror_handling.a(error_handling_arm.o)
 .note.NaCl.ABI.arm
                0x0000000000000000       0x30 /Users/jkwang/Desktop/nacl_sdk/pepper_canary/lib/clang-newlib_arm/Release/liberror_handling.a(error_handling_arm.o)
 .note.GNU-stack
                0x0000000000000000        0x0 /Users/jkwang/Desktop/nacl_sdk/pepper_canary/lib/clang-newlib_arm/Release/liberror_handling.a(error_handling_arm.o)
 .group         0x0000000000000000        0x8 /Users/jkwang/Desktop/nacl_sdk/pepper_canary/lib/clang-newlib_arm/Release/liberror_handling.a(string_stream_arm.o)
 .note.NaCl.ABI.arm
                0x0000000000000000       0x30 /Users/jkwang/Desktop/nacl_sdk/pepper_canary/lib/clang-newlib_arm/Release/liberror_handling.a(string_stream_arm.o)
 .note.GNU-stack
                0x0000000000000000        0x0 /Users/jkwang/Desktop/nacl_sdk/pepper_canary/lib/clang-newlib_arm/Release/liberror_handling.a(string_stream_arm.o)
 .group         0x0000000000000000        0x8 /Users/jkwang/Desktop/nacl_sdk/pepper_canary/toolchain/mac_pnacl/bin/../arm-nacl/lib/libppapi_stub.a(plugin_main_irt.o)
 .note.NaCl.ABI.arm
                0x0000000000000000       0x18 /Users/jkwang/Desktop/nacl_sdk/pepper_canary/toolchain/mac_pnacl/bin/../arm-nacl/lib/libppapi_stub.a(plugin_main_irt.o)
 .note.GNU-stack
                0x0000000000000000        0x0 /Users/jkwang/Desktop/nacl_sdk/pepper_canary/toolchain/mac_pnacl/bin/../arm-nacl/lib/libppapi_stub.a(plugin_main_irt.o)
 .group         0x0000000000000000        0x8 /Users/jkwang/Desktop/nacl_sdk/pepper_canary/toolchain/mac_pnacl/bin/../arm-nacl/lib/libppapi_stub.a(ppapi_plugin_main.o)
 .note.NaCl.ABI.arm
                0x0000000000000000       0x18 /Users/jkwang/Desktop/nacl_sdk/pepper_canary/toolchain/mac_pnacl/bin/../arm-nacl/lib/libppapi_stub.a(ppapi_plugin_main.o)
 .note.GNU-stack
                0x0000000000000000        0x0 /Users/jkwang/Desktop/nacl_sdk/pepper_canary/toolchain/mac_pnacl/bin/../arm-nacl/lib/libppapi_stub.a(ppapi_plugin_main.o)
 .group         0x0000000000000000        0x8 /Users/jkwang/Desktop/nacl_sdk/pepper_canary/toolchain/mac_pnacl/bin/../arm-nacl/lib/libppapi_stub.a(ppapi_plugin_start.o)
 .note.NaCl.ABI.arm
                0x0000000000000000       0x18 /Users/jkwang/Desktop/nacl_sdk/pepper_canary/toolchain/mac_pnacl/bin/../arm-nacl/lib/libppapi_stub.a(ppapi_plugin_start.o)
 .note.GNU-stack
                0x0000000000000000        0x0 /Users/jkwang/Desktop/nacl_sdk/pepper_canary/toolchain/mac_pnacl/bin/../arm-nacl/lib/libppapi_stub.a(ppapi_plugin_start.o)
 .group         0x0000000000000000        0x8 /Users/jkwang/Desktop/nacl_sdk/pepper_canary/toolchain/mac_pnacl/bin/../arm-nacl/lib/libppapi_stub.a(thread_creator.o)
 .note.NaCl.ABI.arm
                0x0000000000000000       0x18 /Users/jkwang/Desktop/nacl_sdk/pepper_canary/toolchain/mac_pnacl/bin/../arm-nacl/lib/libppapi_stub.a(thread_creator.o)
 .note.GNU-stack
                0x0000000000000000        0x0 /Users/jkwang/Desktop/nacl_sdk/pepper_canary/toolchain/mac_pnacl/bin/../arm-nacl/lib/libppapi_stub.a(thread_creator.o)
 .group         0x0000000000000000        0x8 /Users/jkwang/Desktop/nacl_sdk/pepper_canary/toolchain/mac_pnacl/bin/../arm-nacl/lib/libpthread.a(nc_thread.o)
 .note.NaCl.ABI.arm
                0x0000000000000000       0x18 /Users/jkwang/Desktop/nacl_sdk/pepper_canary/toolchain/mac_pnacl/bin/../arm-nacl/lib/libpthread.a(nc_thread.o)
 .note.GNU-stack
                0x0000000000000000        0x0 /Users/jkwang/Desktop/nacl_sdk/pepper_canary/toolchain/mac_pnacl/bin/../arm-nacl/lib/libpthread.a(nc_thread.o)
 .group         0x0000000000000000        0x8 /Users/jkwang/Desktop/nacl_sdk/pepper_canary/toolchain/mac_pnacl/bin/../arm-nacl/lib/libpthread.a(nc_mutex.o)
 .note.NaCl.ABI.arm
                0x0000000000000000       0x18 /Users/jkwang/Desktop/nacl_sdk/pepper_canary/toolchain/mac_pnacl/bin/../arm-nacl/lib/libpthread.a(nc_mutex.o)
 .note.GNU-stack
                0x0000000000000000        0x0 /Users/jkwang/Desktop/nacl_sdk/pepper_canary/toolchain/mac_pnacl/bin/../arm-nacl/lib/libpthread.a(nc_mutex.o)
 .group         0x0000000000000000        0x8 /Users/jkwang/Desktop/nacl_sdk/pepper_canary/toolchain/mac_pnacl/bin/../arm-nacl/lib/libpthread.a(nc_condvar.o)
 .note.NaCl.ABI.arm
                0x0000000000000000       0x18 /Users/jkwang/Desktop/nacl_sdk/pepper_canary/toolchain/mac_pnacl/bin/../arm-nacl/lib/libpthread.a(nc_condvar.o)
 .note.GNU-stack
                0x0000000000000000        0x0 /Users/jkwang/Desktop/nacl_sdk/pepper_canary/toolchain/mac_pnacl/bin/../arm-nacl/lib/libpthread.a(nc_condvar.o)
 .group         0x0000000000000000        0x8 /Users/jkwang/Desktop/nacl_sdk/pepper_canary/toolchain/mac_pnacl/bin/../arm-nacl/lib/libpthread.a(valgrind_annotations.o)
 .note.NaCl.ABI.arm
                0x0000000000000000       0x18 /Users/jkwang/Desktop/nacl_sdk/pepper_canary/toolchain/mac_pnacl/bin/../arm-nacl/lib/libpthread.a(valgrind_annotations.o)
 .note.GNU-stack
                0x0000000000000000        0x0 /Users/jkwang/Desktop/nacl_sdk/pepper_canary/toolchain/mac_pnacl/bin/../arm-nacl/lib/libpthread.a(valgrind_annotations.o)
 .group         0x0000000000000000        0x8 /Users/jkwang/Desktop/nacl_sdk/pepper_canary/toolchain/mac_pnacl/bin/../arm-nacl/lib/libpthread.a(nc_init_irt.o)
 .note.NaCl.ABI.arm
                0x0000000000000000       0x18 /Users/jkwang/Desktop/nacl_sdk/pepper_canary/toolchain/mac_pnacl/bin/../arm-nacl/lib/libpthread.a(nc_init_irt.o)
 .note.GNU-stack
                0x0000000000000000        0x0 /Users/jkwang/Desktop/nacl_sdk/pepper_canary/toolchain/mac_pnacl/bin/../arm-nacl/lib/libpthread.a(nc_init_irt.o)
 .group         0x0000000000000000        0x8 /Users/jkwang/Desktop/nacl_sdk/pepper_canary/toolchain/mac_pnacl/bin/../arm-nacl/lib/libnacl.a(nacl_irt.o)
 .note.NaCl.ABI.arm
                0x0000000000000000       0x18 /Users/jkwang/Desktop/nacl_sdk/pepper_canary/toolchain/mac_pnacl/bin/../arm-nacl/lib/libnacl.a(nacl_irt.o)
 .note.GNU-stack
                0x0000000000000000        0x0 /Users/jkwang/Desktop/nacl_sdk/pepper_canary/toolchain/mac_pnacl/bin/../arm-nacl/lib/libnacl.a(nacl_irt.o)
 .group         0x0000000000000000        0x8 /Users/jkwang/Desktop/nacl_sdk/pepper_canary/toolchain/mac_pnacl/bin/../arm-nacl/lib/libnacl.a(_exit.o)
 .note.NaCl.ABI.arm
                0x0000000000000000       0x18 /Users/jkwang/Desktop/nacl_sdk/pepper_canary/toolchain/mac_pnacl/bin/../arm-nacl/lib/libnacl.a(_exit.o)
 .note.GNU-stack
                0x0000000000000000        0x0 /Users/jkwang/Desktop/nacl_sdk/pepper_canary/toolchain/mac_pnacl/bin/../arm-nacl/lib/libnacl.a(_exit.o)
 .group         0x0000000000000000        0x8 /Users/jkwang/Desktop/nacl_sdk/pepper_canary/toolchain/mac_pnacl/bin/../arm-nacl/lib/libnacl.a(mmap.o)
 .note.NaCl.ABI.arm
                0x0000000000000000       0x18 /Users/jkwang/Desktop/nacl_sdk/pepper_canary/toolchain/mac_pnacl/bin/../arm-nacl/lib/libnacl.a(mmap.o)
 .note.GNU-stack
                0x0000000000000000        0x0 /Users/jkwang/Desktop/nacl_sdk/pepper_canary/toolchain/mac_pnacl/bin/../arm-nacl/lib/libnacl.a(mmap.o)
 .group         0x0000000000000000        0x8 /Users/jkwang/Desktop/nacl_sdk/pepper_canary/toolchain/mac_pnacl/bin/../arm-nacl/lib/libnacl.a(munmap.o)
 .note.NaCl.ABI.arm
                0x0000000000000000       0x18 /Users/jkwang/Desktop/nacl_sdk/pepper_canary/toolchain/mac_pnacl/bin/../arm-nacl/lib/libnacl.a(munmap.o)
 .note.GNU-stack
                0x0000000000000000        0x0 /Users/jkwang/Desktop/nacl_sdk/pepper_canary/toolchain/mac_pnacl/bin/../arm-nacl/lib/libnacl.a(munmap.o)
 .group         0x0000000000000000        0x8 /Users/jkwang/Desktop/nacl_sdk/pepper_canary/toolchain/mac_pnacl/bin/../arm-nacl/lib/libnacl.a(nacl_interface_query.o)
 .note.NaCl.ABI.arm
                0x0000000000000000       0x18 /Users/jkwang/Desktop/nacl_sdk/pepper_canary/toolchain/mac_pnacl/bin/../arm-nacl/lib/libnacl.a(nacl_interface_query.o)
 .note.GNU-stack
                0x0000000000000000        0x0 /Users/jkwang/Desktop/nacl_sdk/pepper_canary/toolchain/mac_pnacl/bin/../arm-nacl/lib/libnacl.a(nacl_interface_query.o)
 .group         0x0000000000000000        0x8 /Users/jkwang/Desktop/nacl_sdk/pepper_canary/toolchain/mac_pnacl/bin/../arm-nacl/lib/libnacl.a(write.o)
 .note.NaCl.ABI.arm
                0x0000000000000000       0x18 /Users/jkwang/Desktop/nacl_sdk/pepper_canary/toolchain/mac_pnacl/bin/../arm-nacl/lib/libnacl.a(write.o)
 .note.GNU-stack
                0x0000000000000000        0x0 /Users/jkwang/Desktop/nacl_sdk/pepper_canary/toolchain/mac_pnacl/bin/../arm-nacl/lib/libnacl.a(write.o)
 .group         0x0000000000000000        0x8 /Users/jkwang/Desktop/nacl_sdk/pepper_canary/toolchain/mac_pnacl/bin/../arm-nacl/lib/libnacl.a(environ.o)
 .note.NaCl.ABI.arm
                0x0000000000000000       0x18 /Users/jkwang/Desktop/nacl_sdk/pepper_canary/toolchain/mac_pnacl/bin/../arm-nacl/lib/libnacl.a(environ.o)
 .note.GNU-stack
                0x0000000000000000        0x0 /Users/jkwang/Desktop/nacl_sdk/pepper_canary/toolchain/mac_pnacl/bin/../arm-nacl/lib/libnacl.a(environ.o)
 .group         0x0000000000000000        0x8 /Users/jkwang/Desktop/nacl_sdk/pepper_canary/toolchain/mac_pnacl/bin/../arm-nacl/lib/libnacl.a(malloc.o)
 .note.NaCl.ABI.arm
                0x0000000000000000       0x18 /Users/jkwang/Desktop/nacl_sdk/pepper_canary/toolchain/mac_pnacl/bin/../arm-nacl/lib/libnacl.a(malloc.o)
 .note.GNU-stack
                0x0000000000000000        0x0 /Users/jkwang/Desktop/nacl_sdk/pepper_canary/toolchain/mac_pnacl/bin/../arm-nacl/lib/libnacl.a(malloc.o)
 .group         0x0000000000000000        0x8 /Users/jkwang/Desktop/nacl_sdk/pepper_canary/toolchain/mac_pnacl/bin/../arm-nacl/lib/libnacl.a(start.o)
 .note.NaCl.ABI.arm
                0x0000000000000000       0x18 /Users/jkwang/Desktop/nacl_sdk/pepper_canary/toolchain/mac_pnacl/bin/../arm-nacl/lib/libnacl.a(start.o)
 .note.GNU-stack
                0x0000000000000000        0x0 /Users/jkwang/Desktop/nacl_sdk/pepper_canary/toolchain/mac_pnacl/bin/../arm-nacl/lib/libnacl.a(start.o)
 .group         0x0000000000000000        0x8 /Users/jkwang/Desktop/nacl_sdk/pepper_canary/toolchain/mac_pnacl/bin/../arm-nacl/lib/libnacl.a(nacl_read_tp.o)
 .note.NaCl.ABI.arm
                0x0000000000000000       0x18 /Users/jkwang/Desktop/nacl_sdk/pepper_canary/toolchain/mac_pnacl/bin/../arm-nacl/lib/libnacl.a(nacl_read_tp.o)
 .note.GNU-stack
                0x0000000000000000        0x0 /Users/jkwang/Desktop/nacl_sdk/pepper_canary/toolchain/mac_pnacl/bin/../arm-nacl/lib/libnacl.a(nacl_read_tp.o)
 .group         0x0000000000000000        0x8 /Users/jkwang/Desktop/nacl_sdk/pepper_canary/toolchain/mac_pnacl/bin/../arm-nacl/lib/libnacl.a(pthread_initialize_minimal.o)
 .note.NaCl.ABI.arm
                0x0000000000000000       0x18 /Users/jkwang/Desktop/nacl_sdk/pepper_canary/toolchain/mac_pnacl/bin/../arm-nacl/lib/libnacl.a(pthread_initialize_minimal.o)
 .note.GNU-stack
                0x0000000000000000        0x0 /Users/jkwang/Desktop/nacl_sdk/pepper_canary/toolchain/mac_pnacl/bin/../arm-nacl/lib/libnacl.a(pthread_initialize_minimal.o)
 .group         0x0000000000000000        0x8 /Users/jkwang/Desktop/nacl_sdk/pepper_canary/toolchain/mac_pnacl/bin/../arm-nacl/lib/libnacl.a(tls.o)
 .note.NaCl.ABI.arm
                0x0000000000000000       0x18 /Users/jkwang/Desktop/nacl_sdk/pepper_canary/toolchain/mac_pnacl/bin/../arm-nacl/lib/libnacl.a(tls.o)
 .note.GNU-stack
                0x0000000000000000        0x0 /Users/jkwang/Desktop/nacl_sdk/pepper_canary/toolchain/mac_pnacl/bin/../arm-nacl/lib/libnacl.a(tls.o)
 .group         0x0000000000000000        0x8 /Users/jkwang/Desktop/nacl_sdk/pepper_canary/toolchain/mac_pnacl/bin/../arm-nacl/lib/libnacl.a(nacl_irt_init.o)
 .note.NaCl.ABI.arm
                0x0000000000000000       0x18 /Users/jkwang/Desktop/nacl_sdk/pepper_canary/toolchain/mac_pnacl/bin/../arm-nacl/lib/libnacl.a(nacl_irt_init.o)
 .note.GNU-stack
                0x0000000000000000        0x0 /Users/jkwang/Desktop/nacl_sdk/pepper_canary/toolchain/mac_pnacl/bin/../arm-nacl/lib/libnacl.a(nacl_irt_init.o)
 .group         0x0000000000000000        0x8 /Users/jkwang/Desktop/nacl_sdk/pepper_canary/toolchain/mac_pnacl/bin/../arm-nacl/lib/libnacl.a(nacl_tls_get.o)
 .note.NaCl.ABI.arm
                0x0000000000000000       0x18 /Users/jkwang/Desktop/nacl_sdk/pepper_canary/toolchain/mac_pnacl/bin/../arm-nacl/lib/libnacl.a(nacl_tls_get.o)
 .note.GNU-stack
                0x0000000000000000        0x0 /Users/jkwang/Desktop/nacl_sdk/pepper_canary/toolchain/mac_pnacl/bin/../arm-nacl/lib/libnacl.a(nacl_tls_get.o)
 .group         0x0000000000000000        0x8 /Users/jkwang/Desktop/nacl_sdk/pepper_canary/toolchain/mac_pnacl/bin/../arm-nacl/lib/libnacl.a(nacl_tls_init.o)
 .note.NaCl.ABI.arm
                0x0000000000000000       0x18 /Users/jkwang/Desktop/nacl_sdk/pepper_canary/toolchain/mac_pnacl/bin/../arm-nacl/lib/libnacl.a(nacl_tls_init.o)
 .note.GNU-stack
                0x0000000000000000        0x0 /Users/jkwang/Desktop/nacl_sdk/pepper_canary/toolchain/mac_pnacl/bin/../arm-nacl/lib/libnacl.a(nacl_tls_init.o)
 .group         0x0000000000000000        0x8 /Users/jkwang/Desktop/nacl_sdk/pepper_canary/toolchain/mac_pnacl/bin/../arm-nacl/lib/libnacl.a(abort.o)
 .note.NaCl.ABI.arm
                0x0000000000000000       0x18 /Users/jkwang/Desktop/nacl_sdk/pepper_canary/toolchain/mac_pnacl/bin/../arm-nacl/lib/libnacl.a(abort.o)
 .note.GNU-stack
                0x0000000000000000        0x0 /Users/jkwang/Desktop/nacl_sdk/pepper_canary/toolchain/mac_pnacl/bin/../arm-nacl/lib/libnacl.a(abort.o)
 .group         0x0000000000000000        0x8 /Users/jkwang/Desktop/nacl_sdk/pepper_canary/toolchain/mac_pnacl/bin/../arm-nacl/lib/libnacl.a(sched_yield.o)
 .note.NaCl.ABI.arm
                0x0000000000000000       0x18 /Users/jkwang/Desktop/nacl_sdk/pepper_canary/toolchain/mac_pnacl/bin/../arm-nacl/lib/libnacl.a(sched_yield.o)
 .note.GNU-stack
                0x0000000000000000        0x0 /Users/jkwang/Desktop/nacl_sdk/pepper_canary/toolchain/mac_pnacl/bin/../arm-nacl/lib/libnacl.a(sched_yield.o)
 .group         0x0000000000000000        0x8 /Users/jkwang/Desktop/nacl_sdk/pepper_canary/toolchain/mac_pnacl/bin/../arm-nacl/lib/libnacl.a(sysconf.o)
 .note.NaCl.ABI.arm
                0x0000000000000000       0x18 /Users/jkwang/Desktop/nacl_sdk/pepper_canary/toolchain/mac_pnacl/bin/../arm-nacl/lib/libnacl.a(sysconf.o)
 .note.GNU-stack
                0x0000000000000000        0x0 /Users/jkwang/Desktop/nacl_sdk/pepper_canary/toolchain/mac_pnacl/bin/../arm-nacl/lib/libnacl.a(sysconf.o)
 .group         0x0000000000000000        0x8 /Users/jkwang/Desktop/nacl_sdk/pepper_canary/toolchain/mac_pnacl/bin/../arm-nacl/lib/libcrt_common.a(lib_a-atexit.o)
 .note.NaCl.ABI.arm
                0x0000000000000000       0x30 /Users/jkwang/Desktop/nacl_sdk/pepper_canary/toolchain/mac_pnacl/bin/../arm-nacl/lib/libcrt_common.a(lib_a-atexit.o)
 .note.GNU-stack
                0x0000000000000000        0x0 /Users/jkwang/Desktop/nacl_sdk/pepper_canary/toolchain/mac_pnacl/bin/../arm-nacl/lib/libcrt_common.a(lib_a-atexit.o)
 .group         0x0000000000000000        0x8 /Users/jkwang/Desktop/nacl_sdk/pepper_canary/toolchain/mac_pnacl/bin/../arm-nacl/lib/libcrt_common.a(lib_a-errno.o)
 .note.NaCl.ABI.arm
                0x0000000000000000       0x30 /Users/jkwang/Desktop/nacl_sdk/pepper_canary/toolchain/mac_pnacl/bin/../arm-nacl/lib/libcrt_common.a(lib_a-errno.o)
 .note.GNU-stack
                0x0000000000000000        0x0 /Users/jkwang/Desktop/nacl_sdk/pepper_canary/toolchain/mac_pnacl/bin/../arm-nacl/lib/libcrt_common.a(lib_a-errno.o)
 .group         0x0000000000000000        0x8 /Users/jkwang/Desktop/nacl_sdk/pepper_canary/toolchain/mac_pnacl/bin/../arm-nacl/lib/libcrt_common.a(lib_a-exit.o)
 .note.NaCl.ABI.arm
                0x0000000000000000       0x30 /Users/jkwang/Desktop/nacl_sdk/pepper_canary/toolchain/mac_pnacl/bin/../arm-nacl/lib/libcrt_common.a(lib_a-exit.o)
 .note.GNU-stack
                0x0000000000000000        0x0 /Users/jkwang/Desktop/nacl_sdk/pepper_canary/toolchain/mac_pnacl/bin/../arm-nacl/lib/libcrt_common.a(lib_a-exit.o)
 .group         0x0000000000000000        0x8 /Users/jkwang/Desktop/nacl_sdk/pepper_canary/toolchain/mac_pnacl/bin/../arm-nacl/lib/libcrt_common.a(lib_a-fflush.o)
 .note.NaCl.ABI.arm
                0x0000000000000000       0x30 /Users/jkwang/Desktop/nacl_sdk/pepper_canary/toolchain/mac_pnacl/bin/../arm-nacl/lib/libcrt_common.a(lib_a-fflush.o)
 .note.GNU-stack
                0x0000000000000000        0x0 /Users/jkwang/Desktop/nacl_sdk/pepper_canary/toolchain/mac_pnacl/bin/../arm-nacl/lib/libcrt_common.a(lib_a-fflush.o)
 .group         0x0000000000000000        0x8 /Users/jkwang/Desktop/nacl_sdk/pepper_canary/toolchain/mac_pnacl/bin/../arm-nacl/lib/libcrt_common.a(lib_a-findfp.o)
 .note.NaCl.ABI.arm
                0x0000000000000000       0x30 /Users/jkwang/Desktop/nacl_sdk/pepper_canary/toolchain/mac_pnacl/bin/../arm-nacl/lib/libcrt_common.a(lib_a-findfp.o)
 .note.GNU-stack
                0x0000000000000000        0x0 /Users/jkwang/Desktop/nacl_sdk/pepper_canary/toolchain/mac_pnacl/bin/../arm-nacl/lib/libcrt_common.a(lib_a-findfp.o)
 .group         0x0000000000000000        0x8 /Users/jkwang/Desktop/nacl_sdk/pepper_canary/toolchain/mac_pnacl/bin/../arm-nacl/lib/libcrt_common.a(lib_a-fini.o)
 .note.NaCl.ABI.arm
                0x0000000000000000       0x30 /Users/jkwang/Desktop/nacl_sdk/pepper_canary/toolchain/mac_pnacl/bin/../arm-nacl/lib/libcrt_common.a(lib_a-fini.o)
 .note.GNU-stack
                0x0000000000000000        0x0 /Users/jkwang/Desktop/nacl_sdk/pepper_canary/toolchain/mac_pnacl/bin/../arm-nacl/lib/libcrt_common.a(lib_a-fini.o)
 .group         0x0000000000000000        0x8 /Users/jkwang/Desktop/nacl_sdk/pepper_canary/toolchain/mac_pnacl/bin/../arm-nacl/lib/libcrt_common.a(lib_a-fprintf.o)
 .note.NaCl.ABI.arm
                0x0000000000000000       0x30 /Users/jkwang/Desktop/nacl_sdk/pepper_canary/toolchain/mac_pnacl/bin/../arm-nacl/lib/libcrt_common.a(lib_a-fprintf.o)
 .note.GNU-stack
                0x0000000000000000        0x0 /Users/jkwang/Desktop/nacl_sdk/pepper_canary/toolchain/mac_pnacl/bin/../arm-nacl/lib/libcrt_common.a(lib_a-fprintf.o)
 .group         0x0000000000000000        0x8 /Users/jkwang/Desktop/nacl_sdk/pepper_canary/toolchain/mac_pnacl/bin/../arm-nacl/lib/libcrt_common.a(lib_a-fwalk.o)
 .note.NaCl.ABI.arm
                0x0000000000000000       0x30 /Users/jkwang/Desktop/nacl_sdk/pepper_canary/toolchain/mac_pnacl/bin/../arm-nacl/lib/libcrt_common.a(lib_a-fwalk.o)
 .note.GNU-stack
                0x0000000000000000        0x0 /Users/jkwang/Desktop/nacl_sdk/pepper_canary/toolchain/mac_pnacl/bin/../arm-nacl/lib/libcrt_common.a(lib_a-fwalk.o)
 .group         0x0000000000000000        0x8 /Users/jkwang/Desktop/nacl_sdk/pepper_canary/toolchain/mac_pnacl/bin/../arm-nacl/lib/libcrt_common.a(lib_a-fwrite.o)
 .note.NaCl.ABI.arm
                0x0000000000000000       0x30 /Users/jkwang/Desktop/nacl_sdk/pepper_canary/toolchain/mac_pnacl/bin/../arm-nacl/lib/libcrt_common.a(lib_a-fwrite.o)
 .note.GNU-stack
                0x0000000000000000        0x0 /Users/jkwang/Desktop/nacl_sdk/pepper_canary/toolchain/mac_pnacl/bin/../arm-nacl/lib/libcrt_common.a(lib_a-fwrite.o)
 .group         0x0000000000000000        0x8 /Users/jkwang/Desktop/nacl_sdk/pepper_canary/toolchain/mac_pnacl/bin/../arm-nacl/lib/libcrt_common.a(lib_a-getenv.o)
 .note.NaCl.ABI.arm
                0x0000000000000000       0x30 /Users/jkwang/Desktop/nacl_sdk/pepper_canary/toolchain/mac_pnacl/bin/../arm-nacl/lib/libcrt_common.a(lib_a-getenv.o)
 .note.GNU-stack
                0x0000000000000000        0x0 /Users/jkwang/Desktop/nacl_sdk/pepper_canary/toolchain/mac_pnacl/bin/../arm-nacl/lib/libcrt_common.a(lib_a-getenv.o)
 .group         0x0000000000000000        0x8 /Users/jkwang/Desktop/nacl_sdk/pepper_canary/toolchain/mac_pnacl/bin/../arm-nacl/lib/libcrt_common.a(lib_a-getenv_r.o)
 .note.NaCl.ABI.arm
                0x0000000000000000       0x30 /Users/jkwang/Desktop/nacl_sdk/pepper_canary/toolchain/mac_pnacl/bin/../arm-nacl/lib/libcrt_common.a(lib_a-getenv_r.o)
 .note.GNU-stack
                0x0000000000000000        0x0 /Users/jkwang/Desktop/nacl_sdk/pepper_canary/toolchain/mac_pnacl/bin/../arm-nacl/lib/libcrt_common.a(lib_a-getenv_r.o)
 .group         0x0000000000000000        0x8 /Users/jkwang/Desktop/nacl_sdk/pepper_canary/toolchain/mac_pnacl/bin/../arm-nacl/lib/libcrt_common.a(lib_a-impure.o)
 .note.NaCl.ABI.arm
                0x0000000000000000       0x30 /Users/jkwang/Desktop/nacl_sdk/pepper_canary/toolchain/mac_pnacl/bin/../arm-nacl/lib/libcrt_common.a(lib_a-impure.o)
 .note.GNU-stack
                0x0000000000000000        0x0 /Users/jkwang/Desktop/nacl_sdk/pepper_canary/toolchain/mac_pnacl/bin/../arm-nacl/lib/libcrt_common.a(lib_a-impure.o)
 .group         0x0000000000000000        0x8 /Users/jkwang/Desktop/nacl_sdk/pepper_canary/toolchain/mac_pnacl/bin/../arm-nacl/lib/libcrt_common.a(lib_a-init.o)
 .note.NaCl.ABI.arm
                0x0000000000000000       0x30 /Users/jkwang/Desktop/nacl_sdk/pepper_canary/toolchain/mac_pnacl/bin/../arm-nacl/lib/libcrt_common.a(lib_a-init.o)
 .note.GNU-stack
                0x0000000000000000        0x0 /Users/jkwang/Desktop/nacl_sdk/pepper_canary/toolchain/mac_pnacl/bin/../arm-nacl/lib/libcrt_common.a(lib_a-init.o)
 .group         0x0000000000000000        0x8 /Users/jkwang/Desktop/nacl_sdk/pepper_canary/toolchain/mac_pnacl/bin/../arm-nacl/lib/libcrt_common.a(lib_a-memset.o)
 .note.NaCl.ABI.arm
                0x0000000000000000       0x30 /Users/jkwang/Desktop/nacl_sdk/pepper_canary/toolchain/mac_pnacl/bin/../arm-nacl/lib/libcrt_common.a(lib_a-memset.o)
 .note.GNU-stack
                0x0000000000000000        0x0 /Users/jkwang/Desktop/nacl_sdk/pepper_canary/toolchain/mac_pnacl/bin/../arm-nacl/lib/libcrt_common.a(lib_a-memset.o)
 .group         0x0000000000000000        0x8 /Users/jkwang/Desktop/nacl_sdk/pepper_canary/toolchain/mac_pnacl/bin/../arm-nacl/lib/libcrt_common.a(lib_a-sleep.o)
 .note.NaCl.ABI.arm
                0x0000000000000000       0x30 /Users/jkwang/Desktop/nacl_sdk/pepper_canary/toolchain/mac_pnacl/bin/../arm-nacl/lib/libcrt_common.a(lib_a-sleep.o)
 .note.GNU-stack
                0x0000000000000000        0x0 /Users/jkwang/Desktop/nacl_sdk/pepper_canary/toolchain/mac_pnacl/bin/../arm-nacl/lib/libcrt_common.a(lib_a-sleep.o)
 .group         0x0000000000000000        0x8 /Users/jkwang/Desktop/nacl_sdk/pepper_canary/toolchain/mac_pnacl/bin/../arm-nacl/lib/libcrt_common.a(lib_a-stdio.o)
 .note.NaCl.ABI.arm
                0x0000000000000000       0x30 /Users/jkwang/Desktop/nacl_sdk/pepper_canary/toolchain/mac_pnacl/bin/../arm-nacl/lib/libcrt_common.a(lib_a-stdio.o)
 .note.GNU-stack
                0x0000000000000000        0x0 /Users/jkwang/Desktop/nacl_sdk/pepper_canary/toolchain/mac_pnacl/bin/../arm-nacl/lib/libcrt_common.a(lib_a-stdio.o)
 .group         0x0000000000000000        0x8 /Users/jkwang/Desktop/nacl_sdk/pepper_canary/toolchain/mac_pnacl/bin/../arm-nacl/lib/libcrt_common.a(lib_a-strcat.o)
 .note.NaCl.ABI.arm
                0x0000000000000000       0x30 /Users/jkwang/Desktop/nacl_sdk/pepper_canary/toolchain/mac_pnacl/bin/../arm-nacl/lib/libcrt_common.a(lib_a-strcat.o)
 .note.GNU-stack
                0x0000000000000000        0x0 /Users/jkwang/Desktop/nacl_sdk/pepper_canary/toolchain/mac_pnacl/bin/../arm-nacl/lib/libcrt_common.a(lib_a-strcat.o)
 .group         0x0000000000000000        0x8 /Users/jkwang/Desktop/nacl_sdk/pepper_canary/toolchain/mac_pnacl/bin/../arm-nacl/lib/libcrt_common.a(lib_a-strcmp.o)
 .note.NaCl.ABI.arm
                0x0000000000000000       0x18 /Users/jkwang/Desktop/nacl_sdk/pepper_canary/toolchain/mac_pnacl/bin/../arm-nacl/lib/libcrt_common.a(lib_a-strcmp.o)
 .group         0x0000000000000000        0x8 /Users/jkwang/Desktop/nacl_sdk/pepper_canary/toolchain/mac_pnacl/bin/../arm-nacl/lib/libcrt_common.a(lib_a-strcpy.o)
 .note.NaCl.ABI.arm
                0x0000000000000000       0x30 /Users/jkwang/Desktop/nacl_sdk/pepper_canary/toolchain/mac_pnacl/bin/../arm-nacl/lib/libcrt_common.a(lib_a-strcpy.o)
 .note.GNU-stack
                0x0000000000000000        0x0 /Users/jkwang/Desktop/nacl_sdk/pepper_canary/toolchain/mac_pnacl/bin/../arm-nacl/lib/libcrt_common.a(lib_a-strcpy.o)
 .group         0x0000000000000000        0x8 /Users/jkwang/Desktop/nacl_sdk/pepper_canary/toolchain/mac_pnacl/bin/../arm-nacl/lib/libcrt_common.a(lib_a-strlen-armv7.o)
 .note.NaCl.ABI.arm
                0x0000000000000000       0x18 /Users/jkwang/Desktop/nacl_sdk/pepper_canary/toolchain/mac_pnacl/bin/../arm-nacl/lib/libcrt_common.a(lib_a-strlen-armv7.o)
 .group         0x0000000000000000        0x8 /Users/jkwang/Desktop/nacl_sdk/pepper_canary/toolchain/mac_pnacl/bin/../arm-nacl/lib/libcrt_common.a(lib_a-strncmp.o)
 .note.NaCl.ABI.arm
                0x0000000000000000       0x30 /Users/jkwang/Desktop/nacl_sdk/pepper_canary/toolchain/mac_pnacl/bin/../arm-nacl/lib/libcrt_common.a(lib_a-strncmp.o)
 .note.GNU-stack
                0x0000000000000000        0x0 /Users/jkwang/Desktop/nacl_sdk/pepper_canary/toolchain/mac_pnacl/bin/../arm-nacl/lib/libcrt_common.a(lib_a-strncmp.o)
 .group         0x0000000000000000        0x8 /Users/jkwang/Desktop/nacl_sdk/pepper_canary/toolchain/mac_pnacl/bin/../arm-nacl/lib/libcrt_common.a(lib_a-vfprintf.o)
 .note.NaCl.ABI.arm
                0x0000000000000000       0x30 /Users/jkwang/Desktop/nacl_sdk/pepper_canary/toolchain/mac_pnacl/bin/../arm-nacl/lib/libcrt_common.a(lib_a-vfprintf.o)
 .note.GNU-stack
                0x0000000000000000        0x0 /Users/jkwang/Desktop/nacl_sdk/pepper_canary/toolchain/mac_pnacl/bin/../arm-nacl/lib/libcrt_common.a(lib_a-vfprintf.o)
 .group         0x0000000000000000        0x8 /Users/jkwang/Desktop/nacl_sdk/pepper_canary/toolchain/mac_pnacl/bin/../arm-nacl/lib/libcrt_common.a(lib_a-vsnprintf.o)
 .note.NaCl.ABI.arm
                0x0000000000000000       0x30 /Users/jkwang/Desktop/nacl_sdk/pepper_canary/toolchain/mac_pnacl/bin/../arm-nacl/lib/libcrt_common.a(lib_a-vsnprintf.o)
 .note.GNU-stack
                0x0000000000000000        0x0 /Users/jkwang/Desktop/nacl_sdk/pepper_canary/toolchain/mac_pnacl/bin/../arm-nacl/lib/libcrt_common.a(lib_a-vsnprintf.o)
 .group         0x0000000000000000        0x8 /Users/jkwang/Desktop/nacl_sdk/pepper_canary/toolchain/mac_pnacl/bin/../arm-nacl/lib/libcrt_common.a(lib_a-vsprintf.o)
 .note.NaCl.ABI.arm
                0x0000000000000000       0x30 /Users/jkwang/Desktop/nacl_sdk/pepper_canary/toolchain/mac_pnacl/bin/../arm-nacl/lib/libcrt_common.a(lib_a-vsprintf.o)
 .note.GNU-stack
                0x0000000000000000        0x0 /Users/jkwang/Desktop/nacl_sdk/pepper_canary/toolchain/mac_pnacl/bin/../arm-nacl/lib/libcrt_common.a(lib_a-vsprintf.o)
 .group         0x0000000000000000        0x8 /Users/jkwang/Desktop/nacl_sdk/pepper_canary/toolchain/mac_pnacl/bin/../arm-nacl/lib/libcrt_common.a(lib_a-wcrtomb.o)
 .note.NaCl.ABI.arm
                0x0000000000000000       0x30 /Users/jkwang/Desktop/nacl_sdk/pepper_canary/toolchain/mac_pnacl/bin/../arm-nacl/lib/libcrt_common.a(lib_a-wcrtomb.o)
 .note.GNU-stack
                0x0000000000000000        0x0 /Users/jkwang/Desktop/nacl_sdk/pepper_canary/toolchain/mac_pnacl/bin/../arm-nacl/lib/libcrt_common.a(lib_a-wcrtomb.o)
 .group         0x0000000000000000        0x8 /Users/jkwang/Desktop/nacl_sdk/pepper_canary/toolchain/mac_pnacl/bin/../arm-nacl/lib/libcrt_common.a(lib_a-wcsrtombs.o)
 .note.NaCl.ABI.arm
                0x0000000000000000       0x30 /Users/jkwang/Desktop/nacl_sdk/pepper_canary/toolchain/mac_pnacl/bin/../arm-nacl/lib/libcrt_common.a(lib_a-wcsrtombs.o)
 .note.GNU-stack
                0x0000000000000000        0x0 /Users/jkwang/Desktop/nacl_sdk/pepper_canary/toolchain/mac_pnacl/bin/../arm-nacl/lib/libcrt_common.a(lib_a-wcsrtombs.o)
 .group         0x0000000000000000        0x8 /Users/jkwang/Desktop/nacl_sdk/pepper_canary/toolchain/mac_pnacl/bin/../arm-nacl/lib/libcrt_common.a(lib_a-wctomb_r.o)
 .note.NaCl.ABI.arm
                0x0000000000000000       0x30 /Users/jkwang/Desktop/nacl_sdk/pepper_canary/toolchain/mac_pnacl/bin/../arm-nacl/lib/libcrt_common.a(lib_a-wctomb_r.o)
 .note.GNU-stack
                0x0000000000000000        0x0 /Users/jkwang/Desktop/nacl_sdk/pepper_canary/toolchain/mac_pnacl/bin/../arm-nacl/lib/libcrt_common.a(lib_a-wctomb_r.o)
 .group         0x0000000000000000        0x8 /Users/jkwang/Desktop/nacl_sdk/pepper_canary/toolchain/mac_pnacl/bin/../arm-nacl/lib/libcrt_common.a(lib_a-wsetup.o)
 .note.NaCl.ABI.arm
                0x0000000000000000       0x30 /Users/jkwang/Desktop/nacl_sdk/pepper_canary/toolchain/mac_pnacl/bin/../arm-nacl/lib/libcrt_common.a(lib_a-wsetup.o)
 .note.GNU-stack
                0x0000000000000000        0x0 /Users/jkwang/Desktop/nacl_sdk/pepper_canary/toolchain/mac_pnacl/bin/../arm-nacl/lib/libcrt_common.a(lib_a-wsetup.o)
 .group         0x0000000000000000        0x8 /Users/jkwang/Desktop/nacl_sdk/pepper_canary/toolchain/mac_pnacl/bin/../arm-nacl/lib/libcrt_common.a(lib_a-__atexit.o)
 .note.NaCl.ABI.arm
                0x0000000000000000       0x30 /Users/jkwang/Desktop/nacl_sdk/pepper_canary/toolchain/mac_pnacl/bin/../arm-nacl/lib/libcrt_common.a(lib_a-__atexit.o)
 .note.GNU-stack
                0x0000000000000000        0x0 /Users/jkwang/Desktop/nacl_sdk/pepper_canary/toolchain/mac_pnacl/bin/../arm-nacl/lib/libcrt_common.a(lib_a-__atexit.o)
 .group         0x0000000000000000        0x8 /Users/jkwang/Desktop/nacl_sdk/pepper_canary/toolchain/mac_pnacl/bin/../arm-nacl/lib/libcrt_common.a(lib_a-__call_atexit.o)
 .note.NaCl.ABI.arm
                0x0000000000000000       0x30 /Users/jkwang/Desktop/nacl_sdk/pepper_canary/toolchain/mac_pnacl/bin/../arm-nacl/lib/libcrt_common.a(lib_a-__call_atexit.o)
 .note.GNU-stack
                0x0000000000000000        0x0 /Users/jkwang/Desktop/nacl_sdk/pepper_canary/toolchain/mac_pnacl/bin/../arm-nacl/lib/libcrt_common.a(lib_a-__call_atexit.o)
 .group         0x0000000000000000        0x8 /Users/jkwang/Desktop/nacl_sdk/pepper_canary/toolchain/mac_pnacl/bin/../arm-nacl/lib/libcrt_common.a(lib_a-dtoa.o)
 .note.NaCl.ABI.arm
                0x0000000000000000       0x30 /Users/jkwang/Desktop/nacl_sdk/pepper_canary/toolchain/mac_pnacl/bin/../arm-nacl/lib/libcrt_common.a(lib_a-dtoa.o)
 .note.GNU-stack
                0x0000000000000000        0x0 /Users/jkwang/Desktop/nacl_sdk/pepper_canary/toolchain/mac_pnacl/bin/../arm-nacl/lib/libcrt_common.a(lib_a-dtoa.o)
 .group         0x0000000000000000        0x8 /Users/jkwang/Desktop/nacl_sdk/pepper_canary/toolchain/mac_pnacl/bin/../arm-nacl/lib/libcrt_common.a(lib_a-envlock.o)
 .note.NaCl.ABI.arm
                0x0000000000000000       0x30 /Users/jkwang/Desktop/nacl_sdk/pepper_canary/toolchain/mac_pnacl/bin/../arm-nacl/lib/libcrt_common.a(lib_a-envlock.o)
 .note.GNU-stack
                0x0000000000000000        0x0 /Users/jkwang/Desktop/nacl_sdk/pepper_canary/toolchain/mac_pnacl/bin/../arm-nacl/lib/libcrt_common.a(lib_a-envlock.o)
 .group         0x0000000000000000        0x8 /Users/jkwang/Desktop/nacl_sdk/pepper_canary/toolchain/mac_pnacl/bin/../arm-nacl/lib/libcrt_common.a(lib_a-fclose.o)
 .note.NaCl.ABI.arm
                0x0000000000000000       0x30 /Users/jkwang/Desktop/nacl_sdk/pepper_canary/toolchain/mac_pnacl/bin/../arm-nacl/lib/libcrt_common.a(lib_a-fclose.o)
 .note.GNU-stack
                0x0000000000000000        0x0 /Users/jkwang/Desktop/nacl_sdk/pepper_canary/toolchain/mac_pnacl/bin/../arm-nacl/lib/libcrt_common.a(lib_a-fclose.o)
 .group         0x0000000000000000        0x8 /Users/jkwang/Desktop/nacl_sdk/pepper_canary/toolchain/mac_pnacl/bin/../arm-nacl/lib/libcrt_common.a(lib_a-fvwrite.o)
 .note.NaCl.ABI.arm
                0x0000000000000000       0x30 /Users/jkwang/Desktop/nacl_sdk/pepper_canary/toolchain/mac_pnacl/bin/../arm-nacl/lib/libcrt_common.a(lib_a-fvwrite.o)
 .note.GNU-stack
                0x0000000000000000        0x0 /Users/jkwang/Desktop/nacl_sdk/pepper_canary/toolchain/mac_pnacl/bin/../arm-nacl/lib/libcrt_common.a(lib_a-fvwrite.o)
 .group         0x0000000000000000        0x8 /Users/jkwang/Desktop/nacl_sdk/pepper_canary/toolchain/mac_pnacl/bin/../arm-nacl/lib/libcrt_common.a(lib_a-locale.o)
 .note.NaCl.ABI.arm
                0x0000000000000000       0x30 /Users/jkwang/Desktop/nacl_sdk/pepper_canary/toolchain/mac_pnacl/bin/../arm-nacl/lib/libcrt_common.a(lib_a-locale.o)
 .note.GNU-stack
                0x0000000000000000        0x0 /Users/jkwang/Desktop/nacl_sdk/pepper_canary/toolchain/mac_pnacl/bin/../arm-nacl/lib/libcrt_common.a(lib_a-locale.o)
 .group         0x0000000000000000        0x8 /Users/jkwang/Desktop/nacl_sdk/pepper_canary/toolchain/mac_pnacl/bin/../arm-nacl/lib/libcrt_common.a(lib_a-makebuf.o)
 .note.NaCl.ABI.arm
                0x0000000000000000       0x30 /Users/jkwang/Desktop/nacl_sdk/pepper_canary/toolchain/mac_pnacl/bin/../arm-nacl/lib/libcrt_common.a(lib_a-makebuf.o)
 .note.GNU-stack
                0x0000000000000000        0x0 /Users/jkwang/Desktop/nacl_sdk/pepper_canary/toolchain/mac_pnacl/bin/../arm-nacl/lib/libcrt_common.a(lib_a-makebuf.o)
 .group         0x0000000000000000        0x8 /Users/jkwang/Desktop/nacl_sdk/pepper_canary/toolchain/mac_pnacl/bin/../arm-nacl/lib/libcrt_common.a(lib_a-mbtowc_r.o)
 .note.NaCl.ABI.arm
                0x0000000000000000       0x30 /Users/jkwang/Desktop/nacl_sdk/pepper_canary/toolchain/mac_pnacl/bin/../arm-nacl/lib/libcrt_common.a(lib_a-mbtowc_r.o)
 .note.GNU-stack
                0x0000000000000000        0x0 /Users/jkwang/Desktop/nacl_sdk/pepper_canary/toolchain/mac_pnacl/bin/../arm-nacl/lib/libcrt_common.a(lib_a-mbtowc_r.o)
 .group         0x0000000000000000        0x8 /Users/jkwang/Desktop/nacl_sdk/pepper_canary/toolchain/mac_pnacl/bin/../arm-nacl/lib/libcrt_common.a(lib_a-memchr.o)
 .note.NaCl.ABI.arm
                0x0000000000000000       0x18 /Users/jkwang/Desktop/nacl_sdk/pepper_canary/toolchain/mac_pnacl/bin/../arm-nacl/lib/libcrt_common.a(lib_a-memchr.o)
 .group         0x0000000000000000        0x8 /Users/jkwang/Desktop/nacl_sdk/pepper_canary/toolchain/mac_pnacl/bin/../arm-nacl/lib/libcrt_common.a(lib_a-memcpy.o)
 .note.NaCl.ABI.arm
                0x0000000000000000       0x18 /Users/jkwang/Desktop/nacl_sdk/pepper_canary/toolchain/mac_pnacl/bin/../arm-nacl/lib/libcrt_common.a(lib_a-memcpy.o)
 .group         0x0000000000000000        0x8 /Users/jkwang/Desktop/nacl_sdk/pepper_canary/toolchain/mac_pnacl/bin/../arm-nacl/lib/libcrt_common.a(lib_a-memmove.o)
 .note.NaCl.ABI.arm
                0x0000000000000000       0x30 /Users/jkwang/Desktop/nacl_sdk/pepper_canary/toolchain/mac_pnacl/bin/../arm-nacl/lib/libcrt_common.a(lib_a-memmove.o)
 .note.GNU-stack
                0x0000000000000000        0x0 /Users/jkwang/Desktop/nacl_sdk/pepper_canary/toolchain/mac_pnacl/bin/../arm-nacl/lib/libcrt_common.a(lib_a-memmove.o)
 .group         0x0000000000000000        0x8 /Users/jkwang/Desktop/nacl_sdk/pepper_canary/toolchain/mac_pnacl/bin/../arm-nacl/lib/libcrt_common.a(lib_a-mprec.o)
 .note.NaCl.ABI.arm
                0x0000000000000000       0x30 /Users/jkwang/Desktop/nacl_sdk/pepper_canary/toolchain/mac_pnacl/bin/../arm-nacl/lib/libcrt_common.a(lib_a-mprec.o)
 .note.GNU-stack
                0x0000000000000000        0x0 /Users/jkwang/Desktop/nacl_sdk/pepper_canary/toolchain/mac_pnacl/bin/../arm-nacl/lib/libcrt_common.a(lib_a-mprec.o)
 .group         0x0000000000000000        0x8 /Users/jkwang/Desktop/nacl_sdk/pepper_canary/toolchain/mac_pnacl/bin/../arm-nacl/lib/libcrt_common.a(lib_a-s_fpclassify.o)
 .note.NaCl.ABI.arm
                0x0000000000000000       0x30 /Users/jkwang/Desktop/nacl_sdk/pepper_canary/toolchain/mac_pnacl/bin/../arm-nacl/lib/libcrt_common.a(lib_a-s_fpclassify.o)
 .note.GNU-stack
                0x0000000000000000        0x0 /Users/jkwang/Desktop/nacl_sdk/pepper_canary/toolchain/mac_pnacl/bin/../arm-nacl/lib/libcrt_common.a(lib_a-s_fpclassify.o)
 .group         0x0000000000000000        0x8 /Users/jkwang/Desktop/nacl_sdk/pepper_canary/toolchain/mac_pnacl/bin/../arm-nacl/lib/libcrt_common.a(lib_a-s_frexp.o)
 .note.NaCl.ABI.arm
                0x0000000000000000       0x30 /Users/jkwang/Desktop/nacl_sdk/pepper_canary/toolchain/mac_pnacl/bin/../arm-nacl/lib/libcrt_common.a(lib_a-s_frexp.o)
 .note.GNU-stack
                0x0000000000000000        0x0 /Users/jkwang/Desktop/nacl_sdk/pepper_canary/toolchain/mac_pnacl/bin/../arm-nacl/lib/libcrt_common.a(lib_a-s_frexp.o)
 .group         0x0000000000000000        0x8 /Users/jkwang/Desktop/nacl_sdk/pepper_canary/toolchain/mac_pnacl/bin/../arm-nacl/lib/libcrt_common.a(lib_a-strcasecmp.o)
 .note.NaCl.ABI.arm
                0x0000000000000000       0x30 /Users/jkwang/Desktop/nacl_sdk/pepper_canary/toolchain/mac_pnacl/bin/../arm-nacl/lib/libcrt_common.a(lib_a-strcasecmp.o)
 .note.GNU-stack
                0x0000000000000000        0x0 /Users/jkwang/Desktop/nacl_sdk/pepper_canary/toolchain/mac_pnacl/bin/../arm-nacl/lib/libcrt_common.a(lib_a-strcasecmp.o)
 .group         0x0000000000000000        0x8 /Users/jkwang/Desktop/nacl_sdk/pepper_canary/toolchain/mac_pnacl/bin/../arm-nacl/lib/libcrt_common.a(lib_a-strchr.o)
 .note.NaCl.ABI.arm
                0x0000000000000000       0x30 /Users/jkwang/Desktop/nacl_sdk/pepper_canary/toolchain/mac_pnacl/bin/../arm-nacl/lib/libcrt_common.a(lib_a-strchr.o)
 .note.GNU-stack
                0x0000000000000000        0x0 /Users/jkwang/Desktop/nacl_sdk/pepper_canary/toolchain/mac_pnacl/bin/../arm-nacl/lib/libcrt_common.a(lib_a-strchr.o)
 .group         0x0000000000000000        0x8 /Users/jkwang/Desktop/nacl_sdk/pepper_canary/toolchain/mac_pnacl/bin/../arm-nacl/lib/libcrt_common.a(lib_a-strlcpy.o)
 .note.NaCl.ABI.arm
                0x0000000000000000       0x30 /Users/jkwang/Desktop/nacl_sdk/pepper_canary/toolchain/mac_pnacl/bin/../arm-nacl/lib/libcrt_common.a(lib_a-strlcpy.o)
 .note.GNU-stack
                0x0000000000000000        0x0 /Users/jkwang/Desktop/nacl_sdk/pepper_canary/toolchain/mac_pnacl/bin/../arm-nacl/lib/libcrt_common.a(lib_a-strlcpy.o)
 .group         0x0000000000000000        0x8 /Users/jkwang/Desktop/nacl_sdk/pepper_canary/toolchain/mac_pnacl/bin/../arm-nacl/lib/libcrt_common.a(lib_a-strncasecmp.o)
 .note.NaCl.ABI.arm
                0x0000000000000000       0x30 /Users/jkwang/Desktop/nacl_sdk/pepper_canary/toolchain/mac_pnacl/bin/../arm-nacl/lib/libcrt_common.a(lib_a-strncasecmp.o)
 .note.GNU-stack
                0x0000000000000000        0x0 /Users/jkwang/Desktop/nacl_sdk/pepper_canary/toolchain/mac_pnacl/bin/../arm-nacl/lib/libcrt_common.a(lib_a-strncasecmp.o)
 .group         0x0000000000000000        0x8 /Users/jkwang/Desktop/nacl_sdk/pepper_canary/toolchain/mac_pnacl/bin/../arm-nacl/lib/libcrt_common.a(lib_a-strncpy.o)
 .note.NaCl.ABI.arm
                0x0000000000000000       0x30 /Users/jkwang/Desktop/nacl_sdk/pepper_canary/toolchain/mac_pnacl/bin/../arm-nacl/lib/libcrt_common.a(lib_a-strncpy.o)
 .note.GNU-stack
                0x0000000000000000        0x0 /Users/jkwang/Desktop/nacl_sdk/pepper_canary/toolchain/mac_pnacl/bin/../arm-nacl/lib/libcrt_common.a(lib_a-strncpy.o)
 .group         0x0000000000000000        0x8 /Users/jkwang/Desktop/nacl_sdk/pepper_canary/toolchain/mac_pnacl/bin/../arm-nacl/lib/libcrt_common.a(lib_a-strtol.o)
 .note.NaCl.ABI.arm
                0x0000000000000000       0x30 /Users/jkwang/Desktop/nacl_sdk/pepper_canary/toolchain/mac_pnacl/bin/../arm-nacl/lib/libcrt_common.a(lib_a-strtol.o)
 .note.GNU-stack
                0x0000000000000000        0x0 /Users/jkwang/Desktop/nacl_sdk/pepper_canary/toolchain/mac_pnacl/bin/../arm-nacl/lib/libcrt_common.a(lib_a-strtol.o)
 .group         0x0000000000000000        0x8 /Users/jkwang/Desktop/nacl_sdk/pepper_canary/toolchain/mac_pnacl/bin/../arm-nacl/lib/libcrt_common.a(lib_a-svfprintf.o)
 .note.NaCl.ABI.arm
                0x0000000000000000       0x30 /Users/jkwang/Desktop/nacl_sdk/pepper_canary/toolchain/mac_pnacl/bin/../arm-nacl/lib/libcrt_common.a(lib_a-svfprintf.o)
 .note.GNU-stack
                0x0000000000000000        0x0 /Users/jkwang/Desktop/nacl_sdk/pepper_canary/toolchain/mac_pnacl/bin/../arm-nacl/lib/libcrt_common.a(lib_a-svfprintf.o)
 .group         0x0000000000000000        0x8 /Users/jkwang/Desktop/nacl_sdk/pepper_canary/toolchain/mac_pnacl/bin/../arm-nacl/lib/libcrt_common.a(lib_a-vfiprintf.o)
 .note.NaCl.ABI.arm
                0x0000000000000000       0x30 /Users/jkwang/Desktop/nacl_sdk/pepper_canary/toolchain/mac_pnacl/bin/../arm-nacl/lib/libcrt_common.a(lib_a-vfiprintf.o)
 .note.GNU-stack
                0x0000000000000000        0x0 /Users/jkwang/Desktop/nacl_sdk/pepper_canary/toolchain/mac_pnacl/bin/../arm-nacl/lib/libcrt_common.a(lib_a-vfiprintf.o)
 .group         0x0000000000000000        0x8 /Users/jkwang/Desktop/nacl_sdk/pepper_canary/toolchain/mac_pnacl/bin/../arm-nacl/lib/libcrt_common.a(lib_a-wcsnrtombs.o)
 .note.NaCl.ABI.arm
                0x0000000000000000       0x30 /Users/jkwang/Desktop/nacl_sdk/pepper_canary/toolchain/mac_pnacl/bin/../arm-nacl/lib/libcrt_common.a(lib_a-wcsnrtombs.o)
 .note.GNU-stack
                0x0000000000000000        0x0 /Users/jkwang/Desktop/nacl_sdk/pepper_canary/toolchain/mac_pnacl/bin/../arm-nacl/lib/libcrt_common.a(lib_a-wcsnrtombs.o)
 .group         0x0000000000000000        0x8 /Users/jkwang/Desktop/nacl_sdk/pepper_canary/toolchain/mac_pnacl/bin/../arm-nacl/lib/libcrt_common.a(lib_a-ctype_.o)
 .note.NaCl.ABI.arm
                0x0000000000000000       0x30 /Users/jkwang/Desktop/nacl_sdk/pepper_canary/toolchain/mac_pnacl/bin/../arm-nacl/lib/libcrt_common.a(lib_a-ctype_.o)
 .note.GNU-stack
                0x0000000000000000        0x0 /Users/jkwang/Desktop/nacl_sdk/pepper_canary/toolchain/mac_pnacl/bin/../arm-nacl/lib/libcrt_common.a(lib_a-ctype_.o)
 .group         0x0000000000000000        0x8 /Users/jkwang/Desktop/nacl_sdk/pepper_canary/toolchain/mac_pnacl/bin/../arm-nacl/lib/libcrt_common.a(lib_a-fputwc.o)
 .note.NaCl.ABI.arm
                0x0000000000000000       0x30 /Users/jkwang/Desktop/nacl_sdk/pepper_canary/toolchain/mac_pnacl/bin/../arm-nacl/lib/libcrt_common.a(lib_a-fputwc.o)
 .note.GNU-stack
                0x0000000000000000        0x0 /Users/jkwang/Desktop/nacl_sdk/pepper_canary/toolchain/mac_pnacl/bin/../arm-nacl/lib/libcrt_common.a(lib_a-fputwc.o)
 .group         0x0000000000000000        0x8 /Users/jkwang/Desktop/nacl_sdk/pepper_canary/toolchain/mac_pnacl/bin/../arm-nacl/lib/libcrt_common.a(lib_a-svfiprintf.o)
 .note.NaCl.ABI.arm
                0x0000000000000000       0x30 /Users/jkwang/Desktop/nacl_sdk/pepper_canary/toolchain/mac_pnacl/bin/../arm-nacl/lib/libcrt_common.a(lib_a-svfiprintf.o)
 .note.GNU-stack
                0x0000000000000000        0x0 /Users/jkwang/Desktop/nacl_sdk/pepper_canary/toolchain/mac_pnacl/bin/../arm-nacl/lib/libcrt_common.a(lib_a-svfiprintf.o)
 .group         0x0000000000000000        0x8 /Users/jkwang/Desktop/nacl_sdk/pepper_canary/toolchain/mac_pnacl/bin/../arm-nacl/lib/libcrt_common.a(lib_a-wbuf.o)
 .note.NaCl.ABI.arm
                0x0000000000000000       0x30 /Users/jkwang/Desktop/nacl_sdk/pepper_canary/toolchain/mac_pnacl/bin/../arm-nacl/lib/libcrt_common.a(lib_a-wbuf.o)
 .note.GNU-stack
                0x0000000000000000        0x0 /Users/jkwang/Desktop/nacl_sdk/pepper_canary/toolchain/mac_pnacl/bin/../arm-nacl/lib/libcrt_common.a(lib_a-wbuf.o)
 .group         0x0000000000000000        0x8 /Users/jkwang/Desktop/nacl_sdk/pepper_canary/toolchain/mac_pnacl/bin/../arm-nacl/lib/libnacl.a(close.o)
 .note.NaCl.ABI.arm
                0x0000000000000000       0x18 /Users/jkwang/Desktop/nacl_sdk/pepper_canary/toolchain/mac_pnacl/bin/../arm-nacl/lib/libnacl.a(close.o)
 .note.GNU-stack
                0x0000000000000000        0x0 /Users/jkwang/Desktop/nacl_sdk/pepper_canary/toolchain/mac_pnacl/bin/../arm-nacl/lib/libnacl.a(close.o)
 .group         0x0000000000000000        0x8 /Users/jkwang/Desktop/nacl_sdk/pepper_canary/toolchain/mac_pnacl/bin/../arm-nacl/lib/libnacl.a(fstat.o)
 .note.NaCl.ABI.arm
                0x0000000000000000       0x18 /Users/jkwang/Desktop/nacl_sdk/pepper_canary/toolchain/mac_pnacl/bin/../arm-nacl/lib/libnacl.a(fstat.o)
 .note.GNU-stack
                0x0000000000000000        0x0 /Users/jkwang/Desktop/nacl_sdk/pepper_canary/toolchain/mac_pnacl/bin/../arm-nacl/lib/libnacl.a(fstat.o)
 .group         0x0000000000000000        0x8 /Users/jkwang/Desktop/nacl_sdk/pepper_canary/toolchain/mac_pnacl/bin/../arm-nacl/lib/libnacl.a(isatty.o)
 .note.NaCl.ABI.arm
                0x0000000000000000       0x18 /Users/jkwang/Desktop/nacl_sdk/pepper_canary/toolchain/mac_pnacl/bin/../arm-nacl/lib/libnacl.a(isatty.o)
 .note.GNU-stack
                0x0000000000000000        0x0 /Users/jkwang/Desktop/nacl_sdk/pepper_canary/toolchain/mac_pnacl/bin/../arm-nacl/lib/libnacl.a(isatty.o)
 .group         0x0000000000000000        0x8 /Users/jkwang/Desktop/nacl_sdk/pepper_canary/toolchain/mac_pnacl/bin/../arm-nacl/lib/libnacl.a(lseek.o)
 .note.NaCl.ABI.arm
                0x0000000000000000       0x18 /Users/jkwang/Desktop/nacl_sdk/pepper_canary/toolchain/mac_pnacl/bin/../arm-nacl/lib/libnacl.a(lseek.o)
 .note.GNU-stack
                0x0000000000000000        0x0 /Users/jkwang/Desktop/nacl_sdk/pepper_canary/toolchain/mac_pnacl/bin/../arm-nacl/lib/libnacl.a(lseek.o)
 .group         0x0000000000000000        0x8 /Users/jkwang/Desktop/nacl_sdk/pepper_canary/toolchain/mac_pnacl/bin/../arm-nacl/lib/libnacl.a(nanosleep.o)
 .note.NaCl.ABI.arm
                0x0000000000000000       0x18 /Users/jkwang/Desktop/nacl_sdk/pepper_canary/toolchain/mac_pnacl/bin/../arm-nacl/lib/libnacl.a(nanosleep.o)
 .note.GNU-stack
                0x0000000000000000        0x0 /Users/jkwang/Desktop/nacl_sdk/pepper_canary/toolchain/mac_pnacl/bin/../arm-nacl/lib/libnacl.a(nanosleep.o)
 .group         0x0000000000000000        0x8 /Users/jkwang/Desktop/nacl_sdk/pepper_canary/toolchain/mac_pnacl/bin/../arm-nacl/lib/libnacl.a(nacl_irt_fdio.o)
 .note.NaCl.ABI.arm
                0x0000000000000000       0x18 /Users/jkwang/Desktop/nacl_sdk/pepper_canary/toolchain/mac_pnacl/bin/../arm-nacl/lib/libnacl.a(nacl_irt_fdio.o)
 .note.GNU-stack
                0x0000000000000000        0x0 /Users/jkwang/Desktop/nacl_sdk/pepper_canary/toolchain/mac_pnacl/bin/../arm-nacl/lib/libnacl.a(nacl_irt_fdio.o)
 .group         0x0000000000000000        0x8 /Users/jkwang/Desktop/nacl_sdk/pepper_canary/toolchain/mac_pnacl/bin/../arm-nacl/lib/libnacl.a(read.o)
 .note.NaCl.ABI.arm
                0x0000000000000000       0x18 /Users/jkwang/Desktop/nacl_sdk/pepper_canary/toolchain/mac_pnacl/bin/../arm-nacl/lib/libnacl.a(read.o)
 .note.GNU-stack
                0x0000000000000000        0x0 /Users/jkwang/Desktop/nacl_sdk/pepper_canary/toolchain/mac_pnacl/bin/../arm-nacl/lib/libnacl.a(read.o)
 .group         0x0000000000000000        0x8 /Users/jkwang/Desktop/nacl_sdk/pepper_canary/toolchain/mac_pnacl/bin/../lib/clang/3.7.0/lib/arm-nacl/libgcc.a(aeabi_memcpy.o)
 .note.NaCl.ABI.arm
                0x0000000000000000       0x18 /Users/jkwang/Desktop/nacl_sdk/pepper_canary/toolchain/mac_pnacl/bin/../lib/clang/3.7.0/lib/arm-nacl/libgcc.a(aeabi_memcpy.o)
 .group         0x0000000000000000        0x8 /Users/jkwang/Desktop/nacl_sdk/pepper_canary/toolchain/mac_pnacl/bin/../lib/clang/3.7.0/lib/arm-nacl/libgcc.a(aeabi_memset.o)
 .note.NaCl.ABI.arm
                0x0000000000000000       0x18 /Users/jkwang/Desktop/nacl_sdk/pepper_canary/toolchain/mac_pnacl/bin/../lib/clang/3.7.0/lib/arm-nacl/libgcc.a(aeabi_memset.o)
 .group         0x0000000000000000        0x8 /Users/jkwang/Desktop/nacl_sdk/pepper_canary/toolchain/mac_pnacl/bin/../lib/clang/3.7.0/lib/arm-nacl/libgcc.a(aeabi_uldivmod.o)
 .note.NaCl.ABI.arm
                0x0000000000000000       0x18 /Users/jkwang/Desktop/nacl_sdk/pepper_canary/toolchain/mac_pnacl/bin/../lib/clang/3.7.0/lib/arm-nacl/libgcc.a(aeabi_uldivmod.o)
 .group         0x0000000000000000        0x8 /Users/jkwang/Desktop/nacl_sdk/pepper_canary/toolchain/mac_pnacl/bin/../lib/clang/3.7.0/lib/arm-nacl/libgcc.a(modsi3.o)
 .note.NaCl.ABI.arm
                0x0000000000000000       0x30 /Users/jkwang/Desktop/nacl_sdk/pepper_canary/toolchain/mac_pnacl/bin/../lib/clang/3.7.0/lib/arm-nacl/libgcc.a(modsi3.o)
 .note.GNU-stack
                0x0000000000000000        0x0 /Users/jkwang/Desktop/nacl_sdk/pepper_canary/toolchain/mac_pnacl/bin/../lib/clang/3.7.0/lib/arm-nacl/libgcc.a(modsi3.o)
 .group         0x0000000000000000        0x8 /Users/jkwang/Desktop/nacl_sdk/pepper_canary/toolchain/mac_pnacl/bin/../lib/clang/3.7.0/lib/arm-nacl/libgcc.a(udivmoddi4.o)
 .note.NaCl.ABI.arm
                0x0000000000000000       0x30 /Users/jkwang/Desktop/nacl_sdk/pepper_canary/toolchain/mac_pnacl/bin/../lib/clang/3.7.0/lib/arm-nacl/libgcc.a(udivmoddi4.o)
 .note.GNU-stack
                0x0000000000000000        0x0 /Users/jkwang/Desktop/nacl_sdk/pepper_canary/toolchain/mac_pnacl/bin/../lib/clang/3.7.0/lib/arm-nacl/libgcc.a(udivmoddi4.o)
 .group         0x0000000000000000        0x8 /Users/jkwang/Desktop/nacl_sdk/pepper_canary/toolchain/mac_pnacl/bin/../lib/clang/3.7.0/lib/arm-nacl/libgcc.a(udivsi3.o)
 .note.NaCl.ABI.arm
                0x0000000000000000       0x30 /Users/jkwang/Desktop/nacl_sdk/pepper_canary/toolchain/mac_pnacl/bin/../lib/clang/3.7.0/lib/arm-nacl/libgcc.a(udivsi3.o)
 .note.GNU-stack
                0x0000000000000000        0x0 /Users/jkwang/Desktop/nacl_sdk/pepper_canary/toolchain/mac_pnacl/bin/../lib/clang/3.7.0/lib/arm-nacl/libgcc.a(udivsi3.o)
 .group         0x0000000000000000        0x8 /Users/jkwang/Desktop/nacl_sdk/pepper_canary/toolchain/mac_pnacl/bin/../lib/clang/3.7.0/lib/arm-nacl/libgcc.a(umoddi3.o)
 .note.NaCl.ABI.arm
                0x0000000000000000       0x30 /Users/jkwang/Desktop/nacl_sdk/pepper_canary/toolchain/mac_pnacl/bin/../lib/clang/3.7.0/lib/arm-nacl/libgcc.a(umoddi3.o)
 .note.GNU-stack
                0x0000000000000000        0x0 /Users/jkwang/Desktop/nacl_sdk/pepper_canary/toolchain/mac_pnacl/bin/../lib/clang/3.7.0/lib/arm-nacl/libgcc.a(umoddi3.o)
 .group         0x0000000000000000        0x8 /Users/jkwang/Desktop/nacl_sdk/pepper_canary/toolchain/mac_pnacl/bin/../lib/clang/3.7.0/lib/arm-nacl/libgcc.a(umodsi3.o)
 .note.NaCl.ABI.arm
                0x0000000000000000       0x30 /Users/jkwang/Desktop/nacl_sdk/pepper_canary/toolchain/mac_pnacl/bin/../lib/clang/3.7.0/lib/arm-nacl/libgcc.a(umodsi3.o)
 .note.GNU-stack
                0x0000000000000000        0x0 /Users/jkwang/Desktop/nacl_sdk/pepper_canary/toolchain/mac_pnacl/bin/../lib/clang/3.7.0/lib/arm-nacl/libgcc.a(umodsi3.o)
 .group         0x0000000000000000        0x8 /Users/jkwang/Desktop/nacl_sdk/pepper_canary/toolchain/mac_pnacl/bin/../lib/clang/3.7.0/lib/arm-nacl/libgcc.a(divsi3.o)
 .note.NaCl.ABI.arm
                0x0000000000000000       0x30 /Users/jkwang/Desktop/nacl_sdk/pepper_canary/toolchain/mac_pnacl/bin/../lib/clang/3.7.0/lib/arm-nacl/libgcc.a(divsi3.o)
 .note.GNU-stack
                0x0000000000000000        0x0 /Users/jkwang/Desktop/nacl_sdk/pepper_canary/toolchain/mac_pnacl/bin/../lib/clang/3.7.0/lib/arm-nacl/libgcc.a(divsi3.o)
 .group         0x0000000000000000        0x8 /Users/jkwang/Desktop/nacl_sdk/pepper_canary/toolchain/mac_pnacl/bin/../lib/clang/3.7.0/lib/arm-nacl/libgcc_eh.a(unwind-dw2-fde-glibc.o)
 .note.NaCl.ABI.arm
                0x0000000000000000       0x30 /Users/jkwang/Desktop/nacl_sdk/pepper_canary/toolchain/mac_pnacl/bin/../lib/clang/3.7.0/lib/arm-nacl/libgcc_eh.a(unwind-dw2-fde-glibc.o)
 .note.GNU-stack
                0x0000000000000000        0x0 /Users/jkwang/Desktop/nacl_sdk/pepper_canary/toolchain/mac_pnacl/bin/../lib/clang/3.7.0/lib/arm-nacl/libgcc_eh.a(unwind-dw2-fde-glibc.o)
 .group         0x0000000000000000        0x8 /Users/jkwang/Desktop/nacl_sdk/pepper_canary/toolchain/mac_pnacl/bin/../lib/clang/3.7.0/lib/arm-nacl/crtend.o
 .note.NaCl.ABI.arm
                0x0000000000000000       0x30 /Users/jkwang/Desktop/nacl_sdk/pepper_canary/toolchain/mac_pnacl/bin/../lib/clang/3.7.0/lib/arm-nacl/crtend.o
 .note.GNU-stack
                0x0000000000000000        0x0 /Users/jkwang/Desktop/nacl_sdk/pepper_canary/toolchain/mac_pnacl/bin/../lib/clang/3.7.0/lib/arm-nacl/crtend.o
 .group         0x0000000000000000        0x8 /Users/jkwang/Desktop/nacl_sdk/pepper_canary/toolchain/mac_pnacl/bin/../arm-nacl/lib/crtn.o
 .note.NaCl.ABI.arm
                0x0000000000000000       0x18 /Users/jkwang/Desktop/nacl_sdk/pepper_canary/toolchain/mac_pnacl/bin/../arm-nacl/lib/crtn.o

Memory Configuration

Name             Origin             Length             Attributes
*default*        0x0000000000000000 0xffffffffffffffff

Linker script and memory map

LOAD /Users/jkwang/Desktop/nacl_sdk/pepper_canary/toolchain/mac_pnacl/bin/../arm-nacl/lib/crt1.o
LOAD /Users/jkwang/Desktop/nacl_sdk/pepper_canary/toolchain/mac_pnacl/bin/../arm-nacl/lib/crti.o
LOAD /Users/jkwang/Desktop/nacl_sdk/pepper_canary/toolchain/mac_pnacl/bin/../lib/clang/3.7.0/lib/arm-nacl/crtbeginT.o
LOAD clang-newlib/Release/debugging_arm.o
LOAD /Users/jkwang/Desktop/nacl_sdk/pepper_canary/lib/clang-newlib_arm/Release/liberror_handling.a
LOAD /Users/jkwang/Desktop/nacl_sdk/pepper_canary/toolchain/mac_pnacl/bin/../arm-nacl/lib/libppapi.a
LOAD /Users/jkwang/Desktop/nacl_sdk/pepper_canary/toolchain/mac_pnacl/bin/../arm-nacl/lib/libppapi_stub.a
LOAD /Users/jkwang/Desktop/nacl_sdk/pepper_canary/toolchain/mac_pnacl/bin/../arm-nacl/lib/libpthread.a
LOAD /Users/jkwang/Desktop/nacl_sdk/pepper_canary/toolchain/mac_pnacl/bin/../arm-nacl/lib/libc++.a
LOAD /Users/jkwang/Desktop/nacl_sdk/pepper_canary/toolchain/mac_pnacl/bin/../arm-nacl/lib/libm.a
START GROUP
LOAD /Users/jkwang/Desktop/nacl_sdk/pepper_canary/toolchain/mac_pnacl/bin/../arm-nacl/lib/libc.a
START GROUP
LOAD /Users/jkwang/Desktop/nacl_sdk/pepper_canary/toolchain/mac_pnacl/bin/../arm-nacl/lib/libnacl.a
LOAD /Users/jkwang/Desktop/nacl_sdk/pepper_canary/toolchain/mac_pnacl/bin/../arm-nacl/lib/libcrt_common.a
END GROUP
LOAD /Users/jkwang/Desktop/nacl_sdk/pepper_canary/toolchain/mac_pnacl/bin/../arm-nacl/lib/libpthread.a
LOAD /Users/jkwang/Desktop/nacl_sdk/pepper_canary/toolchain/mac_pnacl/bin/../lib/clang/3.7.0/lib/arm-nacl/libgcc.a
LOAD /Users/jkwang/Desktop/nacl_sdk/pepper_canary/toolchain/mac_pnacl/bin/../lib/clang/3.7.0/lib/arm-nacl/libgcc_eh.a
END GROUP
LOAD /Users/jkwang/Desktop/nacl_sdk/pepper_canary/toolchain/mac_pnacl/bin/../lib/clang/3.7.0/lib/arm-nacl/crtend.o
LOAD /Users/jkwang/Desktop/nacl_sdk/pepper_canary/toolchain/mac_pnacl/bin/../arm-nacl/lib/crtn.o
                0x0000000000020000                PROVIDE (__executable_start, 0x20000)
                0x0000000000020000                . = 0x20000

.init
 *(SORT(.init))

.plt
 *(.plt)

.iplt           0x0000000000020000        0x0
 *(.iplt)
 .iplt          0x0000000000020000        0x0 /Users/jkwang/Desktop/nacl_sdk/pepper_canary/toolchain/mac_pnacl/bin/../arm-nacl/lib/crti.o

.text           0x0000000000020000    0x23720
 *(.text.unlikely .text.*_unlikely .text.unlikely.*)
 *(.text.exit .text.exit.*)
 .text.exit     0x0000000000020000       0x60 /Users/jkwang/Desktop/nacl_sdk/pepper_canary/toolchain/mac_pnacl/bin/../arm-nacl/lib/libcrt_common.a(lib_a-exit.o)
                0x0000000000020000                exit
 *(.text.startup .text.startup.*)
 *(.text.hot .text.hot.*)
 *(.text .stub .text.* .gnu.linkonce.t.*)
 .text          0x0000000000020060       0x20 /Users/jkwang/Desktop/nacl_sdk/pepper_canary/toolchain/mac_pnacl/bin/../arm-nacl/lib/crti.o
                0x0000000000020060                _init
                0x0000000000020070                _fini
 .text          0x0000000000020080       0x30 /Users/jkwang/Desktop/nacl_sdk/pepper_canary/toolchain/mac_pnacl/bin/../lib/clang/3.7.0/lib/arm-nacl/crtbeginT.o
 .text          0x00000000000200b0      0x5c0 clang-newlib/Release/debugging_arm.o
                0x00000000000200b0                layer5
                0x00000000000200e0                layer4
                0x0000000000020110                layer3
                0x0000000000020140                layer2
                0x0000000000020170                layer1
                0x00000000000201a0                NexeMain
                0x0000000000020200                PostMessage
                0x0000000000020390                DumpJson
                0x0000000000020400                PPP_InitializeModule
                0x0000000000020480                PPP_GetInterface
                0x0000000000020660                PPP_ShutdownModule
 .text          0x0000000000020670      0x830 /Users/jkwang/Desktop/nacl_sdk/pepper_canary/lib/clang-newlib_arm/Release/liberror_handling.a(error_handling_arm.o)
                0x0000000000020670                EHGetTopFrame
                0x00000000000206c0                EHUnwindFrame
                0x0000000000020740                EHDefaultJsonHandler
                0x0000000000020a40                EHRequestExceptionsRaw
                0x0000000000020c50                EHRequestExceptionStackOnThread
                0x0000000000020e20                EHRequestExceptionsJson
                0x0000000000020e80                EHHanderInstalled
 .text          0x0000000000020ea0      0x1c0 /Users/jkwang/Desktop/nacl_sdk/pepper_canary/lib/clang-newlib_arm/Release/liberror_handling.a(string_stream_arm.o)
                0x0000000000020ea0                ssinit
                0x0000000000020ec0                ssfree
                0x0000000000020f00                ssvprintf
                0x0000000000021000                ssprintf
 .text          0x0000000000021060        0x0 /Users/jkwang/Desktop/nacl_sdk/pepper_canary/toolchain/mac_pnacl/bin/../arm-nacl/lib/libppapi_stub.a(plugin_main_irt.o)
 .text.main     0x0000000000021060        0x4 /Users/jkwang/Desktop/nacl_sdk/pepper_canary/toolchain/mac_pnacl/bin/../arm-nacl/lib/libppapi_stub.a(plugin_main_irt.o)
                0x0000000000021060                main
 .text          0x0000000000021064        0x0 /Users/jkwang/Desktop/nacl_sdk/pepper_canary/toolchain/mac_pnacl/bin/../arm-nacl/lib/libppapi_stub.a(ppapi_plugin_main.o)
 *fill*         0x0000000000021064        0xc 
 .text.PpapiPluginMain
                0x0000000000021070       0x28 /Users/jkwang/Desktop/nacl_sdk/pepper_canary/toolchain/mac_pnacl/bin/../arm-nacl/lib/libppapi_stub.a(ppapi_plugin_main.o)
                0x0000000000021070                PpapiPluginMain
 .text          0x0000000000021098        0x0 /Users/jkwang/Desktop/nacl_sdk/pepper_canary/toolchain/mac_pnacl/bin/../arm-nacl/lib/libppapi_stub.a(ppapi_plugin_start.o)
 *fill*         0x0000000000021098        0x8 
 .text.PpapiPluginStart
                0x00000000000210a0      0x128 /Users/jkwang/Desktop/nacl_sdk/pepper_canary/toolchain/mac_pnacl/bin/../arm-nacl/lib/libppapi_stub.a(ppapi_plugin_start.o)
                0x00000000000210a0                PpapiPluginStart
 *fill*         0x00000000000211c8        0x8 
 .text.fatal_error
                0x00000000000211d0       0x2c /Users/jkwang/Desktop/nacl_sdk/pepper_canary/toolchain/mac_pnacl/bin/../arm-nacl/lib/libppapi_stub.a(ppapi_plugin_start.o)
 .text          0x00000000000211fc        0x0 /Users/jkwang/Desktop/nacl_sdk/pepper_canary/toolchain/mac_pnacl/bin/../arm-nacl/lib/libppapi_stub.a(thread_creator.o)
 *fill*         0x00000000000211fc        0x4 
 .text.__nacl_register_thread_creator
                0x0000000000021200       0x38 /Users/jkwang/Desktop/nacl_sdk/pepper_canary/toolchain/mac_pnacl/bin/../arm-nacl/lib/libppapi_stub.a(thread_creator.o)
                0x0000000000021200                __nacl_register_thread_creator
 *fill*         0x0000000000021238        0x8 
 .text.thread_create
                0x0000000000021240       0x10 /Users/jkwang/Desktop/nacl_sdk/pepper_canary/toolchain/mac_pnacl/bin/../arm-nacl/lib/libppapi_stub.a(thread_creator.o)
 .text.thread_join
                0x0000000000021250        0x8 /Users/jkwang/Desktop/nacl_sdk/pepper_canary/toolchain/mac_pnacl/bin/../arm-nacl/lib/libppapi_stub.a(thread_creator.o)
 *fill*         0x0000000000021258        0x8 
 .text          0x0000000000021260     0x1738 /Users/jkwang/Desktop/nacl_sdk/pepper_canary/toolchain/mac_pnacl/bin/../arm-nacl/lib/libpthread.a(nc_thread.o)
                0x0000000000021260                __nc_initialize_globals
                0x00000000000212e0                __nc_initialize_unjoinable_thread
                0x0000000000021390                __pthread_initialize
                0x00000000000214d0                pthread_create
                0x0000000000021a50                pthread_cleanup_push
                0x0000000000021ad0                pthread_cleanup_pop
                0x0000000000021b80                pthread_exit
                0x0000000000021fe0                __nc_tsd_exit
                0x0000000000022100                pthread_join
                0x0000000000022240                pthread_self
                0x0000000000022270                pthread_detach
                0x0000000000022320                pthread_kill
                0x0000000000022330                pthread_equal
                0x0000000000022350                pthread_setschedprio
                0x00000000000223a0                pthread_attr_init
                0x00000000000223d0                pthread_attr_destroy
                0x00000000000223f0                pthread_attr_setdetachstate
                0x0000000000022420                pthread_attr_getdetachstate
                0x0000000000022440                pthread_attr_setscope
                0x0000000000022460                pthread_attr_getscope
                0x0000000000022480                pthread_attr_setstacksize
                0x00000000000224b0                pthread_attr_getstacksize
                0x00000000000224e0                __local_lock_init
                0x0000000000022550                __local_lock_init_recursive
                0x00000000000225c0                __local_lock_close
                0x00000000000225d0                __local_lock_close_recursive
                0x00000000000225e0                __local_lock_acquire
                0x0000000000022610                __local_lock_acquire_recursive
                0x0000000000022640                __local_lock_try_acquire
                0x0000000000022680                __local_lock_try_acquire_recursive
                0x00000000000226c0                __local_lock_release
                0x00000000000226f0                __local_lock_release_recursive
                0x0000000000022720                pthread_key_create
                0x00000000000227c0                pthread_key_delete
                0x0000000000022850                pthread_setspecific
                0x0000000000022920                pthread_getspecific
 *fill*         0x0000000000022998        0x8 
 .text          0x00000000000229a0      0x9e8 /Users/jkwang/Desktop/nacl_sdk/pepper_canary/toolchain/mac_pnacl/bin/../arm-nacl/lib/libpthread.a(nc_mutex.o)
                0x00000000000229a0                pthread_mutex_init
                0x00000000000229e0                pthread_mutex_destroy
                0x0000000000022a30                pthread_mutex_trylock
                0x0000000000022b40                pthread_mutex_lock
                0x0000000000022d80                pthread_mutex_timedlock
                0x0000000000023030                pthread_mutex_unlock
                0x0000000000023160                pthread_once
                0x00000000000232d0                pthread_mutexattr_init
                0x00000000000232f0                pthread_mutexattr_destroy
                0x0000000000023300                pthread_mutexattr_settype
                0x0000000000023330                pthread_mutexattr_gettype
                0x0000000000023350                pthread_mutexattr_setpshared
                0x0000000000023370                pthread_mutexattr_getpshared
 *fill*         0x0000000000023388        0x8 
 .text          0x0000000000023390      0x2ec /Users/jkwang/Desktop/nacl_sdk/pepper_canary/toolchain/mac_pnacl/bin/../arm-nacl/lib/libpthread.a(nc_condvar.o)
                0x0000000000023390                pthread_cond_init
                0x00000000000233b0                pthread_cond_destroy
                0x00000000000233c0                pthread_cond_signal
                0x0000000000023440                pthread_cond_broadcast
                0x00000000000234c0                pthread_cond_wait
                0x0000000000023540                pthread_cond_timedwait_abs
                0x00000000000235e0                pthread_condattr_init
                0x00000000000235f0                pthread_condattr_destroy
                0x0000000000023600                pthread_condattr_getpshared
                0x0000000000023620                pthread_condattr_setpshared
                0x0000000000023640                pthread_condattr_getclock
                0x0000000000023660                pthread_condattr_setclock
 *fill*         0x000000000002367c        0x4 
 .text          0x0000000000023680      0x2c8 /Users/jkwang/Desktop/nacl_sdk/pepper_canary/toolchain/mac_pnacl/bin/../arm-nacl/lib/libpthread.a(valgrind_annotations.o)
                0x0000000000023680                NACL_AnnotateRWLockCreate
                0x0000000000023690                NACL_AnnotateRWLockDestroy
                0x00000000000236a0                NACL_AnnotateRWLockAcquired
                0x00000000000236b0                NACL_AnnotateRWLockReleased
                0x00000000000236c0                NACL_AnnotateBarrierInit
                0x00000000000236d0                NACL_AnnotateBarrierWaitBefore
                0x00000000000236e0                NACL_AnnotateBarrierWaitAfter
                0x00000000000236f0                NACL_AnnotateBarrierDestroy
                0x0000000000023700                NACL_AnnotateCondVarWait
                0x0000000000023710                NACL_AnnotateCondVarSignal
                0x0000000000023720                NACL_AnnotateCondVarSignalAll
                0x0000000000023730                NACL_AnnotateHappensBefore
                0x0000000000023740                NACL_AnnotateHappensAfter
                0x0000000000023750                NACL_AnnotatePublishMemoryRange
                0x0000000000023760                NACL_AnnotateUnpublishMemoryRange
                0x0000000000023770                NACL_AnnotatePCQCreate
                0x0000000000023780                NACL_AnnotatePCQDestroy
                0x0000000000023790                NACL_AnnotatePCQPut
                0x00000000000237a0                NACL_AnnotatePCQGet
                0x00000000000237b0                NACL_AnnotateNewMemory
                0x00000000000237c0                NACL_AnnotateExpectRace
                0x00000000000237d0                NACL_AnnotateFlushExpectedRaces
                0x00000000000237e0                NACL_AnnotateBenignRace
                0x00000000000237f0                NACL_AnnotateBenignRaceSized
                0x0000000000023800                NACL_AnnotateMutexIsUsedAsCondVar
                0x0000000000023810                NACL_AnnotateMutexIsNotPHB
                0x0000000000023820                NACL_AnnotateTraceMemory
                0x0000000000023830                NACL_AnnotateThreadName
                0x0000000000023840                NACL_AnnotateIgnoreReadsBegin
                0x0000000000023850                NACL_AnnotateIgnoreReadsEnd
                0x0000000000023860                NACL_AnnotateIgnoreWritesBegin
                0x0000000000023870                NACL_AnnotateIgnoreWritesEnd
                0x0000000000023880                NACL_AnnotateIgnoreSyncBegin
                0x0000000000023890                NACL_AnnotateIgnoreSyncEnd
                0x00000000000238a0                NACL_AnnotateEnableRaceDetection
                0x00000000000238b0                NACL_AnnotateNoOp
                0x00000000000238c0                NACL_AnnotateFlushState
                0x00000000000238d0                RunningOnValgrind
 *fill*         0x0000000000023948        0x8 
 .text          0x0000000000023950       0x54 /Users/jkwang/Desktop/nacl_sdk/pepper_canary/toolchain/mac_pnacl/bin/../arm-nacl/lib/libpthread.a(nc_init_irt.o)
                0x0000000000023950                __nc_initialize_interfaces
 *fill*         0x00000000000239a4        0xc 
 .text          0x00000000000239b0      0x270 /Users/jkwang/Desktop/nacl_sdk/pepper_canary/toolchain/mac_pnacl/bin/../arm-nacl/lib/libnacl.a(nacl_irt.o)
                0x0000000000023a30                __libnacl_irt_query
                0x0000000000023b30                __libnacl_mandatory_irt_query
                0x0000000000023bb0                __libnacl_irt_init_fn
 .text          0x0000000000023c20       0x34 /Users/jkwang/Desktop/nacl_sdk/pepper_canary/toolchain/mac_pnacl/bin/../arm-nacl/lib/libnacl.a(_exit.o)
                0x0000000000023c20                _exit
 *fill*         0x0000000000023c54        0xc 
 .text          0x0000000000023c60       0x88 /Users/jkwang/Desktop/nacl_sdk/pepper_canary/toolchain/mac_pnacl/bin/../arm-nacl/lib/libnacl.a(mmap.o)
                0x0000000000023c60                mmap
 *fill*         0x0000000000023ce8        0x8 
 .text          0x0000000000023cf0       0x78 /Users/jkwang/Desktop/nacl_sdk/pepper_canary/toolchain/mac_pnacl/bin/../arm-nacl/lib/libnacl.a(munmap.o)
                0x0000000000023cf0                munmap
 *fill*         0x0000000000023d68        0x8 
 .text          0x0000000000023d70       0x28 /Users/jkwang/Desktop/nacl_sdk/pepper_canary/toolchain/mac_pnacl/bin/../arm-nacl/lib/libnacl.a(nacl_interface_query.o)
                0x0000000000023d70                nacl_interface_query
 *fill*         0x0000000000023d98        0x8 
 .text          0x0000000000023da0       0x68 /Users/jkwang/Desktop/nacl_sdk/pepper_canary/toolchain/mac_pnacl/bin/../arm-nacl/lib/libnacl.a(write.o)
                0x0000000000023da0                write
 .text          0x0000000000023e08        0x0 /Users/jkwang/Desktop/nacl_sdk/pepper_canary/toolchain/mac_pnacl/bin/../arm-nacl/lib/libnacl.a(environ.o)
 *fill*         0x0000000000023e08        0x8 
 .text          0x0000000000023e10     0x6724 /Users/jkwang/Desktop/nacl_sdk/pepper_canary/toolchain/mac_pnacl/bin/../arm-nacl/lib/libnacl.a(malloc.o)
                0x0000000000023e10                malloc
                0x0000000000025fe0                free
                0x0000000000027510                calloc
                0x00000000000275b0                realloc
                0x0000000000027d50                realloc_in_place
                0x0000000000027ea0                memalign
                0x00000000000281c0                posix_memalign
                0x0000000000028270                valloc
                0x0000000000028410                pvalloc
                0x00000000000285c0                independent_calloc
                0x0000000000028b10                independent_comalloc
                0x0000000000028b20                bulk_free
                0x0000000000028d40                malloc_trim
                0x0000000000028fa0                malloc_footprint
                0x0000000000028fc0                malloc_max_footprint
                0x0000000000028fe0                malloc_footprint_limit
                0x0000000000029000                malloc_set_footprint_limit
                0x0000000000029050                mallinfo
                0x00000000000293f0                malloc_stats
                0x0000000000029790                mallopt
                0x0000000000029980                malloc_usable_size
                0x00000000000299d0                _malloc_r
                0x00000000000299e0                _calloc_r
                0x0000000000029a80                _realloc_r
                0x0000000000029a90                _free_r
 *fill*         0x000000000002a534        0xc 
 .text          0x000000000002a540       0xe8 /Users/jkwang/Desktop/nacl_sdk/pepper_canary/toolchain/mac_pnacl/bin/../arm-nacl/lib/libnacl.a(start.o)
                0x000000000002a540                _start
 *fill*         0x000000000002a628        0x8 
 .text          0x000000000002a630        0x4 /Users/jkwang/Desktop/nacl_sdk/pepper_canary/toolchain/mac_pnacl/bin/../arm-nacl/lib/libnacl.a(nacl_read_tp.o)
                0x000000000002a630                __nacl_read_tp
 *fill*         0x000000000002a634        0xc 
 .text          0x000000000002a640       0xa0 /Users/jkwang/Desktop/nacl_sdk/pepper_canary/toolchain/mac_pnacl/bin/../arm-nacl/lib/libnacl.a(pthread_initialize_minimal.o)
                0x000000000002a640                __pthread_initialize_minimal
 .text          0x000000000002a6e0      0x338 /Users/jkwang/Desktop/nacl_sdk/pepper_canary/toolchain/mac_pnacl/bin/../arm-nacl/lib/libnacl.a(tls.o)
                0x000000000002a6e0                __tls_get_addr
                0x000000000002a720                __nacl_tls_initialize_memory
                0x000000000002a9c0                __nacl_tls_combined_size
 *fill*         0x000000000002aa18        0x8 
 .text          0x000000000002aa20      0x16c /Users/jkwang/Desktop/nacl_sdk/pepper_canary/toolchain/mac_pnacl/bin/../arm-nacl/lib/libnacl.a(nacl_irt_init.o)
                0x000000000002aa20                __libnacl_irt_init
 *fill*         0x000000000002ab8c        0x4 
 .text          0x000000000002ab90       0x18 /Users/jkwang/Desktop/nacl_sdk/pepper_canary/toolchain/mac_pnacl/bin/../arm-nacl/lib/libnacl.a(nacl_tls_get.o)
                0x000000000002ab90                nacl_tls_get
 *fill*         0x000000000002aba8        0x8 
 .text          0x000000000002abb0       0x18 /Users/jkwang/Desktop/nacl_sdk/pepper_canary/toolchain/mac_pnacl/bin/../arm-nacl/lib/libnacl.a(nacl_tls_init.o)
                0x000000000002abb0                nacl_tls_init
 *fill*         0x000000000002abc8        0x8 
 .text          0x000000000002abd0       0x24 /Users/jkwang/Desktop/nacl_sdk/pepper_canary/toolchain/mac_pnacl/bin/../arm-nacl/lib/libnacl.a(abort.o)
                0x000000000002abd0                abort
 *fill*         0x000000000002abf4        0xc 
 .text          0x000000000002ac00       0x78 /Users/jkwang/Desktop/nacl_sdk/pepper_canary/toolchain/mac_pnacl/bin/../arm-nacl/lib/libnacl.a(sched_yield.o)
                0x000000000002ac00                sched_yield
 *fill*         0x000000000002ac78        0x8 
 .text          0x000000000002ac80       0x68 /Users/jkwang/Desktop/nacl_sdk/pepper_canary/toolchain/mac_pnacl/bin/../arm-nacl/lib/libnacl.a(sysconf.o)
                0x000000000002ac80                sysconf
 .text          0x000000000002ace8        0x0 /Users/jkwang/Desktop/nacl_sdk/pepper_canary/toolchain/mac_pnacl/bin/../arm-nacl/lib/libcrt_common.a(lib_a-atexit.o)
 *fill*         0x000000000002ace8        0x8 
 .text.atexit   0x000000000002acf0       0x20 /Users/jkwang/Desktop/nacl_sdk/pepper_canary/toolchain/mac_pnacl/bin/../arm-nacl/lib/libcrt_common.a(lib_a-atexit.o)
                0x000000000002acf0                atexit
 .text          0x000000000002ad10        0x0 /Users/jkwang/Desktop/nacl_sdk/pepper_canary/toolchain/mac_pnacl/bin/../arm-nacl/lib/libcrt_common.a(lib_a-errno.o)
 .text.__errno  0x000000000002ad10       0x50 /Users/jkwang/Desktop/nacl_sdk/pepper_canary/toolchain/mac_pnacl/bin/../arm-nacl/lib/libcrt_common.a(lib_a-errno.o)
                0x000000000002ad10                __errno
 .text          0x000000000002ad60        0x0 /Users/jkwang/Desktop/nacl_sdk/pepper_canary/toolchain/mac_pnacl/bin/../arm-nacl/lib/libcrt_common.a(lib_a-exit.o)
 .text          0x000000000002ad60        0x0 /Users/jkwang/Desktop/nacl_sdk/pepper_canary/toolchain/mac_pnacl/bin/../arm-nacl/lib/libcrt_common.a(lib_a-fflush.o)
 .text.__sflush_r
                0x000000000002ad60      0x300 /Users/jkwang/Desktop/nacl_sdk/pepper_canary/toolchain/mac_pnacl/bin/../arm-nacl/lib/libcrt_common.a(lib_a-fflush.o)
                0x000000000002ad60                __sflush_r
 .text._fflush_r
                0x000000000002b060       0xc0 /Users/jkwang/Desktop/nacl_sdk/pepper_canary/toolchain/mac_pnacl/bin/../arm-nacl/lib/libcrt_common.a(lib_a-fflush.o)
                0x000000000002b060                _fflush_r
 .text.fflush   0x000000000002b120      0x110 /Users/jkwang/Desktop/nacl_sdk/pepper_canary/toolchain/mac_pnacl/bin/../arm-nacl/lib/libcrt_common.a(lib_a-fflush.o)
                0x000000000002b120                fflush
 .text          0x000000000002b230        0x0 /Users/jkwang/Desktop/nacl_sdk/pepper_canary/toolchain/mac_pnacl/bin/../arm-nacl/lib/libcrt_common.a(lib_a-findfp.o)
 .text.__sfmoreglue
                0x000000000002b230       0x70 /Users/jkwang/Desktop/nacl_sdk/pepper_canary/toolchain/mac_pnacl/bin/../arm-nacl/lib/libcrt_common.a(lib_a-findfp.o)
                0x000000000002b230                __sfmoreglue
 .text.__sfp    0x000000000002b2a0      0x200 /Users/jkwang/Desktop/nacl_sdk/pepper_canary/toolchain/mac_pnacl/bin/../arm-nacl/lib/libcrt_common.a(lib_a-findfp.o)
                0x000000000002b2a0                __sfp
 .text.__sinit  0x000000000002b4a0      0x350 /Users/jkwang/Desktop/nacl_sdk/pepper_canary/toolchain/mac_pnacl/bin/../arm-nacl/lib/libcrt_common.a(lib_a-findfp.o)
                0x000000000002b4a0                __sinit
 .text.__sfp_lock_acquire
                0x000000000002b7f0       0x10 /Users/jkwang/Desktop/nacl_sdk/pepper_canary/toolchain/mac_pnacl/bin/../arm-nacl/lib/libcrt_common.a(lib_a-findfp.o)
                0x000000000002b7f0                __sfp_lock_acquire
 .text.__sfp_lock_release
                0x000000000002b800       0x10 /Users/jkwang/Desktop/nacl_sdk/pepper_canary/toolchain/mac_pnacl/bin/../arm-nacl/lib/libcrt_common.a(lib_a-findfp.o)
                0x000000000002b800                __sfp_lock_release
 .text._cleanup_r
                0x000000000002b810       0x10 /Users/jkwang/Desktop/nacl_sdk/pepper_canary/toolchain/mac_pnacl/bin/../arm-nacl/lib/libcrt_common.a(lib_a-findfp.o)
                0x000000000002b810                _cleanup_r
 .text._cleanup
                0x000000000002b820       0x20 /Users/jkwang/Desktop/nacl_sdk/pepper_canary/toolchain/mac_pnacl/bin/../arm-nacl/lib/libcrt_common.a(lib_a-findfp.o)
                0x000000000002b820                _cleanup
 .text.__sinit_lock_acquire
                0x000000000002b840       0x10 /Users/jkwang/Desktop/nacl_sdk/pepper_canary/toolchain/mac_pnacl/bin/../arm-nacl/lib/libcrt_common.a(lib_a-findfp.o)
                0x000000000002b840                __sinit_lock_acquire
 .text.__sinit_lock_release
                0x000000000002b850       0x10 /Users/jkwang/Desktop/nacl_sdk/pepper_canary/toolchain/mac_pnacl/bin/../arm-nacl/lib/libcrt_common.a(lib_a-findfp.o)
                0x000000000002b850                __sinit_lock_release
 .text.__fp_lock_all
                0x000000000002b860       0x70 /Users/jkwang/Desktop/nacl_sdk/pepper_canary/toolchain/mac_pnacl/bin/../arm-nacl/lib/libcrt_common.a(lib_a-findfp.o)
                0x000000000002b860                __fp_lock_all
 .text.__fp_lock
                0x000000000002b8d0       0x50 /Users/jkwang/Desktop/nacl_sdk/pepper_canary/toolchain/mac_pnacl/bin/../arm-nacl/lib/libcrt_common.a(lib_a-findfp.o)
 .text.__fp_unlock_all
                0x000000000002b920       0x70 /Users/jkwang/Desktop/nacl_sdk/pepper_canary/toolchain/mac_pnacl/bin/../arm-nacl/lib/libcrt_common.a(lib_a-findfp.o)
                0x000000000002b920                __fp_unlock_all
 .text.__fp_unlock
                0x000000000002b990       0x50 /Users/jkwang/Desktop/nacl_sdk/pepper_canary/toolchain/mac_pnacl/bin/../arm-nacl/lib/libcrt_common.a(lib_a-findfp.o)
 .text          0x000000000002b9e0        0x0 /Users/jkwang/Desktop/nacl_sdk/pepper_canary/toolchain/mac_pnacl/bin/../arm-nacl/lib/libcrt_common.a(lib_a-fini.o)
 .text.__libc_fini_array
                0x000000000002b9e0       0x60 /Users/jkwang/Desktop/nacl_sdk/pepper_canary/toolchain/mac_pnacl/bin/../arm-nacl/lib/libcrt_common.a(lib_a-fini.o)
                0x000000000002b9e0                __libc_fini_array
 .text          0x000000000002ba40        0x0 /Users/jkwang/Desktop/nacl_sdk/pepper_canary/toolchain/mac_pnacl/bin/../arm-nacl/lib/libcrt_common.a(lib_a-fprintf.o)
 .text._fprintf_r
                0x000000000002ba40       0x50 /Users/jkwang/Desktop/nacl_sdk/pepper_canary/toolchain/mac_pnacl/bin/../arm-nacl/lib/libcrt_common.a(lib_a-fprintf.o)
                0x000000000002ba40                _fprintf_r
 .text.fprintf  0x000000000002ba90       0x90 /Users/jkwang/Desktop/nacl_sdk/pepper_canary/toolchain/mac_pnacl/bin/../arm-nacl/lib/libcrt_common.a(lib_a-fprintf.o)
                0x000000000002ba90                fprintf
 .text          0x000000000002bb20        0x0 /Users/jkwang/Desktop/nacl_sdk/pepper_canary/toolchain/mac_pnacl/bin/../arm-nacl/lib/libcrt_common.a(lib_a-fwalk.o)
 .text._fwalk   0x000000000002bb20      0x110 /Users/jkwang/Desktop/nacl_sdk/pepper_canary/toolchain/mac_pnacl/bin/../arm-nacl/lib/libcrt_common.a(lib_a-fwalk.o)
                0x000000000002bb20                _fwalk
 .text._fwalk_reent
                0x000000000002bc30       0xe0 /Users/jkwang/Desktop/nacl_sdk/pepper_canary/toolchain/mac_pnacl/bin/../arm-nacl/lib/libcrt_common.a(lib_a-fwalk.o)
                0x000000000002bc30                _fwalk_reent
 .text          0x000000000002bd10        0x0 /Users/jkwang/Desktop/nacl_sdk/pepper_canary/toolchain/mac_pnacl/bin/../arm-nacl/lib/libcrt_common.a(lib_a-fwrite.o)
 .text._fwrite_r
                0x000000000002bd10      0x170 /Users/jkwang/Desktop/nacl_sdk/pepper_canary/toolchain/mac_pnacl/bin/../arm-nacl/lib/libcrt_common.a(lib_a-fwrite.o)
                0x000000000002bd10                _fwrite_r
 .text.fwrite   0x000000000002be80       0x80 /Users/jkwang/Desktop/nacl_sdk/pepper_canary/toolchain/mac_pnacl/bin/../arm-nacl/lib/libcrt_common.a(lib_a-fwrite.o)
                0x000000000002be80                fwrite
 .text          0x000000000002bf00        0x0 /Users/jkwang/Desktop/nacl_sdk/pepper_canary/toolchain/mac_pnacl/bin/../arm-nacl/lib/libcrt_common.a(lib_a-getenv.o)
 .text._findenv
                0x000000000002bf00       0x50 /Users/jkwang/Desktop/nacl_sdk/pepper_canary/toolchain/mac_pnacl/bin/../arm-nacl/lib/libcrt_common.a(lib_a-getenv.o)
                0x000000000002bf00                _findenv
 .text.getenv   0x000000000002bf50       0x70 /Users/jkwang/Desktop/nacl_sdk/pepper_canary/toolchain/mac_pnacl/bin/../arm-nacl/lib/libcrt_common.a(lib_a-getenv.o)
                0x000000000002bf50                getenv
 .text          0x000000000002bfc0        0x0 /Users/jkwang/Desktop/nacl_sdk/pepper_canary/toolchain/mac_pnacl/bin/../arm-nacl/lib/libcrt_common.a(lib_a-getenv_r.o)
 .text._findenv_r
                0x000000000002bfc0      0x110 /Users/jkwang/Desktop/nacl_sdk/pepper_canary/toolchain/mac_pnacl/bin/../arm-nacl/lib/libcrt_common.a(lib_a-getenv_r.o)
                0x000000000002bfc0                _findenv_r
 .text._getenv_r
                0x000000000002c0d0       0x40 /Users/jkwang/Desktop/nacl_sdk/pepper_canary/toolchain/mac_pnacl/bin/../arm-nacl/lib/libcrt_common.a(lib_a-getenv_r.o)
                0x000000000002c0d0                _getenv_r
 .text          0x000000000002c110        0x0 /Users/jkwang/Desktop/nacl_sdk/pepper_canary/toolchain/mac_pnacl/bin/../arm-nacl/lib/libcrt_common.a(lib_a-impure.o)
 .text.__newlib_thread_init
                0x000000000002c110       0x50 /Users/jkwang/Desktop/nacl_sdk/pepper_canary/toolchain/mac_pnacl/bin/../arm-nacl/lib/libcrt_common.a(lib_a-impure.o)
                0x000000000002c110                __newlib_thread_init
 .text.__newlib_thread_exit
                0x000000000002c160       0x10 /Users/jkwang/Desktop/nacl_sdk/pepper_canary/toolchain/mac_pnacl/bin/../arm-nacl/lib/libcrt_common.a(lib_a-impure.o)
                0x000000000002c160                __newlib_thread_exit
 .text          0x000000000002c170        0x0 /Users/jkwang/Desktop/nacl_sdk/pepper_canary/toolchain/mac_pnacl/bin/../arm-nacl/lib/libcrt_common.a(lib_a-init.o)
 .text.__libc_init_array
                0x000000000002c170       0xd0 /Users/jkwang/Desktop/nacl_sdk/pepper_canary/toolchain/mac_pnacl/bin/../arm-nacl/lib/libcrt_common.a(lib_a-init.o)
                0x000000000002c170                __libc_init_array
 .text          0x000000000002c240        0x0 /Users/jkwang/Desktop/nacl_sdk/pepper_canary/toolchain/mac_pnacl/bin/../arm-nacl/lib/libcrt_common.a(lib_a-memset.o)
 .text.memset   0x000000000002c240      0x1c0 /Users/jkwang/Desktop/nacl_sdk/pepper_canary/toolchain/mac_pnacl/bin/../arm-nacl/lib/libcrt_common.a(lib_a-memset.o)
                0x000000000002c240                memset
 .text          0x000000000002c400        0x0 /Users/jkwang/Desktop/nacl_sdk/pepper_canary/toolchain/mac_pnacl/bin/../arm-nacl/lib/libcrt_common.a(lib_a-sleep.o)
 .text.sleep    0x000000000002c400       0x70 /Users/jkwang/Desktop/nacl_sdk/pepper_canary/toolchain/mac_pnacl/bin/../arm-nacl/lib/libcrt_common.a(lib_a-sleep.o)
                0x000000000002c400                sleep
 .text          0x000000000002c470        0x0 /Users/jkwang/Desktop/nacl_sdk/pepper_canary/toolchain/mac_pnacl/bin/../arm-nacl/lib/libcrt_common.a(lib_a-stdio.o)
 .text.__sread  0x000000000002c470       0x80 /Users/jkwang/Desktop/nacl_sdk/pepper_canary/toolchain/mac_pnacl/bin/../arm-nacl/lib/libcrt_common.a(lib_a-stdio.o)
                0x000000000002c470                __sread
 .text.__seofread
                0x000000000002c4f0       0x10 /Users/jkwang/Desktop/nacl_sdk/pepper_canary/toolchain/mac_pnacl/bin/../arm-nacl/lib/libcrt_common.a(lib_a-stdio.o)
                0x000000000002c4f0                __seofread
 .text.__swrite
                0x000000000002c500       0x90 /Users/jkwang/Desktop/nacl_sdk/pepper_canary/toolchain/mac_pnacl/bin/../arm-nacl/lib/libcrt_common.a(lib_a-stdio.o)
                0x000000000002c500                __swrite
 .text.__sseek  0x000000000002c590       0x90 /Users/jkwang/Desktop/nacl_sdk/pepper_canary/toolchain/mac_pnacl/bin/../arm-nacl/lib/libcrt_common.a(lib_a-stdio.o)
                0x000000000002c590                __sseek
 .text.__sclose
                0x000000000002c620       0x10 /Users/jkwang/Desktop/nacl_sdk/pepper_canary/toolchain/mac_pnacl/bin/../arm-nacl/lib/libcrt_common.a(lib_a-stdio.o)
                0x000000000002c620                __sclose
 .text          0x000000000002c630        0x0 /Users/jkwang/Desktop/nacl_sdk/pepper_canary/toolchain/mac_pnacl/bin/../arm-nacl/lib/libcrt_common.a(lib_a-strcat.o)
 .text.strcat   0x000000000002c630       0x90 /Users/jkwang/Desktop/nacl_sdk/pepper_canary/toolchain/mac_pnacl/bin/../arm-nacl/lib/libcrt_common.a(lib_a-strcat.o)
                0x000000000002c630                strcat
 .text          0x000000000002c6c0      0x460 /Users/jkwang/Desktop/nacl_sdk/pepper_canary/toolchain/mac_pnacl/bin/../arm-nacl/lib/libcrt_common.a(lib_a-strcmp.o)
                0x000000000002c6d0                strcmp
 .text          0x000000000002cb20        0x0 /Users/jkwang/Desktop/nacl_sdk/pepper_canary/toolchain/mac_pnacl/bin/../arm-nacl/lib/libcrt_common.a(lib_a-strcpy.o)
 .text.strcpy   0x000000000002cb20      0x160 /Users/jkwang/Desktop/nacl_sdk/pepper_canary/toolchain/mac_pnacl/bin/../arm-nacl/lib/libcrt_common.a(lib_a-strcpy.o)
                0x000000000002cb20                strcpy
 .text          0x000000000002cc80      0x140 /Users/jkwang/Desktop/nacl_sdk/pepper_canary/toolchain/mac_pnacl/bin/../arm-nacl/lib/libcrt_common.a(lib_a-strlen-armv7.o)
                0x000000000002cc80                strlen
 .text          0x000000000002cdc0        0x0 /Users/jkwang/Desktop/nacl_sdk/pepper_canary/toolchain/mac_pnacl/bin/../arm-nacl/lib/libcrt_common.a(lib_a-strncmp.o)
 .text.strncmp  0x000000000002cdc0      0x100 /Users/jkwang/Desktop/nacl_sdk/pepper_canary/toolchain/mac_pnacl/bin/../arm-nacl/lib/libcrt_common.a(lib_a-strncmp.o)
                0x000000000002cdc0                strncmp
 .text          0x000000000002cec0        0x0 /Users/jkwang/Desktop/nacl_sdk/pepper_canary/toolchain/mac_pnacl/bin/../arm-nacl/lib/libcrt_common.a(lib_a-vfprintf.o)
 .text.vfprintf
                0x000000000002cec0       0x60 /Users/jkwang/Desktop/nacl_sdk/pepper_canary/toolchain/mac_pnacl/bin/../arm-nacl/lib/libcrt_common.a(lib_a-vfprintf.o)
                0x000000000002cec0                vfprintf
 .text._vfprintf_r
                0x000000000002cf20     0x35a0 /Users/jkwang/Desktop/nacl_sdk/pepper_canary/toolchain/mac_pnacl/bin/../arm-nacl/lib/libcrt_common.a(lib_a-vfprintf.o)
                0x000000000002cf20                _vfprintf_r
 .text.__sbprintf
                0x00000000000304c0      0x160 /Users/jkwang/Desktop/nacl_sdk/pepper_canary/toolchain/mac_pnacl/bin/../arm-nacl/lib/libcrt_common.a(lib_a-vfprintf.o)
 .text          0x0000000000030620        0x0 /Users/jkwang/Desktop/nacl_sdk/pepper_canary/toolchain/mac_pnacl/bin/../arm-nacl/lib/libcrt_common.a(lib_a-vsnprintf.o)
 .text.vsnprintf
                0x0000000000030620       0xf0 /Users/jkwang/Desktop/nacl_sdk/pepper_canary/toolchain/mac_pnacl/bin/../arm-nacl/lib/libcrt_common.a(lib_a-vsnprintf.o)
                0x0000000000030620                vsnprintf
 .text._vsnprintf_r
                0x0000000000030710       0xd0 /Users/jkwang/Desktop/nacl_sdk/pepper_canary/toolchain/mac_pnacl/bin/../arm-nacl/lib/libcrt_common.a(lib_a-vsnprintf.o)
                0x0000000000030710                _vsnprintf_r
 .text          0x00000000000307e0        0x0 /Users/jkwang/Desktop/nacl_sdk/pepper_canary/toolchain/mac_pnacl/bin/../arm-nacl/lib/libcrt_common.a(lib_a-vsprintf.o)
 .text.vsprintf
                0x00000000000307e0       0xb0 /Users/jkwang/Desktop/nacl_sdk/pepper_canary/toolchain/mac_pnacl/bin/../arm-nacl/lib/libcrt_common.a(lib_a-vsprintf.o)
                0x00000000000307e0                vsprintf
 .text._vsprintf_r
                0x0000000000030890       0x70 /Users/jkwang/Desktop/nacl_sdk/pepper_canary/toolchain/mac_pnacl/bin/../arm-nacl/lib/libcrt_common.a(lib_a-vsprintf.o)
                0x0000000000030890                _vsprintf_r
 .text          0x0000000000030900        0x0 /Users/jkwang/Desktop/nacl_sdk/pepper_canary/toolchain/mac_pnacl/bin/../arm-nacl/lib/libcrt_common.a(lib_a-wcrtomb.o)
 .text._wcrtomb_r
                0x0000000000030900       0xe0 /Users/jkwang/Desktop/nacl_sdk/pepper_canary/toolchain/mac_pnacl/bin/../arm-nacl/lib/libcrt_common.a(lib_a-wcrtomb.o)
                0x0000000000030900                _wcrtomb_r
 .text.wcrtomb  0x00000000000309e0      0x100 /Users/jkwang/Desktop/nacl_sdk/pepper_canary/toolchain/mac_pnacl/bin/../arm-nacl/lib/libcrt_common.a(lib_a-wcrtomb.o)
                0x00000000000309e0                wcrtomb
 .text          0x0000000000030ae0        0x0 /Users/jkwang/Desktop/nacl_sdk/pepper_canary/toolchain/mac_pnacl/bin/../arm-nacl/lib/libcrt_common.a(lib_a-wcsrtombs.o)
 .text._wcsrtombs_r
                0x0000000000030ae0       0x50 /Users/jkwang/Desktop/nacl_sdk/pepper_canary/toolchain/mac_pnacl/bin/../arm-nacl/lib/libcrt_common.a(lib_a-wcsrtombs.o)
                0x0000000000030ae0                _wcsrtombs_r
 .text.wcsrtombs
                0x0000000000030b30       0x80 /Users/jkwang/Desktop/nacl_sdk/pepper_canary/toolchain/mac_pnacl/bin/../arm-nacl/lib/libcrt_common.a(lib_a-wcsrtombs.o)
                0x0000000000030b30                wcsrtombs
 .text          0x0000000000030bb0        0x0 /Users/jkwang/Desktop/nacl_sdk/pepper_canary/toolchain/mac_pnacl/bin/../arm-nacl/lib/libcrt_common.a(lib_a-wctomb_r.o)
 .text.__ascii_wctomb
                0x0000000000030bb0       0x60 /Users/jkwang/Desktop/nacl_sdk/pepper_canary/toolchain/mac_pnacl/bin/../arm-nacl/lib/libcrt_common.a(lib_a-wctomb_r.o)
                0x0000000000030bb0                __ascii_wctomb
 .text._wctomb_r
                0x0000000000030c10       0x80 /Users/jkwang/Desktop/nacl_sdk/pepper_canary/toolchain/mac_pnacl/bin/../arm-nacl/lib/libcrt_common.a(lib_a-wctomb_r.o)
                0x0000000000030c10                _wctomb_r
 .text.__utf8_wctomb
                0x0000000000030c90      0x150 /Users/jkwang/Desktop/nacl_sdk/pepper_canary/toolchain/mac_pnacl/bin/../arm-nacl/lib/libcrt_common.a(lib_a-wctomb_r.o)
                0x0000000000030c90                __utf8_wctomb
 .text.__sjis_wctomb
                0x0000000000030de0       0xa0 /Users/jkwang/Desktop/nacl_sdk/pepper_canary/toolchain/mac_pnacl/bin/../arm-nacl/lib/libcrt_common.a(lib_a-wctomb_r.o)
                0x0000000000030de0                __sjis_wctomb
 .text.__eucjp_wctomb
                0x0000000000030e80       0xf0 /Users/jkwang/Desktop/nacl_sdk/pepper_canary/toolchain/mac_pnacl/bin/../arm-nacl/lib/libcrt_common.a(lib_a-wctomb_r.o)
                0x0000000000030e80                __eucjp_wctomb
 .text.__jis_wctomb
                0x0000000000030f70      0x130 /Users/jkwang/Desktop/nacl_sdk/pepper_canary/toolchain/mac_pnacl/bin/../arm-nacl/lib/libcrt_common.a(lib_a-wctomb_r.o)
                0x0000000000030f70                __jis_wctomb
 .text          0x00000000000310a0        0x0 /Users/jkwang/Desktop/nacl_sdk/pepper_canary/toolchain/mac_pnacl/bin/../arm-nacl/lib/libcrt_common.a(lib_a-wsetup.o)
 .text.__swsetup_r
                0x00000000000310a0      0x1e0 /Users/jkwang/Desktop/nacl_sdk/pepper_canary/toolchain/mac_pnacl/bin/../arm-nacl/lib/libcrt_common.a(lib_a-wsetup.o)
                0x00000000000310a0                __swsetup_r
 .text          0x0000000000031280        0x0 /Users/jkwang/Desktop/nacl_sdk/pepper_canary/toolchain/mac_pnacl/bin/../arm-nacl/lib/libcrt_common.a(lib_a-__atexit.o)
 .text.__register_exitproc
                0x0000000000031280      0x1b0 /Users/jkwang/Desktop/nacl_sdk/pepper_canary/toolchain/mac_pnacl/bin/../arm-nacl/lib/libcrt_common.a(lib_a-__atexit.o)
                0x0000000000031280                __register_exitproc
 .text          0x0000000000031430        0x0 /Users/jkwang/Desktop/nacl_sdk/pepper_canary/toolchain/mac_pnacl/bin/../arm-nacl/lib/libcrt_common.a(lib_a-__call_atexit.o)
 .text.__call_exitprocs
                0x0000000000031430      0x220 /Users/jkwang/Desktop/nacl_sdk/pepper_canary/toolchain/mac_pnacl/bin/../arm-nacl/lib/libcrt_common.a(lib_a-__call_atexit.o)
                0x0000000000031430                __call_exitprocs
 .text          0x0000000000031650        0x0 /Users/jkwang/Desktop/nacl_sdk/pepper_canary/toolchain/mac_pnacl/bin/../arm-nacl/lib/libcrt_common.a(lib_a-dtoa.o)
 .text._dtoa_r  0x0000000000031650     0x15e0 /Users/jkwang/Desktop/nacl_sdk/pepper_canary/toolchain/mac_pnacl/bin/../arm-nacl/lib/libcrt_common.a(lib_a-dtoa.o)
                0x0000000000031650                _dtoa_r
 .text.quorem   0x0000000000032c30      0x2a0 /Users/jkwang/Desktop/nacl_sdk/pepper_canary/toolchain/mac_pnacl/bin/../arm-nacl/lib/libcrt_common.a(lib_a-dtoa.o)
 .text          0x0000000000032ed0        0x0 /Users/jkwang/Desktop/nacl_sdk/pepper_canary/toolchain/mac_pnacl/bin/../arm-nacl/lib/libcrt_common.a(lib_a-envlock.o)
 .text.__env_lock
                0x0000000000032ed0       0x10 /Users/jkwang/Desktop/nacl_sdk/pepper_canary/toolchain/mac_pnacl/bin/../arm-nacl/lib/libcrt_common.a(lib_a-envlock.o)
                0x0000000000032ed0                __env_lock
 .text.__env_unlock
                0x0000000000032ee0       0x10 /Users/jkwang/Desktop/nacl_sdk/pepper_canary/toolchain/mac_pnacl/bin/../arm-nacl/lib/libcrt_common.a(lib_a-envlock.o)
                0x0000000000032ee0                __env_unlock
 .text          0x0000000000032ef0        0x0 /Users/jkwang/Desktop/nacl_sdk/pepper_canary/toolchain/mac_pnacl/bin/../arm-nacl/lib/libcrt_common.a(lib_a-fclose.o)
 .text._fclose_r
                0x0000000000032ef0      0x1d0 /Users/jkwang/Desktop/nacl_sdk/pepper_canary/toolchain/mac_pnacl/bin/../arm-nacl/lib/libcrt_common.a(lib_a-fclose.o)
                0x0000000000032ef0                _fclose_r
 .text.fclose   0x00000000000330c0       0x40 /Users/jkwang/Desktop/nacl_sdk/pepper_canary/toolchain/mac_pnacl/bin/../arm-nacl/lib/libcrt_common.a(lib_a-fclose.o)
                0x00000000000330c0                fclose
 .text          0x0000000000033100        0x0 /Users/jkwang/Desktop/nacl_sdk/pepper_canary/toolchain/mac_pnacl/bin/../arm-nacl/lib/libcrt_common.a(lib_a-fvwrite.o)
 .text.__sfvwrite_r
                0x0000000000033100      0x640 /Users/jkwang/Desktop/nacl_sdk/pepper_canary/toolchain/mac_pnacl/bin/../arm-nacl/lib/libcrt_common.a(lib_a-fvwrite.o)
                0x0000000000033100                __sfvwrite_r
 .text          0x0000000000033740        0x0 /Users/jkwang/Desktop/nacl_sdk/pepper_canary/toolchain/mac_pnacl/bin/../arm-nacl/lib/libcrt_common.a(lib_a-locale.o)
 .text._setlocale_r
                0x0000000000033740      0x700 /Users/jkwang/Desktop/nacl_sdk/pepper_canary/toolchain/mac_pnacl/bin/../arm-nacl/lib/libcrt_common.a(lib_a-locale.o)
                0x0000000000033740                _setlocale_r
 .text.currentlocale
                0x0000000000033e40      0x1a0 /Users/jkwang/Desktop/nacl_sdk/pepper_canary/toolchain/mac_pnacl/bin/../arm-nacl/lib/libcrt_common.a(lib_a-locale.o)
 .text.loadlocale
                0x0000000000033fe0      0xa00 /Users/jkwang/Desktop/nacl_sdk/pepper_canary/toolchain/mac_pnacl/bin/../arm-nacl/lib/libcrt_common.a(lib_a-locale.o)
 .text.__locale_charset
                0x00000000000349e0       0x10 /Users/jkwang/Desktop/nacl_sdk/pepper_canary/toolchain/mac_pnacl/bin/../arm-nacl/lib/libcrt_common.a(lib_a-locale.o)
                0x00000000000349e0                __locale_charset
 .text.__locale_mb_cur_max
                0x00000000000349f0       0x20 /Users/jkwang/Desktop/nacl_sdk/pepper_canary/toolchain/mac_pnacl/bin/../arm-nacl/lib/libcrt_common.a(lib_a-locale.o)
                0x00000000000349f0                __locale_mb_cur_max
 .text.__locale_msgcharset
                0x0000000000034a10       0x10 /Users/jkwang/Desktop/nacl_sdk/pepper_canary/toolchain/mac_pnacl/bin/../arm-nacl/lib/libcrt_common.a(lib_a-locale.o)
                0x0000000000034a10                __locale_msgcharset
 .text.__locale_cjk_lang
                0x0000000000034a20       0x20 /Users/jkwang/Desktop/nacl_sdk/pepper_canary/toolchain/mac_pnacl/bin/../arm-nacl/lib/libcrt_common.a(lib_a-locale.o)
                0x0000000000034a20                __locale_cjk_lang
 .text._localeconv_r
                0x0000000000034a40       0x10 /Users/jkwang/Desktop/nacl_sdk/pepper_canary/toolchain/mac_pnacl/bin/../arm-nacl/lib/libcrt_common.a(lib_a-locale.o)
                0x0000000000034a40                _localeconv_r
 .text.setlocale
                0x0000000000034a50       0x50 /Users/jkwang/Desktop/nacl_sdk/pepper_canary/toolchain/mac_pnacl/bin/../arm-nacl/lib/libcrt_common.a(lib_a-locale.o)
                0x0000000000034a50                setlocale
 .text.localeconv
                0x0000000000034aa0       0x10 /Users/jkwang/Desktop/nacl_sdk/pepper_canary/toolchain/mac_pnacl/bin/../arm-nacl/lib/libcrt_common.a(lib_a-locale.o)
                0x0000000000034aa0                localeconv
 .text          0x0000000000034ab0        0x0 /Users/jkwang/Desktop/nacl_sdk/pepper_canary/toolchain/mac_pnacl/bin/../arm-nacl/lib/libcrt_common.a(lib_a-makebuf.o)
 .text.__smakebuf_r
                0x0000000000034ab0      0x1d0 /Users/jkwang/Desktop/nacl_sdk/pepper_canary/toolchain/mac_pnacl/bin/../arm-nacl/lib/libcrt_common.a(lib_a-makebuf.o)
                0x0000000000034ab0                __smakebuf_r
 .text          0x0000000000034c80        0x0 /Users/jkwang/Desktop/nacl_sdk/pepper_canary/toolchain/mac_pnacl/bin/../arm-nacl/lib/libcrt_common.a(lib_a-mbtowc_r.o)
 .text.__ascii_mbtowc
                0x0000000000034c80       0x60 /Users/jkwang/Desktop/nacl_sdk/pepper_canary/toolchain/mac_pnacl/bin/../arm-nacl/lib/libcrt_common.a(lib_a-mbtowc_r.o)
                0x0000000000034c80                __ascii_mbtowc
 .text._mbtowc_r
                0x0000000000034ce0       0x80 /Users/jkwang/Desktop/nacl_sdk/pepper_canary/toolchain/mac_pnacl/bin/../arm-nacl/lib/libcrt_common.a(lib_a-mbtowc_r.o)
                0x0000000000034ce0                _mbtowc_r
 .text.__utf8_mbtowc
                0x0000000000034d60      0x440 /Users/jkwang/Desktop/nacl_sdk/pepper_canary/toolchain/mac_pnacl/bin/../arm-nacl/lib/libcrt_common.a(lib_a-mbtowc_r.o)
                0x0000000000034d60                __utf8_mbtowc
 .text.__sjis_mbtowc
                0x00000000000351a0      0x130 /Users/jkwang/Desktop/nacl_sdk/pepper_canary/toolchain/mac_pnacl/bin/../arm-nacl/lib/libcrt_common.a(lib_a-mbtowc_r.o)
                0x00000000000351a0                __sjis_mbtowc
 .text.__eucjp_mbtowc
                0x00000000000352d0      0x1b0 /Users/jkwang/Desktop/nacl_sdk/pepper_canary/toolchain/mac_pnacl/bin/../arm-nacl/lib/libcrt_common.a(lib_a-mbtowc_r.o)
                0x00000000000352d0                __eucjp_mbtowc
 .text.__jis_mbtowc
                0x0000000000035480      0x250 /Users/jkwang/Desktop/nacl_sdk/pepper_canary/toolchain/mac_pnacl/bin/../arm-nacl/lib/libcrt_common.a(lib_a-mbtowc_r.o)
                0x0000000000035480                __jis_mbtowc
 .text          0x00000000000356d0      0x110 /Users/jkwang/Desktop/nacl_sdk/pepper_canary/toolchain/mac_pnacl/bin/../arm-nacl/lib/libcrt_common.a(lib_a-memchr.o)
                0x00000000000356d0                memchr
 *fill*         0x00000000000357e0       0x20 
 .text          0x0000000000035800      0x940 /Users/jkwang/Desktop/nacl_sdk/pepper_canary/toolchain/mac_pnacl/bin/../arm-nacl/lib/libcrt_common.a(lib_a-memcpy.o)
                0x0000000000035800                memcpy
 .text          0x0000000000036140        0x0 /Users/jkwang/Desktop/nacl_sdk/pepper_canary/toolchain/mac_pnacl/bin/../arm-nacl/lib/libcrt_common.a(lib_a-memmove.o)
 .text.memmove  0x0000000000036140      0x370 /Users/jkwang/Desktop/nacl_sdk/pepper_canary/toolchain/mac_pnacl/bin/../arm-nacl/lib/libcrt_common.a(lib_a-memmove.o)
                0x0000000000036140                memmove
 .text          0x00000000000364b0        0x0 /Users/jkwang/Desktop/nacl_sdk/pepper_canary/toolchain/mac_pnacl/bin/../arm-nacl/lib/libcrt_common.a(lib_a-mprec.o)
 .text._Balloc  0x00000000000364b0       0xe0 /Users/jkwang/Desktop/nacl_sdk/pepper_canary/toolchain/mac_pnacl/bin/../arm-nacl/lib/libcrt_common.a(lib_a-mprec.o)
                0x00000000000364b0                _Balloc
 .text._Bfree   0x0000000000036590       0x50 /Users/jkwang/Desktop/nacl_sdk/pepper_canary/toolchain/mac_pnacl/bin/../arm-nacl/lib/libcrt_common.a(lib_a-mprec.o)
                0x0000000000036590                _Bfree
 .text.__multadd
                0x00000000000365e0      0x200 /Users/jkwang/Desktop/nacl_sdk/pepper_canary/toolchain/mac_pnacl/bin/../arm-nacl/lib/libcrt_common.a(lib_a-mprec.o)
                0x00000000000365e0                __multadd
 .text.__s2b    0x00000000000367e0      0x1c0 /Users/jkwang/Desktop/nacl_sdk/pepper_canary/toolchain/mac_pnacl/bin/../arm-nacl/lib/libcrt_common.a(lib_a-mprec.o)
                0x00000000000367e0                __s2b
 .text.__hi0bits
                0x00000000000369a0       0x70 /Users/jkwang/Desktop/nacl_sdk/pepper_canary/toolchain/mac_pnacl/bin/../arm-nacl/lib/libcrt_common.a(lib_a-mprec.o)
                0x00000000000369a0                __hi0bits
 .text.__lo0bits
                0x0000000000036a10       0xe0 /Users/jkwang/Desktop/nacl_sdk/pepper_canary/toolchain/mac_pnacl/bin/../arm-nacl/lib/libcrt_common.a(lib_a-mprec.o)
                0x0000000000036a10                __lo0bits
 .text.__i2b    0x0000000000036af0      0x100 /Users/jkwang/Desktop/nacl_sdk/pepper_canary/toolchain/mac_pnacl/bin/../arm-nacl/lib/libcrt_common.a(lib_a-mprec.o)
                0x0000000000036af0                __i2b
 .text.__multiply
                0x0000000000036bf0      0x3e0 /Users/jkwang/Desktop/nacl_sdk/pepper_canary/toolchain/mac_pnacl/bin/../arm-nacl/lib/libcrt_common.a(lib_a-mprec.o)
                0x0000000000036bf0                __multiply
 .text.__pow5mult
                0x0000000000036fd0      0x220 /Users/jkwang/Desktop/nacl_sdk/pepper_canary/toolchain/mac_pnacl/bin/../arm-nacl/lib/libcrt_common.a(lib_a-mprec.o)
                0x0000000000036fd0                __pow5mult
 .text.__lshift
                0x00000000000371f0      0x3a0 /Users/jkwang/Desktop/nacl_sdk/pepper_canary/toolchain/mac_pnacl/bin/../arm-nacl/lib/libcrt_common.a(lib_a-mprec.o)
                0x00000000000371f0                __lshift
 .text.__mcmp   0x0000000000037590       0x80 /Users/jkwang/Desktop/nacl_sdk/pepper_canary/toolchain/mac_pnacl/bin/../arm-nacl/lib/libcrt_common.a(lib_a-mprec.o)
                0x0000000000037590                __mcmp
 .text.__mdiff  0x0000000000037610      0x360 /Users/jkwang/Desktop/nacl_sdk/pepper_canary/toolchain/mac_pnacl/bin/../arm-nacl/lib/libcrt_common.a(lib_a-mprec.o)
                0x0000000000037610                __mdiff
 .text.__ulp    0x0000000000037970       0x90 /Users/jkwang/Desktop/nacl_sdk/pepper_canary/toolchain/mac_pnacl/bin/../arm-nacl/lib/libcrt_common.a(lib_a-mprec.o)
                0x0000000000037970                __ulp
 .text.__b2d    0x0000000000037a00      0x160 /Users/jkwang/Desktop/nacl_sdk/pepper_canary/toolchain/mac_pnacl/bin/../arm-nacl/lib/libcrt_common.a(lib_a-mprec.o)
                0x0000000000037a00                __b2d
 .text.__d2b    0x0000000000037b60      0x370 /Users/jkwang/Desktop/nacl_sdk/pepper_canary/toolchain/mac_pnacl/bin/../arm-nacl/lib/libcrt_common.a(lib_a-mprec.o)
                0x0000000000037b60                __d2b
 .text.__ratio  0x0000000000037ed0       0xa0 /Users/jkwang/Desktop/nacl_sdk/pepper_canary/toolchain/mac_pnacl/bin/../arm-nacl/lib/libcrt_common.a(lib_a-mprec.o)
                0x0000000000037ed0                __ratio
 .text._mprec_log10
                0x0000000000037f70       0x50 /Users/jkwang/Desktop/nacl_sdk/pepper_canary/toolchain/mac_pnacl/bin/../arm-nacl/lib/libcrt_common.a(lib_a-mprec.o)
                0x0000000000037f70                _mprec_log10
 .text.__copybits
                0x0000000000037fc0      0x170 /Users/jkwang/Desktop/nacl_sdk/pepper_canary/toolchain/mac_pnacl/bin/../arm-nacl/lib/libcrt_common.a(lib_a-mprec.o)
                0x0000000000037fc0                __copybits
 .text.__any_on
                0x0000000000038130       0xa0 /Users/jkwang/Desktop/nacl_sdk/pepper_canary/toolchain/mac_pnacl/bin/../arm-nacl/lib/libcrt_common.a(lib_a-mprec.o)
                0x0000000000038130                __any_on
 .text          0x00000000000381d0        0x0 /Users/jkwang/Desktop/nacl_sdk/pepper_canary/toolchain/mac_pnacl/bin/../arm-nacl/lib/libcrt_common.a(lib_a-s_fpclassify.o)
 .text.__fpclassifyd
                0x00000000000381d0       0xb0 /Users/jkwang/Desktop/nacl_sdk/pepper_canary/toolchain/mac_pnacl/bin/../arm-nacl/lib/libcrt_common.a(lib_a-s_fpclassify.o)
                0x00000000000381d0                __fpclassifyd
 .text          0x0000000000038280        0x0 /Users/jkwang/Desktop/nacl_sdk/pepper_canary/toolchain/mac_pnacl/bin/../arm-nacl/lib/libcrt_common.a(lib_a-s_frexp.o)
 .text.frexp    0x0000000000038280       0xa0 /Users/jkwang/Desktop/nacl_sdk/pepper_canary/toolchain/mac_pnacl/bin/../arm-nacl/lib/libcrt_common.a(lib_a-s_frexp.o)
                0x0000000000038280                frexp
 .text          0x0000000000038320        0x0 /Users/jkwang/Desktop/nacl_sdk/pepper_canary/toolchain/mac_pnacl/bin/../arm-nacl/lib/libcrt_common.a(lib_a-strcasecmp.o)
 .text.strcasecmp
                0x0000000000038320       0x80 /Users/jkwang/Desktop/nacl_sdk/pepper_canary/toolchain/mac_pnacl/bin/../arm-nacl/lib/libcrt_common.a(lib_a-strcasecmp.o)
                0x0000000000038320                strcasecmp
 .text          0x00000000000383a0        0x0 /Users/jkwang/Desktop/nacl_sdk/pepper_canary/toolchain/mac_pnacl/bin/../arm-nacl/lib/libcrt_common.a(lib_a-strchr.o)
 .text.strchr   0x00000000000383a0      0x170 /Users/jkwang/Desktop/nacl_sdk/pepper_canary/toolchain/mac_pnacl/bin/../arm-nacl/lib/libcrt_common.a(lib_a-strchr.o)
                0x00000000000383a0                strchr
 .text          0x0000000000038510        0x0 /Users/jkwang/Desktop/nacl_sdk/pepper_canary/toolchain/mac_pnacl/bin/../arm-nacl/lib/libcrt_common.a(lib_a-strlcpy.o)
 .text.strlcpy  0x0000000000038510       0x90 /Users/jkwang/Desktop/nacl_sdk/pepper_canary/toolchain/mac_pnacl/bin/../arm-nacl/lib/libcrt_common.a(lib_a-strlcpy.o)
                0x0000000000038510                strlcpy
 .text          0x00000000000385a0        0x0 /Users/jkwang/Desktop/nacl_sdk/pepper_canary/toolchain/mac_pnacl/bin/../arm-nacl/lib/libcrt_common.a(lib_a-strncasecmp.o)
 .text.strncasecmp
                0x00000000000385a0       0xa0 /Users/jkwang/Desktop/nacl_sdk/pepper_canary/toolchain/mac_pnacl/bin/../arm-nacl/lib/libcrt_common.a(lib_a-strncasecmp.o)
                0x00000000000385a0                strncasecmp
 .text          0x0000000000038640        0x0 /Users/jkwang/Desktop/nacl_sdk/pepper_canary/toolchain/mac_pnacl/bin/../arm-nacl/lib/libcrt_common.a(lib_a-strncpy.o)
 .text.strncpy  0x0000000000038640      0x160 /Users/jkwang/Desktop/nacl_sdk/pepper_canary/toolchain/mac_pnacl/bin/../arm-nacl/lib/libcrt_common.a(lib_a-strncpy.o)
                0x0000000000038640                strncpy
 .text          0x00000000000387a0        0x0 /Users/jkwang/Desktop/nacl_sdk/pepper_canary/toolchain/mac_pnacl/bin/../arm-nacl/lib/libcrt_common.a(lib_a-strtol.o)
 .text._strtol_r
                0x00000000000387a0      0x240 /Users/jkwang/Desktop/nacl_sdk/pepper_canary/toolchain/mac_pnacl/bin/../arm-nacl/lib/libcrt_common.a(lib_a-strtol.o)
                0x00000000000387a0                _strtol_r
 .text.strtol   0x00000000000389e0       0x60 /Users/jkwang/Desktop/nacl_sdk/pepper_canary/toolchain/mac_pnacl/bin/../arm-nacl/lib/libcrt_common.a(lib_a-strtol.o)
                0x00000000000389e0                strtol
 .text          0x0000000000038a40        0x0 /Users/jkwang/Desktop/nacl_sdk/pepper_canary/toolchain/mac_pnacl/bin/../arm-nacl/lib/libcrt_common.a(lib_a-svfprintf.o)
 .text._svfprintf_r
                0x0000000000038a40     0x32d0 /Users/jkwang/Desktop/nacl_sdk/pepper_canary/toolchain/mac_pnacl/bin/../arm-nacl/lib/libcrt_common.a(lib_a-svfprintf.o)
                0x0000000000038a40                _svfprintf_r
 .text          0x000000000003bd10        0x0 /Users/jkwang/Desktop/nacl_sdk/pepper_canary/toolchain/mac_pnacl/bin/../arm-nacl/lib/libcrt_common.a(lib_a-vfiprintf.o)
 .text.__sprint_r
                0x000000000003bd10      0x130 /Users/jkwang/Desktop/nacl_sdk/pepper_canary/toolchain/mac_pnacl/bin/../arm-nacl/lib/libcrt_common.a(lib_a-vfiprintf.o)
                0x000000000003bd10                __sprint_r
 .text.vfiprintf
                0x000000000003be40       0x60 /Users/jkwang/Desktop/nacl_sdk/pepper_canary/toolchain/mac_pnacl/bin/../arm-nacl/lib/libcrt_common.a(lib_a-vfiprintf.o)
                0x000000000003be40                vfiprintf
 .text._vfiprintf_r
                0x000000000003bea0     0x2870 /Users/jkwang/Desktop/nacl_sdk/pepper_canary/toolchain/mac_pnacl/bin/../arm-nacl/lib/libcrt_common.a(lib_a-vfiprintf.o)
                0x000000000003bea0                _vfiprintf_r
 .text.__sbprintf
                0x000000000003e710      0x160 /Users/jkwang/Desktop/nacl_sdk/pepper_canary/toolchain/mac_pnacl/bin/../arm-nacl/lib/libcrt_common.a(lib_a-vfiprintf.o)
 .text          0x000000000003e870        0x0 /Users/jkwang/Desktop/nacl_sdk/pepper_canary/toolchain/mac_pnacl/bin/../arm-nacl/lib/libcrt_common.a(lib_a-wcsnrtombs.o)
 .text._wcsnrtombs_r
                0x000000000003e870      0x280 /Users/jkwang/Desktop/nacl_sdk/pepper_canary/toolchain/mac_pnacl/bin/../arm-nacl/lib/libcrt_common.a(lib_a-wcsnrtombs.o)
                0x000000000003e870                _wcsnrtombs_r
 .text.wcsnrtombs
                0x000000000003eaf0       0x80 /Users/jkwang/Desktop/nacl_sdk/pepper_canary/toolchain/mac_pnacl/bin/../arm-nacl/lib/libcrt_common.a(lib_a-wcsnrtombs.o)
                0x000000000003eaf0                wcsnrtombs
 .text          0x000000000003eb70        0x0 /Users/jkwang/Desktop/nacl_sdk/pepper_canary/toolchain/mac_pnacl/bin/../arm-nacl/lib/libcrt_common.a(lib_a-ctype_.o)
 .text.__set_ctype
                0x000000000003eb70       0x20 /Users/jkwang/Desktop/nacl_sdk/pepper_canary/toolchain/mac_pnacl/bin/../arm-nacl/lib/libcrt_common.a(lib_a-ctype_.o)
                0x000000000003eb70                __set_ctype
 .text          0x000000000003eb90        0x0 /Users/jkwang/Desktop/nacl_sdk/pepper_canary/toolchain/mac_pnacl/bin/../arm-nacl/lib/libcrt_common.a(lib_a-fputwc.o)
 .text._fputwc_r
                0x000000000003eb90      0x210 /Users/jkwang/Desktop/nacl_sdk/pepper_canary/toolchain/mac_pnacl/bin/../arm-nacl/lib/libcrt_common.a(lib_a-fputwc.o)
                0x000000000003eb90                _fputwc_r
 .text.fputwc   0x000000000003eda0       0x90 /Users/jkwang/Desktop/nacl_sdk/pepper_canary/toolchain/mac_pnacl/bin/../arm-nacl/lib/libcrt_common.a(lib_a-fputwc.o)
                0x000000000003eda0                fputwc
 .text          0x000000000003ee30        0x0 /Users/jkwang/Desktop/nacl_sdk/pepper_canary/toolchain/mac_pnacl/bin/../arm-nacl/lib/libcrt_common.a(lib_a-svfiprintf.o)
 .text.__ssprint_r
                0x000000000003ee30      0x290 /Users/jkwang/Desktop/nacl_sdk/pepper_canary/toolchain/mac_pnacl/bin/../arm-nacl/lib/libcrt_common.a(lib_a-svfiprintf.o)
                0x000000000003ee30                __ssprint_r
 .text._svfiprintf_r
                0x000000000003f0c0     0x1900 /Users/jkwang/Desktop/nacl_sdk/pepper_canary/toolchain/mac_pnacl/bin/../arm-nacl/lib/libcrt_common.a(lib_a-svfiprintf.o)
                0x000000000003f0c0                _svfiprintf_r
 .text          0x00000000000409c0        0x0 /Users/jkwang/Desktop/nacl_sdk/pepper_canary/toolchain/mac_pnacl/bin/../arm-nacl/lib/libcrt_common.a(lib_a-wbuf.o)
 .text.__swbuf_r
                0x00000000000409c0      0x1c0 /Users/jkwang/Desktop/nacl_sdk/pepper_canary/toolchain/mac_pnacl/bin/../arm-nacl/lib/libcrt_common.a(lib_a-wbuf.o)
                0x00000000000409c0                __swbuf_r
 .text.__swbuf  0x0000000000040b80       0x50 /Users/jkwang/Desktop/nacl_sdk/pepper_canary/toolchain/mac_pnacl/bin/../arm-nacl/lib/libcrt_common.a(lib_a-wbuf.o)
                0x0000000000040b80                __swbuf
 .text          0x0000000000040bd0       0x78 /Users/jkwang/Desktop/nacl_sdk/pepper_canary/toolchain/mac_pnacl/bin/../arm-nacl/lib/libnacl.a(close.o)
                0x0000000000040bd0                close
 *fill*         0x0000000000040c48        0x8 
 .text          0x0000000000040c50       0x78 /Users/jkwang/Desktop/nacl_sdk/pepper_canary/toolchain/mac_pnacl/bin/../arm-nacl/lib/libnacl.a(fstat.o)
                0x0000000000040c50                fstat
 *fill*         0x0000000000040cc8        0x8 
 .text          0x0000000000040cd0       0x98 /Users/jkwang/Desktop/nacl_sdk/pepper_canary/toolchain/mac_pnacl/bin/../arm-nacl/lib/libnacl.a(isatty.o)
                0x0000000000040cd0                isatty
 *fill*         0x0000000000040d68        0x8 
 .text          0x0000000000040d70       0x88 /Users/jkwang/Desktop/nacl_sdk/pepper_canary/toolchain/mac_pnacl/bin/../arm-nacl/lib/libnacl.a(lseek.o)
                0x0000000000040d70                lseek
 *fill*         0x0000000000040df8        0x8 
 .text          0x0000000000040e00       0x78 /Users/jkwang/Desktop/nacl_sdk/pepper_canary/toolchain/mac_pnacl/bin/../arm-nacl/lib/libnacl.a(nanosleep.o)
                0x0000000000040e00                nanosleep
 *fill*         0x0000000000040e78        0x8 
 .text          0x0000000000040e80       0x90 /Users/jkwang/Desktop/nacl_sdk/pepper_canary/toolchain/mac_pnacl/bin/../arm-nacl/lib/libnacl.a(nacl_irt_fdio.o)
                0x0000000000040e80                __libnacl_irt_dev_fdio_init
 .text          0x0000000000040f10       0x68 /Users/jkwang/Desktop/nacl_sdk/pepper_canary/toolchain/mac_pnacl/bin/../arm-nacl/lib/libnacl.a(read.o)
                0x0000000000040f10                read
 *fill*         0x0000000000040f78        0x8 
 .text          0x0000000000040f80       0x10 /Users/jkwang/Desktop/nacl_sdk/pepper_canary/toolchain/mac_pnacl/bin/../lib/clang/3.7.0/lib/arm-nacl/libgcc.a(aeabi_memcpy.o)
                0x0000000000040f80                __aeabi_memcpy
                0x0000000000040f80                __aeabi_memcpy4
                0x0000000000040f80                __aeabi_memcpy8
 .text          0x0000000000040f90       0x20 /Users/jkwang/Desktop/nacl_sdk/pepper_canary/toolchain/mac_pnacl/bin/../lib/clang/3.7.0/lib/arm-nacl/libgcc.a(aeabi_memset.o)
                0x0000000000040f90                __aeabi_memset
                0x0000000000040f90                __aeabi_memset8
                0x0000000000040f90                __aeabi_memset4
                0x0000000000040fa0                __aeabi_memclr8
                0x0000000000040fa0                __aeabi_memclr
                0x0000000000040fa0                __aeabi_memclr4
 .text          0x0000000000040fb0       0x40 /Users/jkwang/Desktop/nacl_sdk/pepper_canary/toolchain/mac_pnacl/bin/../lib/clang/3.7.0/lib/arm-nacl/libgcc.a(aeabi_uldivmod.o)
                0x0000000000040fb0                __aeabi_uldivmod
 .text          0x0000000000040ff0       0x20 /Users/jkwang/Desktop/nacl_sdk/pepper_canary/toolchain/mac_pnacl/bin/../lib/clang/3.7.0/lib/arm-nacl/libgcc.a(modsi3.o)
                0x0000000000040ff0                __modsi3
 .text          0x0000000000041010      0x3a0 /Users/jkwang/Desktop/nacl_sdk/pepper_canary/toolchain/mac_pnacl/bin/../lib/clang/3.7.0/lib/arm-nacl/libgcc.a(udivmoddi4.o)
                0x0000000000041010                __udivmoddi4
 .text          0x00000000000413b0       0xa0 /Users/jkwang/Desktop/nacl_sdk/pepper_canary/toolchain/mac_pnacl/bin/../lib/clang/3.7.0/lib/arm-nacl/libgcc.a(udivsi3.o)
                0x00000000000413b0                __udivsi3
                0x00000000000413b0                __aeabi_uidiv
 .text          0x0000000000041450       0x40 /Users/jkwang/Desktop/nacl_sdk/pepper_canary/toolchain/mac_pnacl/bin/../lib/clang/3.7.0/lib/arm-nacl/libgcc.a(umoddi3.o)
                0x0000000000041450                __umoddi3
 .text          0x0000000000041490       0x20 /Users/jkwang/Desktop/nacl_sdk/pepper_canary/toolchain/mac_pnacl/bin/../lib/clang/3.7.0/lib/arm-nacl/libgcc.a(umodsi3.o)
                0x0000000000041490                __umodsi3
 .text          0x00000000000414b0       0x60 /Users/jkwang/Desktop/nacl_sdk/pepper_canary/toolchain/mac_pnacl/bin/../lib/clang/3.7.0/lib/arm-nacl/libgcc.a(divsi3.o)
                0x00000000000414b0                __aeabi_idiv
                0x00000000000414b0                __divsi3
 .text          0x0000000000041510     0x2210 /Users/jkwang/Desktop/nacl_sdk/pepper_canary/toolchain/mac_pnacl/bin/../lib/clang/3.7.0/lib/arm-nacl/libgcc_eh.a(unwind-dw2-fde-glibc.o)
                0x0000000000041510                __register_frame_info_bases
                0x0000000000041580                __register_frame_info
                0x0000000000041600                __register_frame
                0x00000000000416a0                __register_frame_info_table_bases
                0x0000000000041700                __register_frame_info_table
                0x0000000000041760                __register_frame_table
                0x00000000000417f0                __deregister_frame_info_bases
                0x0000000000041910                __deregister_frame_info
                0x0000000000041920                __deregister_frame
                0x0000000000041980                _Unwind_Find_FDE
 .text          0x0000000000043720        0x0 /Users/jkwang/Desktop/nacl_sdk/pepper_canary/toolchain/mac_pnacl/bin/../lib/clang/3.7.0/lib/arm-nacl/crtend.o
 .text          0x0000000000043720        0x0 /Users/jkwang/Desktop/nacl_sdk/pepper_canary/toolchain/mac_pnacl/bin/../arm-nacl/lib/crtn.o
 *(.gnu.warning)
 *(.glue_7t)
 .glue_7t       0x0000000000043720        0x0 linker stubs
 *(.glue_7)
 .glue_7        0x0000000000043720        0x0 linker stubs
 *(.vfp11_veneer)
 .vfp11_veneer  0x0000000000043720        0x0 linker stubs
 *(.v4_bx)
 .v4_bx         0x0000000000043720        0x0 linker stubs

.fini
 *(SORT(.fini))
                0x0000000000043720                PROVIDE (__etext, .)
                0x0000000000043720                PROVIDE (_etext, .)
                0x0000000000043720                PROVIDE (etext, .)
                0x00000000100200f4                . = (0x10020000 + SIZEOF_HEADERS)

.interp
 *(.interp)

.note.NaCl.ABI.arm
                0x00000000100200f4       0x18
 .note.NaCl.ABI.arm
                0x00000000100200f4       0x18 /Users/jkwang/Desktop/nacl_sdk/pepper_canary/toolchain/mac_pnacl/bin/../arm-nacl/lib/crti.o

.note.gnu.build-id
                0x000000001002010c       0x24
 *(.note.gnu.build-id)
 .note.gnu.build-id
                0x000000001002010c       0x24 linker stubs

.hash
 *(.hash)

.gnu.hash
 *(.gnu.hash)

.dynsym
 *(.dynsym)

.dynstr
 *(.dynstr)

.gnu.version
 *(.gnu.version)

.gnu.version_d
 *(.gnu.version_d)

.gnu.version_r
 *(.gnu.version_r)

.rel.dyn        0x0000000010020130        0x0
 *(.rel.init)
 *(.rel.text .rel.text.* .rel.gnu.linkonce.t.*)
 *(.rel.fini)
 *(.rel.rodata .rel.rodata.* .rel.gnu.linkonce.r.*)
 *(.rel.data.rel.ro .rel.data.rel.ro.* .rel.gnu.linkonce.d.rel.ro.*)
 *(.rel.data .rel.data.* .rel.gnu.linkonce.d.*)
 *(.rel.tdata .rel.tdata.* .rel.gnu.linkonce.td.*)
 *(.rel.tbss .rel.tbss.* .rel.gnu.linkonce.tb.*)
 *(.rel.ctors)
 *(.rel.dtors)
 *(.rel.got)
 .rel.got       0x0000000010020130        0x0 /Users/jkwang/Desktop/nacl_sdk/pepper_canary/toolchain/mac_pnacl/bin/../arm-nacl/lib/crti.o
 *(.rel.bss .rel.bss.* .rel.gnu.linkonce.b.*)
                0x0000000010020130                PROVIDE (__rel_iplt_start, .)
 *(.rel.iplt)
 .rel.iplt      0x0000000010020130        0x0 /Users/jkwang/Desktop/nacl_sdk/pepper_canary/toolchain/mac_pnacl/bin/../arm-nacl/lib/crti.o
                0x0000000010020130                PROVIDE (__rel_iplt_end, .)

.rela.dyn       0x0000000010020130        0x0
 *(.rela.init)
 *(.rela.text .rela.text.* .rela.gnu.linkonce.t.*)
 *(.rela.fini)
 *(.rela.rodata .rela.rodata.* .rela.gnu.linkonce.r.*)
 *(.rela.data .rela.data.* .rela.gnu.linkonce.d.*)
 *(.rela.tdata .rela.tdata.* .rela.gnu.linkonce.td.*)
 *(.rela.tbss .rela.tbss.* .rela.gnu.linkonce.tb.*)
 *(.rela.ctors)
 *(.rela.dtors)
 *(.rela.got)
 *(.rela.bss .rela.bss.* .rela.gnu.linkonce.b.*)
                0x0000000010020130                PROVIDE (__rela_iplt_start, .)
 *(.rela.iplt)
                0x0000000010020130                PROVIDE (__rela_iplt_end, .)

.rel.plt
 *(.rel.plt)

.rela.plt
 *(.rela.plt)

.rodata         0x0000000010020130     0x11c0
 *(.rodata .rodata.* .gnu.linkonce.r.*)
 .rodata.str1.1
                0x0000000010020130       0xd6 clang-newlib/Release/debugging_arm.o
 .rodata        0x0000000010020206        0x6 clang-newlib/Release/debugging_arm.o
 .rodata.str1.1
                0x000000001002020c      0x1b7 /Users/jkwang/Desktop/nacl_sdk/pepper_canary/lib/clang-newlib_arm/Release/liberror_handling.a(error_handling_arm.o)
                                        0x1be (size before relaxing)
 .rodata.str1.1
                0x00000000100203c3       0xad /Users/jkwang/Desktop/nacl_sdk/pepper_canary/toolchain/mac_pnacl/bin/../arm-nacl/lib/libppapi_stub.a(ppapi_plugin_start.o)
 .rodata.str1.1
                0x0000000010020470       0x22 /Users/jkwang/Desktop/nacl_sdk/pepper_canary/toolchain/mac_pnacl/bin/../arm-nacl/lib/libpthread.a(nc_thread.o)
 .rodata.str1.1
                0x0000000010020492       0x14 /Users/jkwang/Desktop/nacl_sdk/pepper_canary/toolchain/mac_pnacl/bin/../arm-nacl/lib/libpthread.a(valgrind_annotations.o)
                                         0x16 (size before relaxing)
 .rodata.str1.1
                0x00000000100204a6       0x27 /Users/jkwang/Desktop/nacl_sdk/pepper_canary/toolchain/mac_pnacl/bin/../arm-nacl/lib/libpthread.a(nc_init_irt.o)
 .rodata.str1.1
                0x00000000100204cd       0x55 /Users/jkwang/Desktop/nacl_sdk/pepper_canary/toolchain/mac_pnacl/bin/../arm-nacl/lib/libnacl.a(nacl_irt.o)
 .rodata.str1.1
                0x0000000010020522       0x4e /Users/jkwang/Desktop/nacl_sdk/pepper_canary/toolchain/mac_pnacl/bin/../arm-nacl/lib/libnacl.a(malloc.o)
 .rodata.str1.1
                0x0000000010020570       0x88 /Users/jkwang/Desktop/nacl_sdk/pepper_canary/toolchain/mac_pnacl/bin/../arm-nacl/lib/libnacl.a(nacl_irt_init.o)
 .rodata        0x00000000100205f8       0x13 /Users/jkwang/Desktop/nacl_sdk/pepper_canary/toolchain/mac_pnacl/bin/../arm-nacl/lib/libnacl.a(abort.o)
 *fill*         0x000000001002060b        0x1 
 .rodata._global_impure_ptr
                0x000000001002060c        0x4 /Users/jkwang/Desktop/nacl_sdk/pepper_canary/toolchain/mac_pnacl/bin/../arm-nacl/lib/libcrt_common.a(lib_a-impure.o)
                0x000000001002060c                _global_impure_ptr
 .rodata.str1.1
                0x0000000010020610       0x88 /Users/jkwang/Desktop/nacl_sdk/pepper_canary/toolchain/mac_pnacl/bin/../arm-nacl/lib/libcrt_common.a(lib_a-impure.o)
                                          0x2 (size before relaxing)
 .rodata._vfprintf_r
                0x0000000010020610      0x14c /Users/jkwang/Desktop/nacl_sdk/pepper_canary/toolchain/mac_pnacl/bin/../arm-nacl/lib/libcrt_common.a(lib_a-vfprintf.o)
 .rodata._vfprintf_r.blanks
                0x000000001002075c       0x10 /Users/jkwang/Desktop/nacl_sdk/pepper_canary/toolchain/mac_pnacl/bin/../arm-nacl/lib/libcrt_common.a(lib_a-vfprintf.o)
 .rodata._vfprintf_r.zeroes
                0x000000001002076c       0x10 /Users/jkwang/Desktop/nacl_sdk/pepper_canary/toolchain/mac_pnacl/bin/../arm-nacl/lib/libcrt_common.a(lib_a-vfprintf.o)
 .rodata.str1.1
                0x000000001002077c       0x53 /Users/jkwang/Desktop/nacl_sdk/pepper_canary/toolchain/mac_pnacl/bin/../arm-nacl/lib/libcrt_common.a(lib_a-vfprintf.o)
                                         0x55 (size before relaxing)
 *fill*         0x00000000100207cf        0x1 
 .rodata.cst8   0x00000000100207d0       0x18 /Users/jkwang/Desktop/nacl_sdk/pepper_canary/toolchain/mac_pnacl/bin/../arm-nacl/lib/libcrt_common.a(lib_a-dtoa.o)
 .rodata._dtoa_r
                0x00000000100207e8       0x18 /Users/jkwang/Desktop/nacl_sdk/pepper_canary/toolchain/mac_pnacl/bin/../arm-nacl/lib/libcrt_common.a(lib_a-dtoa.o)
 .rodata.str1.1
                0x0000000010020800        0xd /Users/jkwang/Desktop/nacl_sdk/pepper_canary/toolchain/mac_pnacl/bin/../arm-nacl/lib/libcrt_common.a(lib_a-dtoa.o)
                                          0xf (size before relaxing)
 *fill*         0x000000001002080d        0x3 
 .rodata.loadlocale
                0x0000000010020810       0xd4 /Users/jkwang/Desktop/nacl_sdk/pepper_canary/toolchain/mac_pnacl/bin/../arm-nacl/lib/libcrt_common.a(lib_a-locale.o)
 .rodata.str1.1
                0x00000000100208e4       0xe8 /Users/jkwang/Desktop/nacl_sdk/pepper_canary/toolchain/mac_pnacl/bin/../arm-nacl/lib/libcrt_common.a(lib_a-locale.o)
                                         0xf4 (size before relaxing)
 .rodata.categories
                0x00000000100209cc       0x1c /Users/jkwang/Desktop/nacl_sdk/pepper_canary/toolchain/mac_pnacl/bin/../arm-nacl/lib/libcrt_common.a(lib_a-locale.o)
 .rodata.__jis_mbtowc
                0x00000000100209e8       0x18 /Users/jkwang/Desktop/nacl_sdk/pepper_canary/toolchain/mac_pnacl/bin/../arm-nacl/lib/libcrt_common.a(lib_a-mbtowc_r.o)
 .rodata.JIS_action_table
                0x0000000010020a00      0x120 /Users/jkwang/Desktop/nacl_sdk/pepper_canary/toolchain/mac_pnacl/bin/../arm-nacl/lib/libcrt_common.a(lib_a-mbtowc_r.o)
 .rodata.JIS_state_table
                0x0000000010020b20      0x120 /Users/jkwang/Desktop/nacl_sdk/pepper_canary/toolchain/mac_pnacl/bin/../arm-nacl/lib/libcrt_common.a(lib_a-mbtowc_r.o)
 .rodata.cst8   0x0000000010020c40        0x8 /Users/jkwang/Desktop/nacl_sdk/pepper_canary/toolchain/mac_pnacl/bin/../arm-nacl/lib/libcrt_common.a(lib_a-mprec.o)
 .rodata.__pow5mult.p05
                0x0000000010020c48        0xc /Users/jkwang/Desktop/nacl_sdk/pepper_canary/toolchain/mac_pnacl/bin/../arm-nacl/lib/libcrt_common.a(lib_a-mprec.o)
 *fill*         0x0000000010020c54        0x4 
 .rodata.__mprec_tens
                0x0000000010020c58       0xc8 /Users/jkwang/Desktop/nacl_sdk/pepper_canary/toolchain/mac_pnacl/bin/../arm-nacl/lib/libcrt_common.a(lib_a-mprec.o)
                0x0000000010020c58                __mprec_tens
 .rodata.__mprec_bigtens
                0x0000000010020d20       0x28 /Users/jkwang/Desktop/nacl_sdk/pepper_canary/toolchain/mac_pnacl/bin/../arm-nacl/lib/libcrt_common.a(lib_a-mprec.o)
                0x0000000010020d20                __mprec_bigtens
 .rodata.__mprec_tinytens
                0x0000000010020d48       0x28 /Users/jkwang/Desktop/nacl_sdk/pepper_canary/toolchain/mac_pnacl/bin/../arm-nacl/lib/libcrt_common.a(lib_a-mprec.o)
                0x0000000010020d48                __mprec_tinytens
 .rodata.cst8   0x0000000010020d70        0x8 /Users/jkwang/Desktop/nacl_sdk/pepper_canary/toolchain/mac_pnacl/bin/../arm-nacl/lib/libcrt_common.a(lib_a-s_frexp.o)
 .rodata._svfprintf_r
                0x0000000010020d78      0x14c /Users/jkwang/Desktop/nacl_sdk/pepper_canary/toolchain/mac_pnacl/bin/../arm-nacl/lib/libcrt_common.a(lib_a-svfprintf.o)
 .rodata._svfprintf_r.blanks
                0x0000000010020ec4       0x10 /Users/jkwang/Desktop/nacl_sdk/pepper_canary/toolchain/mac_pnacl/bin/../arm-nacl/lib/libcrt_common.a(lib_a-svfprintf.o)
 .rodata._svfprintf_r.zeroes
                0x0000000010020ed4       0x10 /Users/jkwang/Desktop/nacl_sdk/pepper_canary/toolchain/mac_pnacl/bin/../arm-nacl/lib/libcrt_common.a(lib_a-svfprintf.o)
 .rodata.str1.1
                0x0000000010020ee4       0x55 /Users/jkwang/Desktop/nacl_sdk/pepper_canary/toolchain/mac_pnacl/bin/../arm-nacl/lib/libcrt_common.a(lib_a-svfprintf.o)
 .rodata._vfiprintf_r
                0x0000000010020ee4      0x11c /Users/jkwang/Desktop/nacl_sdk/pepper_canary/toolchain/mac_pnacl/bin/../arm-nacl/lib/libcrt_common.a(lib_a-vfiprintf.o)
 .rodata._vfiprintf_r.blanks
                0x0000000010021000       0x10 /Users/jkwang/Desktop/nacl_sdk/pepper_canary/toolchain/mac_pnacl/bin/../arm-nacl/lib/libcrt_common.a(lib_a-vfiprintf.o)
 .rodata._vfiprintf_r.zeroes
                0x0000000010021010       0x10 /Users/jkwang/Desktop/nacl_sdk/pepper_canary/toolchain/mac_pnacl/bin/../arm-nacl/lib/libcrt_common.a(lib_a-vfiprintf.o)
 .rodata.str1.1
                0x0000000010021020       0x43 /Users/jkwang/Desktop/nacl_sdk/pepper_canary/toolchain/mac_pnacl/bin/../arm-nacl/lib/libcrt_common.a(lib_a-vfiprintf.o)
 .rodata._ctype_
                0x0000000010021020      0x101 /Users/jkwang/Desktop/nacl_sdk/pepper_canary/toolchain/mac_pnacl/bin/../arm-nacl/lib/libcrt_common.a(lib_a-ctype_.o)
                0x0000000010021020                _ctype_
 *fill*         0x0000000010021121        0x3 
 .rodata._svfiprintf_r
                0x0000000010021124      0x11c /Users/jkwang/Desktop/nacl_sdk/pepper_canary/toolchain/mac_pnacl/bin/../arm-nacl/lib/libcrt_common.a(lib_a-svfiprintf.o)
 .rodata._svfiprintf_r.blanks
                0x0000000010021240       0x10 /Users/jkwang/Desktop/nacl_sdk/pepper_canary/toolchain/mac_pnacl/bin/../arm-nacl/lib/libcrt_common.a(lib_a-svfiprintf.o)
 .rodata._svfiprintf_r.zeroes
                0x0000000010021250       0x10 /Users/jkwang/Desktop/nacl_sdk/pepper_canary/toolchain/mac_pnacl/bin/../arm-nacl/lib/libcrt_common.a(lib_a-svfiprintf.o)
 .rodata.str1.1
                0x0000000010021260       0x43 /Users/jkwang/Desktop/nacl_sdk/pepper_canary/toolchain/mac_pnacl/bin/../arm-nacl/lib/libcrt_common.a(lib_a-svfiprintf.o)
 .rodata.str1.1
                0x0000000010021260       0x2c /Users/jkwang/Desktop/nacl_sdk/pepper_canary/toolchain/mac_pnacl/bin/../arm-nacl/lib/libnacl.a(nacl_irt_fdio.o)
                                         0x42 (size before relaxing)
 *fill*         0x000000001002128c        0x4 
 .rodata        0x0000000010021290       0x60 /Users/jkwang/Desktop/nacl_sdk/pepper_canary/toolchain/mac_pnacl/bin/../lib/clang/3.7.0/lib/arm-nacl/libgcc_eh.a(unwind-dw2-fde-glibc.o)

.rodata1
 *(.rodata1)

.ARM.extab
 *(.ARM.extab* .gnu.linkonce.armextab.*)
                0x00000000100212f0                PROVIDE (__exidx_start, .)

.ARM.exidx
 *(.ARM.exidx* .gnu.linkonce.armexidx.*)
                0x00000000100212f0                PROVIDE (__exidx_end, .)

.eh_frame_hdr
 *(.eh_frame_hdr)

.eh_frame
 *(.eh_frame)

.gcc_except_table
 *(.gcc_except_table .gcc_except_table.*)

.exception_ranges
 *(.exception_ranges .exception_ranges*)
                0x00000000100212f0                . = (ALIGN (0x10000) - ((0x10000 - .) & 0xffff))
                0x00000000100312f0                . = DATA_SEGMENT_ALIGN (0x10000, 0x10000)

.eh_frame       0x00000000100312f0     0x1398
 *(.eh_frame)
 .eh_frame      0x00000000100312f0        0x0 /Users/jkwang/Desktop/nacl_sdk/pepper_canary/toolchain/mac_pnacl/bin/../lib/clang/3.7.0/lib/arm-nacl/crtbeginT.o
 .eh_frame      0x00000000100312f0      0x3d8 /Users/jkwang/Desktop/nacl_sdk/pepper_canary/toolchain/mac_pnacl/bin/../arm-nacl/lib/libpthread.a(nc_thread.o)
 .eh_frame      0x00000000100316c8      0x138 /Users/jkwang/Desktop/nacl_sdk/pepper_canary/toolchain/mac_pnacl/bin/../arm-nacl/lib/libpthread.a(nc_mutex.o)
                                        0x14c (size before relaxing)
 .eh_frame      0x0000000010031800      0x118 /Users/jkwang/Desktop/nacl_sdk/pepper_canary/toolchain/mac_pnacl/bin/../arm-nacl/lib/libpthread.a(nc_condvar.o)
                                        0x12c (size before relaxing)
 .eh_frame      0x0000000010031918      0x300 /Users/jkwang/Desktop/nacl_sdk/pepper_canary/toolchain/mac_pnacl/bin/../arm-nacl/lib/libpthread.a(valgrind_annotations.o)
                                        0x314 (size before relaxing)
 .eh_frame      0x0000000010031c18       0x1c /Users/jkwang/Desktop/nacl_sdk/pepper_canary/toolchain/mac_pnacl/bin/../arm-nacl/lib/libpthread.a(nc_init_irt.o)
                                         0x30 (size before relaxing)
 .eh_frame      0x0000000010031c34      0x110 /Users/jkwang/Desktop/nacl_sdk/pepper_canary/toolchain/mac_pnacl/bin/../arm-nacl/lib/libnacl.a(nacl_irt.o)
                                        0x124 (size before relaxing)
 .eh_frame      0x0000000010031d44       0x1c /Users/jkwang/Desktop/nacl_sdk/pepper_canary/toolchain/mac_pnacl/bin/../arm-nacl/lib/libnacl.a(_exit.o)
                                         0x30 (size before relaxing)
 .eh_frame      0x0000000010031d60       0x1c /Users/jkwang/Desktop/nacl_sdk/pepper_canary/toolchain/mac_pnacl/bin/../arm-nacl/lib/libnacl.a(mmap.o)
                                         0x30 (size before relaxing)
 .eh_frame      0x0000000010031d7c       0x1c /Users/jkwang/Desktop/nacl_sdk/pepper_canary/toolchain/mac_pnacl/bin/../arm-nacl/lib/libnacl.a(munmap.o)
                                         0x30 (size before relaxing)
 .eh_frame      0x0000000010031d98       0x14 /Users/jkwang/Desktop/nacl_sdk/pepper_canary/toolchain/mac_pnacl/bin/../arm-nacl/lib/libnacl.a(nacl_interface_query.o)
                                         0x28 (size before relaxing)
 .eh_frame      0x0000000010031dac       0x1c /Users/jkwang/Desktop/nacl_sdk/pepper_canary/toolchain/mac_pnacl/bin/../arm-nacl/lib/libnacl.a(write.o)
                                         0x30 (size before relaxing)
 .eh_frame      0x0000000010031dc8      0x3c8 /Users/jkwang/Desktop/nacl_sdk/pepper_canary/toolchain/mac_pnacl/bin/../arm-nacl/lib/libnacl.a(malloc.o)
                                        0x3dc (size before relaxing)
 .eh_frame      0x0000000010032190       0x24 /Users/jkwang/Desktop/nacl_sdk/pepper_canary/toolchain/mac_pnacl/bin/../arm-nacl/lib/libnacl.a(start.o)
                                         0x38 (size before relaxing)
 .eh_frame      0x00000000100321b4       0x14 /Users/jkwang/Desktop/nacl_sdk/pepper_canary/toolchain/mac_pnacl/bin/../arm-nacl/lib/libnacl.a(nacl_read_tp.o)
                                         0x28 (size before relaxing)
 .eh_frame      0x00000000100321c8       0x1c /Users/jkwang/Desktop/nacl_sdk/pepper_canary/toolchain/mac_pnacl/bin/../arm-nacl/lib/libnacl.a(pthread_initialize_minimal.o)
                                         0x30 (size before relaxing)
 .eh_frame      0x00000000100321e4       0x70 /Users/jkwang/Desktop/nacl_sdk/pepper_canary/toolchain/mac_pnacl/bin/../arm-nacl/lib/libnacl.a(tls.o)
                                         0x84 (size before relaxing)
 .eh_frame      0x0000000010032254       0x30 /Users/jkwang/Desktop/nacl_sdk/pepper_canary/toolchain/mac_pnacl/bin/../arm-nacl/lib/libnacl.a(nacl_irt_init.o)
                                         0x44 (size before relaxing)
 .eh_frame      0x0000000010032284       0x14 /Users/jkwang/Desktop/nacl_sdk/pepper_canary/toolchain/mac_pnacl/bin/../arm-nacl/lib/libnacl.a(nacl_tls_get.o)
                                         0x28 (size before relaxing)
 .eh_frame      0x0000000010032298       0x14 /Users/jkwang/Desktop/nacl_sdk/pepper_canary/toolchain/mac_pnacl/bin/../arm-nacl/lib/libnacl.a(nacl_tls_init.o)
                                         0x28 (size before relaxing)
 .eh_frame      0x00000000100322ac       0x1c /Users/jkwang/Desktop/nacl_sdk/pepper_canary/toolchain/mac_pnacl/bin/../arm-nacl/lib/libnacl.a(abort.o)
                                         0x30 (size before relaxing)
 .eh_frame      0x00000000100322c8       0x1c /Users/jkwang/Desktop/nacl_sdk/pepper_canary/toolchain/mac_pnacl/bin/../arm-nacl/lib/libnacl.a(sched_yield.o)
                                         0x30 (size before relaxing)
 .eh_frame      0x00000000100322e4       0x1c /Users/jkwang/Desktop/nacl_sdk/pepper_canary/toolchain/mac_pnacl/bin/../arm-nacl/lib/libnacl.a(sysconf.o)
                                         0x30 (size before relaxing)
 .eh_frame      0x0000000010032300       0x70 /Users/jkwang/Desktop/nacl_sdk/pepper_canary/toolchain/mac_pnacl/bin/../arm-nacl/lib/libcrt_common.a(lib_a-strcmp.o)
 .eh_frame      0x0000000010032370       0x1c /Users/jkwang/Desktop/nacl_sdk/pepper_canary/toolchain/mac_pnacl/bin/../arm-nacl/lib/libnacl.a(close.o)
                                         0x30 (size before relaxing)
 .eh_frame      0x000000001003238c       0x1c /Users/jkwang/Desktop/nacl_sdk/pepper_canary/toolchain/mac_pnacl/bin/../arm-nacl/lib/libnacl.a(fstat.o)
                                         0x30 (size before relaxing)
 .eh_frame      0x00000000100323a8       0x20 /Users/jkwang/Desktop/nacl_sdk/pepper_canary/toolchain/mac_pnacl/bin/../arm-nacl/lib/libnacl.a(isatty.o)
                                         0x34 (size before relaxing)
 .eh_frame      0x00000000100323c8       0x1c /Users/jkwang/Desktop/nacl_sdk/pepper_canary/toolchain/mac_pnacl/bin/../arm-nacl/lib/libnacl.a(lseek.o)
                                         0x30 (size before relaxing)
 .eh_frame      0x00000000100323e4       0x1c /Users/jkwang/Desktop/nacl_sdk/pepper_canary/toolchain/mac_pnacl/bin/../arm-nacl/lib/libnacl.a(nanosleep.o)
                                         0x30 (size before relaxing)
 .eh_frame      0x0000000010032400       0x1c /Users/jkwang/Desktop/nacl_sdk/pepper_canary/toolchain/mac_pnacl/bin/../arm-nacl/lib/libnacl.a(nacl_irt_fdio.o)
                                         0x30 (size before relaxing)
 .eh_frame      0x000000001003241c       0x1c /Users/jkwang/Desktop/nacl_sdk/pepper_canary/toolchain/mac_pnacl/bin/../arm-nacl/lib/libnacl.a(read.o)
                                         0x30 (size before relaxing)
 .eh_frame      0x0000000010032438      0x24c /Users/jkwang/Desktop/nacl_sdk/pepper_canary/toolchain/mac_pnacl/bin/../lib/clang/3.7.0/lib/arm-nacl/libgcc_eh.a(unwind-dw2-fde-glibc.o)
                                        0x260 (size before relaxing)
 .eh_frame      0x0000000010032684        0x4 /Users/jkwang/Desktop/nacl_sdk/pepper_canary/toolchain/mac_pnacl/bin/../lib/clang/3.7.0/lib/arm-nacl/crtend.o

.gcc_except_table
 *(.gcc_except_table .gcc_except_table.*)

.exception_ranges
 *(.exception_ranges .exception_ranges*)

.tdata          0x0000000010032688      0x478
 *(.tdata .tdata.* .gnu.linkonce.td.*)
 .tdata._impure_ptr
                0x0000000010032688        0x4 /Users/jkwang/Desktop/nacl_sdk/pepper_canary/toolchain/mac_pnacl/bin/../arm-nacl/lib/libcrt_common.a(lib_a-impure.o)
                0x0000000010032688                _impure_ptr
 *fill*         0x000000001003268c        0x4 
 .tdata.impure_data
                0x0000000010032690      0x470 /Users/jkwang/Desktop/nacl_sdk/pepper_canary/toolchain/mac_pnacl/bin/../arm-nacl/lib/libcrt_common.a(lib_a-impure.o)

.tbss           0x0000000010032b00        0x8
 *(.tbss .tbss.* .gnu.linkonce.tb.*)
 .tbss          0x0000000010032b00        0x8 /Users/jkwang/Desktop/nacl_sdk/pepper_canary/toolchain/mac_pnacl/bin/../arm-nacl/lib/libpthread.a(nc_thread.o)
 *(.tcommon)

.preinit_array  0x0000000010032b00        0x0
                0x0000000010032b00                PROVIDE (__preinit_array_start, .)
 *(.preinit_array)
                0x0000000010032b00                PROVIDE (__preinit_array_end, .)

.init_array     0x0000000010032b00        0x4
                0x0000000010032b00                PROVIDE (__init_array_start, .)
 *(SORT(.init_array.*) SORT(.ctors.*))
 *(.init_array EXCLUDE_FILE(*crtend?.o *crtend.o *crtbegin?.o *crtbegin.o) .ctors)
 .init_array    0x0000000010032b00        0x4 /Users/jkwang/Desktop/nacl_sdk/pepper_canary/toolchain/mac_pnacl/bin/../lib/clang/3.7.0/lib/arm-nacl/crtbeginT.o
                0x0000000010032b04                PROVIDE (__init_array_end, .)

.fini_array     0x0000000010032b04        0x4
                0x0000000010032b04                PROVIDE (__fini_array_start, .)
 *(SORT(.fini_array.*) SORT(.dtors.*))
 *(.fini_array EXCLUDE_FILE(*crtend?.o *crtend.o *crtbegin?.o *crtbegin.o) .dtors)
 .fini_array    0x0000000010032b04        0x4 /Users/jkwang/Desktop/nacl_sdk/pepper_canary/toolchain/mac_pnacl/bin/../lib/clang/3.7.0/lib/arm-nacl/crtbeginT.o
                0x0000000010032b08                PROVIDE (__fini_array_end, .)

.ctors
 *crtbegin.o(.ctors)
 *crtbegin?.o(.ctors)
 *(EXCLUDE_FILE(*crtend?.o *crtend.o) .ctors)
 *(SORT(.ctors.*))
 *(.ctors)

.dtors
 *crtbegin.o(.dtors)
 *crtbegin?.o(.dtors)
 *(EXCLUDE_FILE(*crtend?.o *crtend.o) .dtors)
 *(SORT(.dtors.*))
 *(.dtors)

.jcr
 *(.jcr)

.data.rel.ro    0x0000000010032b08       0xc8
 *(.data.rel.ro.local* .gnu.linkonce.d.rel.ro.local.*)
 .data.rel.ro.local.thread_funcs
                0x0000000010032b08        0x8 /Users/jkwang/Desktop/nacl_sdk/pepper_canary/toolchain/mac_pnacl/bin/../arm-nacl/lib/libppapi_stub.a(thread_creator.o)
 *(.data.rel.ro .data.rel.ro.* .gnu.linkonce.d.rel.ro.*)
 .data.rel.ro   0x0000000010032b10        0x4 clang-newlib/Release/debugging_arm.o
 .data.rel.ro   0x0000000010032b14       0x18 /Users/jkwang/Desktop/nacl_sdk/pepper_canary/lib/clang-newlib_arm/Release/liberror_handling.a(error_handling_arm.o)
 .data.rel.ro   0x0000000010032b2c        0x4 /Users/jkwang/Desktop/nacl_sdk/pepper_canary/toolchain/mac_pnacl/bin/../arm-nacl/lib/libppapi_stub.a(ppapi_plugin_main.o)
 .data.rel.ro.ppapi_app_start_callbacks
                0x0000000010032b30        0xc /Users/jkwang/Desktop/nacl_sdk/pepper_canary/toolchain/mac_pnacl/bin/../arm-nacl/lib/libppapi_stub.a(ppapi_plugin_main.o)
 .data.rel.ro   0x0000000010032b3c       0x10 /Users/jkwang/Desktop/nacl_sdk/pepper_canary/toolchain/mac_pnacl/bin/../arm-nacl/lib/libppapi_stub.a(ppapi_plugin_start.o)
 .data.rel.ro   0x0000000010032b4c        0x4 /Users/jkwang/Desktop/nacl_sdk/pepper_canary/toolchain/mac_pnacl/bin/../arm-nacl/lib/libppapi_stub.a(thread_creator.o)
 .data.rel.ro   0x0000000010032b50       0x20 /Users/jkwang/Desktop/nacl_sdk/pepper_canary/toolchain/mac_pnacl/bin/../arm-nacl/lib/libpthread.a(nc_thread.o)
 .data.rel.ro   0x0000000010032b70        0x4 /Users/jkwang/Desktop/nacl_sdk/pepper_canary/toolchain/mac_pnacl/bin/../arm-nacl/lib/libnacl.a(malloc.o)
 .data.rel.ro   0x0000000010032b74        0x4 /Users/jkwang/Desktop/nacl_sdk/pepper_canary/toolchain/mac_pnacl/bin/../arm-nacl/lib/libcrt_common.a(lib_a-errno.o)
 .data.rel.ro   0x0000000010032b78        0x4 /Users/jkwang/Desktop/nacl_sdk/pepper_canary/toolchain/mac_pnacl/bin/../arm-nacl/lib/libcrt_common.a(lib_a-fflush.o)
 .data.rel.ro   0x0000000010032b7c        0x8 /Users/jkwang/Desktop/nacl_sdk/pepper_canary/toolchain/mac_pnacl/bin/../arm-nacl/lib/libcrt_common.a(lib_a-findfp.o)
 .data.rel.ro   0x0000000010032b84        0x4 /Users/jkwang/Desktop/nacl_sdk/pepper_canary/toolchain/mac_pnacl/bin/../arm-nacl/lib/libcrt_common.a(lib_a-fprintf.o)
 .data.rel.ro   0x0000000010032b88        0x4 /Users/jkwang/Desktop/nacl_sdk/pepper_canary/toolchain/mac_pnacl/bin/../arm-nacl/lib/libcrt_common.a(lib_a-fwrite.o)
 .data.rel.ro   0x0000000010032b8c        0x8 /Users/jkwang/Desktop/nacl_sdk/pepper_canary/toolchain/mac_pnacl/bin/../arm-nacl/lib/libcrt_common.a(lib_a-getenv.o)
 .data.rel.ro   0x0000000010032b94        0x8 /Users/jkwang/Desktop/nacl_sdk/pepper_canary/toolchain/mac_pnacl/bin/../arm-nacl/lib/libcrt_common.a(lib_a-impure.o)
 .data.rel.ro   0x0000000010032b9c        0x4 /Users/jkwang/Desktop/nacl_sdk/pepper_canary/toolchain/mac_pnacl/bin/../arm-nacl/lib/libcrt_common.a(lib_a-vfprintf.o)
 .data.rel.ro   0x0000000010032ba0        0x4 /Users/jkwang/Desktop/nacl_sdk/pepper_canary/toolchain/mac_pnacl/bin/../arm-nacl/lib/libcrt_common.a(lib_a-vsnprintf.o)
 .data.rel.ro   0x0000000010032ba4        0x4 /Users/jkwang/Desktop/nacl_sdk/pepper_canary/toolchain/mac_pnacl/bin/../arm-nacl/lib/libcrt_common.a(lib_a-vsprintf.o)
 .data.rel.ro   0x0000000010032ba8        0x4 /Users/jkwang/Desktop/nacl_sdk/pepper_canary/toolchain/mac_pnacl/bin/../arm-nacl/lib/libcrt_common.a(lib_a-wcrtomb.o)
 .data.rel.ro   0x0000000010032bac        0x4 /Users/jkwang/Desktop/nacl_sdk/pepper_canary/toolchain/mac_pnacl/bin/../arm-nacl/lib/libcrt_common.a(lib_a-wcsrtombs.o)
 .data.rel.ro   0x0000000010032bb0        0x4 /Users/jkwang/Desktop/nacl_sdk/pepper_canary/toolchain/mac_pnacl/bin/../arm-nacl/lib/libcrt_common.a(lib_a-wsetup.o)
 .data.rel.ro   0x0000000010032bb4        0x4 /Users/jkwang/Desktop/nacl_sdk/pepper_canary/toolchain/mac_pnacl/bin/../arm-nacl/lib/libcrt_common.a(lib_a-fclose.o)
 .data.rel.ro   0x0000000010032bb8        0x4 /Users/jkwang/Desktop/nacl_sdk/pepper_canary/toolchain/mac_pnacl/bin/../arm-nacl/lib/libcrt_common.a(lib_a-locale.o)
 .data.rel.ro   0x0000000010032bbc        0x4 /Users/jkwang/Desktop/nacl_sdk/pepper_canary/toolchain/mac_pnacl/bin/../arm-nacl/lib/libcrt_common.a(lib_a-strtol.o)
 .data.rel.ro   0x0000000010032bc0        0x4 /Users/jkwang/Desktop/nacl_sdk/pepper_canary/toolchain/mac_pnacl/bin/../arm-nacl/lib/libcrt_common.a(lib_a-vfiprintf.o)
 .data.rel.ro   0x0000000010032bc4        0x4 /Users/jkwang/Desktop/nacl_sdk/pepper_canary/toolchain/mac_pnacl/bin/../arm-nacl/lib/libcrt_common.a(lib_a-wcsnrtombs.o)
 .data.rel.ro   0x0000000010032bc8        0x4 /Users/jkwang/Desktop/nacl_sdk/pepper_canary/toolchain/mac_pnacl/bin/../arm-nacl/lib/libcrt_common.a(lib_a-fputwc.o)
 .data.rel.ro   0x0000000010032bcc        0x4 /Users/jkwang/Desktop/nacl_sdk/pepper_canary/toolchain/mac_pnacl/bin/../arm-nacl/lib/libcrt_common.a(lib_a-wbuf.o)

.dynamic
 *(.dynamic)
                0x0000000010032bd0                . = DATA_SEGMENT_RELRO_END (., 0x0)

.got            0x0000000010032bd0       0x14
 *(.got.plt)
 .got.plt       0x0000000010032bd0        0xc /Users/jkwang/Desktop/nacl_sdk/pepper_canary/toolchain/mac_pnacl/bin/../arm-nacl/lib/crti.o
                0x0000000010032bd0                _GLOBAL_OFFSET_TABLE_
 *(.igot.plt)
 .igot.plt      0x0000000010032bdc        0x0 /Users/jkwang/Desktop/nacl_sdk/pepper_canary/toolchain/mac_pnacl/bin/../arm-nacl/lib/crti.o
 *(.got)
 .got           0x0000000010032bdc        0x8 /Users/jkwang/Desktop/nacl_sdk/pepper_canary/toolchain/mac_pnacl/bin/../arm-nacl/lib/crti.o
 *(.igot)

.data           0x0000000010032be8      0x690
                0x0000000010032be8                PROVIDE (__data_start, .)
 *(.data .data.* .gnu.linkonce.d.*)
 .data          0x0000000010032be8        0x0 /Users/jkwang/Desktop/nacl_sdk/pepper_canary/toolchain/mac_pnacl/bin/../arm-nacl/lib/crti.o
 .data          0x0000000010032be8        0x0 /Users/jkwang/Desktop/nacl_sdk/pepper_canary/toolchain/mac_pnacl/bin/../lib/clang/3.7.0/lib/arm-nacl/crtbeginT.o
 .data          0x0000000010032be8       0x18 clang-newlib/Release/debugging_arm.o
 .data          0x0000000010032c00        0x0 /Users/jkwang/Desktop/nacl_sdk/pepper_canary/lib/clang-newlib_arm/Release/liberror_handling.a(error_handling_arm.o)
 .data          0x0000000010032c00        0x0 /Users/jkwang/Desktop/nacl_sdk/pepper_canary/lib/clang-newlib_arm/Release/liberror_handling.a(string_stream_arm.o)
 .data          0x0000000010032c00        0x0 /Users/jkwang/Desktop/nacl_sdk/pepper_canary/toolchain/mac_pnacl/bin/../arm-nacl/lib/libppapi_stub.a(plugin_main_irt.o)
 .data          0x0000000010032c00        0x0 /Users/jkwang/Desktop/nacl_sdk/pepper_canary/toolchain/mac_pnacl/bin/../arm-nacl/lib/libppapi_stub.a(ppapi_plugin_main.o)
 .data          0x0000000010032c00        0x0 /Users/jkwang/Desktop/nacl_sdk/pepper_canary/toolchain/mac_pnacl/bin/../arm-nacl/lib/libppapi_stub.a(ppapi_plugin_start.o)
 .data          0x0000000010032c00        0x0 /Users/jkwang/Desktop/nacl_sdk/pepper_canary/toolchain/mac_pnacl/bin/../arm-nacl/lib/libppapi_stub.a(thread_creator.o)
 .data          0x0000000010032c00        0x4 /Users/jkwang/Desktop/nacl_sdk/pepper_canary/toolchain/mac_pnacl/bin/../arm-nacl/lib/libpthread.a(nc_thread.o)
 .data          0x0000000010032c04        0x0 /Users/jkwang/Desktop/nacl_sdk/pepper_canary/toolchain/mac_pnacl/bin/../arm-nacl/lib/libpthread.a(nc_mutex.o)
 .data          0x0000000010032c04        0x0 /Users/jkwang/Desktop/nacl_sdk/pepper_canary/toolchain/mac_pnacl/bin/../arm-nacl/lib/libpthread.a(nc_condvar.o)
 .data          0x0000000010032c04        0x4 /Users/jkwang/Desktop/nacl_sdk/pepper_canary/toolchain/mac_pnacl/bin/../arm-nacl/lib/libpthread.a(valgrind_annotations.o)
 .data          0x0000000010032c08        0x0 /Users/jkwang/Desktop/nacl_sdk/pepper_canary/toolchain/mac_pnacl/bin/../arm-nacl/lib/libpthread.a(nc_init_irt.o)
 .data          0x0000000010032c08       0x20 /Users/jkwang/Desktop/nacl_sdk/pepper_canary/toolchain/mac_pnacl/bin/../arm-nacl/lib/libnacl.a(nacl_irt.o)
                0x0000000010032c08                __libnacl_irt_fdio
 .data          0x0000000010032c28        0x0 /Users/jkwang/Desktop/nacl_sdk/pepper_canary/toolchain/mac_pnacl/bin/../arm-nacl/lib/libnacl.a(_exit.o)
 .data          0x0000000010032c28        0x0 /Users/jkwang/Desktop/nacl_sdk/pepper_canary/toolchain/mac_pnacl/bin/../arm-nacl/lib/libnacl.a(mmap.o)
 .data          0x0000000010032c28        0x0 /Users/jkwang/Desktop/nacl_sdk/pepper_canary/toolchain/mac_pnacl/bin/../arm-nacl/lib/libnacl.a(munmap.o)
 .data          0x0000000010032c28        0x0 /Users/jkwang/Desktop/nacl_sdk/pepper_canary/toolchain/mac_pnacl/bin/../arm-nacl/lib/libnacl.a(nacl_interface_query.o)
 .data          0x0000000010032c28        0x0 /Users/jkwang/Desktop/nacl_sdk/pepper_canary/toolchain/mac_pnacl/bin/../arm-nacl/lib/libnacl.a(write.o)
 .data          0x0000000010032c28        0x4 /Users/jkwang/Desktop/nacl_sdk/pepper_canary/toolchain/mac_pnacl/bin/../arm-nacl/lib/libnacl.a(environ.o)
                0x0000000010032c28                environ
 .data          0x0000000010032c2c        0x0 /Users/jkwang/Desktop/nacl_sdk/pepper_canary/toolchain/mac_pnacl/bin/../arm-nacl/lib/libnacl.a(malloc.o)
 .data          0x0000000010032c2c        0x0 /Users/jkwang/Desktop/nacl_sdk/pepper_canary/toolchain/mac_pnacl/bin/../arm-nacl/lib/libnacl.a(start.o)
 .data          0x0000000010032c2c        0x0 /Users/jkwang/Desktop/nacl_sdk/pepper_canary/toolchain/mac_pnacl/bin/../arm-nacl/lib/libnacl.a(nacl_read_tp.o)
 .data          0x0000000010032c2c        0x0 /Users/jkwang/Desktop/nacl_sdk/pepper_canary/toolchain/mac_pnacl/bin/../arm-nacl/lib/libnacl.a(pthread_initialize_minimal.o)
 .data          0x0000000010032c2c        0x0 /Users/jkwang/Desktop/nacl_sdk/pepper_canary/toolchain/mac_pnacl/bin/../arm-nacl/lib/libnacl.a(tls.o)
 .data          0x0000000010032c2c        0x0 /Users/jkwang/Desktop/nacl_sdk/pepper_canary/toolchain/mac_pnacl/bin/../arm-nacl/lib/libnacl.a(nacl_irt_init.o)
 .data          0x0000000010032c2c        0x0 /Users/jkwang/Desktop/nacl_sdk/pepper_canary/toolchain/mac_pnacl/bin/../arm-nacl/lib/libnacl.a(nacl_tls_get.o)
 .data          0x0000000010032c2c        0x0 /Users/jkwang/Desktop/nacl_sdk/pepper_canary/toolchain/mac_pnacl/bin/../arm-nacl/lib/libnacl.a(nacl_tls_init.o)
 .data          0x0000000010032c2c        0x0 /Users/jkwang/Desktop/nacl_sdk/pepper_canary/toolchain/mac_pnacl/bin/../arm-nacl/lib/libnacl.a(abort.o)
 .data          0x0000000010032c2c        0x0 /Users/jkwang/Desktop/nacl_sdk/pepper_canary/toolchain/mac_pnacl/bin/../arm-nacl/lib/libnacl.a(sched_yield.o)
 .data          0x0000000010032c2c        0x0 /Users/jkwang/Desktop/nacl_sdk/pepper_canary/toolchain/mac_pnacl/bin/../arm-nacl/lib/libnacl.a(sysconf.o)
 .data          0x0000000010032c2c        0x0 /Users/jkwang/Desktop/nacl_sdk/pepper_canary/toolchain/mac_pnacl/bin/../arm-nacl/lib/libcrt_common.a(lib_a-atexit.o)
 .data          0x0000000010032c2c        0x0 /Users/jkwang/Desktop/nacl_sdk/pepper_canary/toolchain/mac_pnacl/bin/../arm-nacl/lib/libcrt_common.a(lib_a-errno.o)
 .data          0x0000000010032c2c        0x0 /Users/jkwang/Desktop/nacl_sdk/pepper_canary/toolchain/mac_pnacl/bin/../arm-nacl/lib/libcrt_common.a(lib_a-exit.o)
 .data          0x0000000010032c2c        0x0 /Users/jkwang/Desktop/nacl_sdk/pepper_canary/toolchain/mac_pnacl/bin/../arm-nacl/lib/libcrt_common.a(lib_a-fflush.o)
 .data          0x0000000010032c2c        0x0 /Users/jkwang/Desktop/nacl_sdk/pepper_canary/toolchain/mac_pnacl/bin/../arm-nacl/lib/libcrt_common.a(lib_a-findfp.o)
 .data.__sfp_lock
                0x0000000010032c2c       0x14 /Users/jkwang/Desktop/nacl_sdk/pepper_canary/toolchain/mac_pnacl/bin/../arm-nacl/lib/libcrt_common.a(lib_a-findfp.o)
 .data.__sinit_lock
                0x0000000010032c40       0x14 /Users/jkwang/Desktop/nacl_sdk/pepper_canary/toolchain/mac_pnacl/bin/../arm-nacl/lib/libcrt_common.a(lib_a-findfp.o)
 .data          0x0000000010032c54        0x0 /Users/jkwang/Desktop/nacl_sdk/pepper_canary/toolchain/mac_pnacl/bin/../arm-nacl/lib/libcrt_common.a(lib_a-fini.o)
 .data          0x0000000010032c54        0x0 /Users/jkwang/Desktop/nacl_sdk/pepper_canary/toolchain/mac_pnacl/bin/../arm-nacl/lib/libcrt_common.a(lib_a-fprintf.o)
 .data          0x0000000010032c54        0x0 /Users/jkwang/Desktop/nacl_sdk/pepper_canary/toolchain/mac_pnacl/bin/../arm-nacl/lib/libcrt_common.a(lib_a-fwalk.o)
 .data          0x0000000010032c54        0x0 /Users/jkwang/Desktop/nacl_sdk/pepper_canary/toolchain/mac_pnacl/bin/../arm-nacl/lib/libcrt_common.a(lib_a-fwrite.o)
 .data          0x0000000010032c54        0x0 /Users/jkwang/Desktop/nacl_sdk/pepper_canary/toolchain/mac_pnacl/bin/../arm-nacl/lib/libcrt_common.a(lib_a-getenv.o)
 .data          0x0000000010032c54        0x0 /Users/jkwang/Desktop/nacl_sdk/pepper_canary/toolchain/mac_pnacl/bin/../arm-nacl/lib/libcrt_common.a(lib_a-getenv_r.o)
 .data          0x0000000010032c54        0x0 /Users/jkwang/Desktop/nacl_sdk/pepper_canary/toolchain/mac_pnacl/bin/../arm-nacl/lib/libcrt_common.a(lib_a-impure.o)
 *fill*         0x0000000010032c54        0x4 
 .data.global_impure_data
                0x0000000010032c58      0x470 /Users/jkwang/Desktop/nacl_sdk/pepper_canary/toolchain/mac_pnacl/bin/../arm-nacl/lib/libcrt_common.a(lib_a-impure.o)
 .data          0x00000000100330c8        0x0 /Users/jkwang/Desktop/nacl_sdk/pepper_canary/toolchain/mac_pnacl/bin/../arm-nacl/lib/libcrt_common.a(lib_a-init.o)
 .data          0x00000000100330c8        0x0 /Users/jkwang/Desktop/nacl_sdk/pepper_canary/toolchain/mac_pnacl/bin/../arm-nacl/lib/libcrt_common.a(lib_a-memset.o)
 .data          0x00000000100330c8        0x0 /Users/jkwang/Desktop/nacl_sdk/pepper_canary/toolchain/mac_pnacl/bin/../arm-nacl/lib/libcrt_common.a(lib_a-sleep.o)
 .data          0x00000000100330c8        0x0 /Users/jkwang/Desktop/nacl_sdk/pepper_canary/toolchain/mac_pnacl/bin/../arm-nacl/lib/libcrt_common.a(lib_a-stdio.o)
 .data          0x00000000100330c8        0x0 /Users/jkwang/Desktop/nacl_sdk/pepper_canary/toolchain/mac_pnacl/bin/../arm-nacl/lib/libcrt_common.a(lib_a-strcat.o)
 .data          0x00000000100330c8        0x0 /Users/jkwang/Desktop/nacl_sdk/pepper_canary/toolchain/mac_pnacl/bin/../arm-nacl/lib/libcrt_common.a(lib_a-strcmp.o)
 .data          0x00000000100330c8        0x0 /Users/jkwang/Desktop/nacl_sdk/pepper_canary/toolchain/mac_pnacl/bin/../arm-nacl/lib/libcrt_common.a(lib_a-strcpy.o)
 .data          0x00000000100330c8        0x0 /Users/jkwang/Desktop/nacl_sdk/pepper_canary/toolchain/mac_pnacl/bin/../arm-nacl/lib/libcrt_common.a(lib_a-strlen-armv7.o)
 .data          0x00000000100330c8        0x0 /Users/jkwang/Desktop/nacl_sdk/pepper_canary/toolchain/mac_pnacl/bin/../arm-nacl/lib/libcrt_common.a(lib_a-strncmp.o)
 .data          0x00000000100330c8        0x0 /Users/jkwang/Desktop/nacl_sdk/pepper_canary/toolchain/mac_pnacl/bin/../arm-nacl/lib/libcrt_common.a(lib_a-vfprintf.o)
 .data          0x00000000100330c8        0x0 /Users/jkwang/Desktop/nacl_sdk/pepper_canary/toolchain/mac_pnacl/bin/../arm-nacl/lib/libcrt_common.a(lib_a-vsnprintf.o)
 .data          0x00000000100330c8        0x0 /Users/jkwang/Desktop/nacl_sdk/pepper_canary/toolchain/mac_pnacl/bin/../arm-nacl/lib/libcrt_common.a(lib_a-vsprintf.o)
 .data          0x00000000100330c8        0x0 /Users/jkwang/Desktop/nacl_sdk/pepper_canary/toolchain/mac_pnacl/bin/../arm-nacl/lib/libcrt_common.a(lib_a-wcrtomb.o)
 .data          0x00000000100330c8        0x0 /Users/jkwang/Desktop/nacl_sdk/pepper_canary/toolchain/mac_pnacl/bin/../arm-nacl/lib/libcrt_common.a(lib_a-wcsrtombs.o)
 .data          0x00000000100330c8        0x0 /Users/jkwang/Desktop/nacl_sdk/pepper_canary/toolchain/mac_pnacl/bin/../arm-nacl/lib/libcrt_common.a(lib_a-wctomb_r.o)
 .data.__wctomb
                0x00000000100330c8        0x4 /Users/jkwang/Desktop/nacl_sdk/pepper_canary/toolchain/mac_pnacl/bin/../arm-nacl/lib/libcrt_common.a(lib_a-wctomb_r.o)
                0x00000000100330c8                __wctomb
 .data          0x00000000100330cc        0x0 /Users/jkwang/Desktop/nacl_sdk/pepper_canary/toolchain/mac_pnacl/bin/../arm-nacl/lib/libcrt_common.a(lib_a-wsetup.o)
 .data          0x00000000100330cc        0x0 /Users/jkwang/Desktop/nacl_sdk/pepper_canary/toolchain/mac_pnacl/bin/../arm-nacl/lib/libcrt_common.a(lib_a-__atexit.o)
 .data          0x00000000100330cc        0x0 /Users/jkwang/Desktop/nacl_sdk/pepper_canary/toolchain/mac_pnacl/bin/../arm-nacl/lib/libcrt_common.a(lib_a-__call_atexit.o)
 .data.__atexit_lock
                0x00000000100330cc       0x14 /Users/jkwang/Desktop/nacl_sdk/pepper_canary/toolchain/mac_pnacl/bin/../arm-nacl/lib/libcrt_common.a(lib_a-__call_atexit.o)
                0x00000000100330cc                __atexit_lock
 .data          0x00000000100330e0        0x0 /Users/jkwang/Desktop/nacl_sdk/pepper_canary/toolchain/mac_pnacl/bin/../arm-nacl/lib/libcrt_common.a(lib_a-dtoa.o)
 .data          0x00000000100330e0        0x0 /Users/jkwang/Desktop/nacl_sdk/pepper_canary/toolchain/mac_pnacl/bin/../arm-nacl/lib/libcrt_common.a(lib_a-envlock.o)
 .data.__env_lock_object
                0x00000000100330e0       0x14 /Users/jkwang/Desktop/nacl_sdk/pepper_canary/toolchain/mac_pnacl/bin/../arm-nacl/lib/libcrt_common.a(lib_a-envlock.o)
 .data          0x00000000100330f4        0x0 /Users/jkwang/Desktop/nacl_sdk/pepper_canary/toolchain/mac_pnacl/bin/../arm-nacl/lib/libcrt_common.a(lib_a-fclose.o)
 .data          0x00000000100330f4        0x0 /Users/jkwang/Desktop/nacl_sdk/pepper_canary/toolchain/mac_pnacl/bin/../arm-nacl/lib/libcrt_common.a(lib_a-fvwrite.o)
 .data          0x00000000100330f4        0x0 /Users/jkwang/Desktop/nacl_sdk/pepper_canary/toolchain/mac_pnacl/bin/../arm-nacl/lib/libcrt_common.a(lib_a-locale.o)
 .data.__mb_cur_max
                0x00000000100330f4        0x4 /Users/jkwang/Desktop/nacl_sdk/pepper_canary/toolchain/mac_pnacl/bin/../arm-nacl/lib/libcrt_common.a(lib_a-locale.o)
                0x00000000100330f4                __mb_cur_max
 .data.__default_locale
                0x00000000100330f8       0x20 /Users/jkwang/Desktop/nacl_sdk/pepper_canary/toolchain/mac_pnacl/bin/../arm-nacl/lib/libcrt_common.a(lib_a-locale.o)
                0x00000000100330f8                __default_locale
 .data.current_categories
                0x0000000010033118       0xe0 /Users/jkwang/Desktop/nacl_sdk/pepper_canary/toolchain/mac_pnacl/bin/../arm-nacl/lib/libcrt_common.a(lib_a-locale.o)
 .data.lc_ctype_charset
                0x00000000100331f8       0x20 /Users/jkwang/Desktop/nacl_sdk/pepper_canary/toolchain/mac_pnacl/bin/../arm-nacl/lib/libcrt_common.a(lib_a-locale.o)
 .data.lc_message_charset
                0x0000000010033218       0x20 /Users/jkwang/Desktop/nacl_sdk/pepper_canary/toolchain/mac_pnacl/bin/../arm-nacl/lib/libcrt_common.a(lib_a-locale.o)
 .data.lconv    0x0000000010033238       0x38 /Users/jkwang/Desktop/nacl_sdk/pepper_canary/toolchain/mac_pnacl/bin/../arm-nacl/lib/libcrt_common.a(lib_a-locale.o)
 .data          0x0000000010033270        0x0 /Users/jkwang/Desktop/nacl_sdk/pepper_canary/toolchain/mac_pnacl/bin/../arm-nacl/lib/libcrt_common.a(lib_a-makebuf.o)
 .data          0x0000000010033270        0x0 /Users/jkwang/Desktop/nacl_sdk/pepper_canary/toolchain/mac_pnacl/bin/../arm-nacl/lib/libcrt_common.a(lib_a-mbtowc_r.o)
 .data.__mbtowc
                0x0000000010033270        0x4 /Users/jkwang/Desktop/nacl_sdk/pepper_canary/toolchain/mac_pnacl/bin/../arm-nacl/lib/libcrt_common.a(lib_a-mbtowc_r.o)
                0x0000000010033270                __mbtowc
 .data          0x0000000010033274        0x0 /Users/jkwang/Desktop/nacl_sdk/pepper_canary/toolchain/mac_pnacl/bin/../arm-nacl/lib/libcrt_common.a(lib_a-memchr.o)
 .data          0x0000000010033274        0x0 /Users/jkwang/Desktop/nacl_sdk/pepper_canary/toolchain/mac_pnacl/bin/../arm-nacl/lib/libcrt_common.a(lib_a-memcpy.o)
 .data          0x0000000010033274        0x0 /Users/jkwang/Desktop/nacl_sdk/pepper_canary/toolchain/mac_pnacl/bin/../arm-nacl/lib/libcrt_common.a(lib_a-memmove.o)
 .data          0x0000000010033274        0x0 /Users/jkwang/Desktop/nacl_sdk/pepper_canary/toolchain/mac_pnacl/bin/../arm-nacl/lib/libcrt_common.a(lib_a-mprec.o)
 .data          0x0000000010033274        0x0 /Users/jkwang/Desktop/nacl_sdk/pepper_canary/toolchain/mac_pnacl/bin/../arm-nacl/lib/libcrt_common.a(lib_a-s_fpclassify.o)
 .data          0x0000000010033274        0x0 /Users/jkwang/Desktop/nacl_sdk/pepper_canary/toolchain/mac_pnacl/bin/../arm-nacl/lib/libcrt_common.a(lib_a-s_frexp.o)
 .data          0x0000000010033274        0x0 /Users/jkwang/Desktop/nacl_sdk/pepper_canary/toolchain/mac_pnacl/bin/../arm-nacl/lib/libcrt_common.a(lib_a-strcasecmp.o)
 .data          0x0000000010033274        0x0 /Users/jkwang/Desktop/nacl_sdk/pepper_canary/toolchain/mac_pnacl/bin/../arm-nacl/lib/libcrt_common.a(lib_a-strchr.o)
 .data          0x0000000010033274        0x0 /Users/jkwang/Desktop/nacl_sdk/pepper_canary/toolchain/mac_pnacl/bin/../arm-nacl/lib/libcrt_common.a(lib_a-strlcpy.o)
 .data          0x0000000010033274        0x0 /Users/jkwang/Desktop/nacl_sdk/pepper_canary/toolchain/mac_pnacl/bin/../arm-nacl/lib/libcrt_common.a(lib_a-strncasecmp.o)
 .data          0x0000000010033274        0x0 /Users/jkwang/Desktop/nacl_sdk/pepper_canary/toolchain/mac_pnacl/bin/../arm-nacl/lib/libcrt_common.a(lib_a-strncpy.o)
 .data          0x0000000010033274        0x0 /Users/jkwang/Desktop/nacl_sdk/pepper_canary/toolchain/mac_pnacl/bin/../arm-nacl/lib/libcrt_common.a(lib_a-strtol.o)
 .data          0x0000000010033274        0x0 /Users/jkwang/Desktop/nacl_sdk/pepper_canary/toolchain/mac_pnacl/bin/../arm-nacl/lib/libcrt_common.a(lib_a-svfprintf.o)
 .data          0x0000000010033274        0x0 /Users/jkwang/Desktop/nacl_sdk/pepper_canary/toolchain/mac_pnacl/bin/../arm-nacl/lib/libcrt_common.a(lib_a-vfiprintf.o)
 .data          0x0000000010033274        0x0 /Users/jkwang/Desktop/nacl_sdk/pepper_canary/toolchain/mac_pnacl/bin/../arm-nacl/lib/libcrt_common.a(lib_a-wcsnrtombs.o)
 .data          0x0000000010033274        0x0 /Users/jkwang/Desktop/nacl_sdk/pepper_canary/toolchain/mac_pnacl/bin/../arm-nacl/lib/libcrt_common.a(lib_a-ctype_.o)
 .data.__ctype_ptr__
                0x0000000010033274        0x4 /Users/jkwang/Desktop/nacl_sdk/pepper_canary/toolchain/mac_pnacl/bin/../arm-nacl/lib/libcrt_common.a(lib_a-ctype_.o)
                0x0000000010033274                __ctype_ptr__
 .data          0x0000000010033278        0x0 /Users/jkwang/Desktop/nacl_sdk/pepper_canary/toolchain/mac_pnacl/bin/../arm-nacl/lib/libcrt_common.a(lib_a-fputwc.o)
 .data          0x0000000010033278        0x0 /Users/jkwang/Desktop/nacl_sdk/pepper_canary/toolchain/mac_pnacl/bin/../arm-nacl/lib/libcrt_common.a(lib_a-svfiprintf.o)
 .data          0x0000000010033278        0x0 /Users/jkwang/Desktop/nacl_sdk/pepper_canary/toolchain/mac_pnacl/bin/../arm-nacl/lib/libcrt_common.a(lib_a-wbuf.o)
 .data          0x0000000010033278        0x0 /Users/jkwang/Desktop/nacl_sdk/pepper_canary/toolchain/mac_pnacl/bin/../arm-nacl/lib/libnacl.a(close.o)
 .data          0x0000000010033278        0x0 /Users/jkwang/Desktop/nacl_sdk/pepper_canary/toolchain/mac_pnacl/bin/../arm-nacl/lib/libnacl.a(fstat.o)
 .data          0x0000000010033278        0x0 /Users/jkwang/Desktop/nacl_sdk/pepper_canary/toolchain/mac_pnacl/bin/../arm-nacl/lib/libnacl.a(isatty.o)
 .data          0x0000000010033278        0x0 /Users/jkwang/Desktop/nacl_sdk/pepper_canary/toolchain/mac_pnacl/bin/../arm-nacl/lib/libnacl.a(lseek.o)
 .data          0x0000000010033278        0x0 /Users/jkwang/Desktop/nacl_sdk/pepper_canary/toolchain/mac_pnacl/bin/../arm-nacl/lib/libnacl.a(nanosleep.o)
 .data          0x0000000010033278        0x0 /Users/jkwang/Desktop/nacl_sdk/pepper_canary/toolchain/mac_pnacl/bin/../arm-nacl/lib/libnacl.a(nacl_irt_fdio.o)
 .data          0x0000000010033278        0x0 /Users/jkwang/Desktop/nacl_sdk/pepper_canary/toolchain/mac_pnacl/bin/../arm-nacl/lib/libnacl.a(read.o)
 .data          0x0000000010033278        0x0 /Users/jkwang/Desktop/nacl_sdk/pepper_canary/toolchain/mac_pnacl/bin/../lib/clang/3.7.0/lib/arm-nacl/libgcc.a(aeabi_memcpy.o)
 .data          0x0000000010033278        0x0 /Users/jkwang/Desktop/nacl_sdk/pepper_canary/toolchain/mac_pnacl/bin/../lib/clang/3.7.0/lib/arm-nacl/libgcc.a(aeabi_memset.o)
 .data          0x0000000010033278        0x0 /Users/jkwang/Desktop/nacl_sdk/pepper_canary/toolchain/mac_pnacl/bin/../lib/clang/3.7.0/lib/arm-nacl/libgcc.a(aeabi_uldivmod.o)
 .data          0x0000000010033278        0x0 /Users/jkwang/Desktop/nacl_sdk/pepper_canary/toolchain/mac_pnacl/bin/../lib/clang/3.7.0/lib/arm-nacl/libgcc.a(modsi3.o)
 .data          0x0000000010033278        0x0 /Users/jkwang/Desktop/nacl_sdk/pepper_canary/toolchain/mac_pnacl/bin/../lib/clang/3.7.0/lib/arm-nacl/libgcc.a(udivmoddi4.o)
 .data          0x0000000010033278        0x0 /Users/jkwang/Desktop/nacl_sdk/pepper_canary/toolchain/mac_pnacl/bin/../lib/clang/3.7.0/lib/arm-nacl/libgcc.a(udivsi3.o)
 .data          0x0000000010033278        0x0 /Users/jkwang/Desktop/nacl_sdk/pepper_canary/toolchain/mac_pnacl/bin/../lib/clang/3.7.0/lib/arm-nacl/libgcc.a(umoddi3.o)
 .data          0x0000000010033278        0x0 /Users/jkwang/Desktop/nacl_sdk/pepper_canary/toolchain/mac_pnacl/bin/../lib/clang/3.7.0/lib/arm-nacl/libgcc.a(umodsi3.o)
 .data          0x0000000010033278        0x0 /Users/jkwang/Desktop/nacl_sdk/pepper_canary/toolchain/mac_pnacl/bin/../lib/clang/3.7.0/lib/arm-nacl/libgcc.a(divsi3.o)
 .data          0x0000000010033278        0x0 /Users/jkwang/Desktop/nacl_sdk/pepper_canary/toolchain/mac_pnacl/bin/../lib/clang/3.7.0/lib/arm-nacl/libgcc_eh.a(unwind-dw2-fde-glibc.o)
 .data          0x0000000010033278        0x0 /Users/jkwang/Desktop/nacl_sdk/pepper_canary/toolchain/mac_pnacl/bin/../lib/clang/3.7.0/lib/arm-nacl/crtend.o
 .data          0x0000000010033278        0x0 /Users/jkwang/Desktop/nacl_sdk/pepper_canary/toolchain/mac_pnacl/bin/../arm-nacl/lib/crtn.o

.data1
 *(.data1)
                0x0000000010033278                _edata = .
                0x0000000010033278                PROVIDE (edata, .)
                0x0000000010033278                . = .
                0x0000000010033278                __bss_start = .
                0x0000000010033278                __bss_start__ = .

.bss            0x0000000010033278     0x164c
 *(.dynbss)
 *(.bss .bss.* .gnu.linkonce.b.*)
 .bss           0x0000000010033278        0x0 /Users/jkwang/Desktop/nacl_sdk/pepper_canary/toolchain/mac_pnacl/bin/../arm-nacl/lib/crti.o
 .bss           0x0000000010033278       0x48 /Users/jkwang/Desktop/nacl_sdk/pepper_canary/toolchain/mac_pnacl/bin/../lib/clang/3.7.0/lib/arm-nacl/crtbeginT.o
                0x0000000010033278                __dso_handle
 .bss           0x00000000100332c0       0x10 clang-newlib/Release/debugging_arm.o
                0x00000000100332c0                ppb_messaging_interface
                0x00000000100332c4                ppb_var_interface
                0x00000000100332c8                ppb_core_interface
                0x00000000100332cc                g_CrashTime
 .bss           0x00000000100332d0       0x18 /Users/jkwang/Desktop/nacl_sdk/pepper_canary/lib/clang-newlib_arm/Release/liberror_handling.a(error_handling_arm.o)
 .bss           0x00000000100332e8        0x0 /Users/jkwang/Desktop/nacl_sdk/pepper_canary/lib/clang-newlib_arm/Release/liberror_handling.a(string_stream_arm.o)
 .bss           0x00000000100332e8        0x0 /Users/jkwang/Desktop/nacl_sdk/pepper_canary/toolchain/mac_pnacl/bin/../arm-nacl/lib/libppapi_stub.a(plugin_main_irt.o)
 .bss           0x00000000100332e8        0x0 /Users/jkwang/Desktop/nacl_sdk/pepper_canary/toolchain/mac_pnacl/bin/../arm-nacl/lib/libppapi_stub.a(ppapi_plugin_main.o)
 .bss           0x00000000100332e8        0x0 /Users/jkwang/Desktop/nacl_sdk/pepper_canary/toolchain/mac_pnacl/bin/../arm-nacl/lib/libppapi_stub.a(ppapi_plugin_start.o)
 .bss           0x00000000100332e8        0x0 /Users/jkwang/Desktop/nacl_sdk/pepper_canary/toolchain/mac_pnacl/bin/../arm-nacl/lib/libppapi_stub.a(thread_creator.o)
 .bss           0x00000000100332e8     0x1028 /Users/jkwang/Desktop/nacl_sdk/pepper_canary/toolchain/mac_pnacl/bin/../arm-nacl/lib/libpthread.a(nc_thread.o)
 .bss           0x0000000010034310        0x0 /Users/jkwang/Desktop/nacl_sdk/pepper_canary/toolchain/mac_pnacl/bin/../arm-nacl/lib/libpthread.a(nc_mutex.o)
 .bss           0x0000000010034310        0x0 /Users/jkwang/Desktop/nacl_sdk/pepper_canary/toolchain/mac_pnacl/bin/../arm-nacl/lib/libpthread.a(nc_condvar.o)
 .bss           0x0000000010034310        0x0 /Users/jkwang/Desktop/nacl_sdk/pepper_canary/toolchain/mac_pnacl/bin/../arm-nacl/lib/libpthread.a(valgrind_annotations.o)
 .bss           0x0000000010034310        0x0 /Users/jkwang/Desktop/nacl_sdk/pepper_canary/toolchain/mac_pnacl/bin/../arm-nacl/lib/libpthread.a(nc_init_irt.o)
 .bss           0x0000000010034310        0x0 /Users/jkwang/Desktop/nacl_sdk/pepper_canary/toolchain/mac_pnacl/bin/../arm-nacl/lib/libnacl.a(nacl_irt.o)
 .bss           0x0000000010034310        0x0 /Users/jkwang/Desktop/nacl_sdk/pepper_canary/toolchain/mac_pnacl/bin/../arm-nacl/lib/libnacl.a(_exit.o)
 .bss           0x0000000010034310        0x0 /Users/jkwang/Desktop/nacl_sdk/pepper_canary/toolchain/mac_pnacl/bin/../arm-nacl/lib/libnacl.a(mmap.o)
 .bss           0x0000000010034310        0x0 /Users/jkwang/Desktop/nacl_sdk/pepper_canary/toolchain/mac_pnacl/bin/../arm-nacl/lib/libnacl.a(munmap.o)
 .bss           0x0000000010034310        0x0 /Users/jkwang/Desktop/nacl_sdk/pepper_canary/toolchain/mac_pnacl/bin/../arm-nacl/lib/libnacl.a(nacl_interface_query.o)
 .bss           0x0000000010034310        0x0 /Users/jkwang/Desktop/nacl_sdk/pepper_canary/toolchain/mac_pnacl/bin/../arm-nacl/lib/libnacl.a(write.o)
 .bss           0x0000000010034310        0x4 /Users/jkwang/Desktop/nacl_sdk/pepper_canary/toolchain/mac_pnacl/bin/../arm-nacl/lib/libnacl.a(environ.o)
 .bss           0x0000000010034314      0x1f8 /Users/jkwang/Desktop/nacl_sdk/pepper_canary/toolchain/mac_pnacl/bin/../arm-nacl/lib/libnacl.a(malloc.o)
 .bss           0x000000001003450c        0x0 /Users/jkwang/Desktop/nacl_sdk/pepper_canary/toolchain/mac_pnacl/bin/../arm-nacl/lib/libnacl.a(start.o)
 .bss           0x000000001003450c        0x0 /Users/jkwang/Desktop/nacl_sdk/pepper_canary/toolchain/mac_pnacl/bin/../arm-nacl/lib/libnacl.a(nacl_read_tp.o)
 .bss           0x000000001003450c        0x0 /Users/jkwang/Desktop/nacl_sdk/pepper_canary/toolchain/mac_pnacl/bin/../arm-nacl/lib/libnacl.a(pthread_initialize_minimal.o)
 .bss           0x000000001003450c       0x14 /Users/jkwang/Desktop/nacl_sdk/pepper_canary/toolchain/mac_pnacl/bin/../arm-nacl/lib/libnacl.a(tls.o)
 .bss           0x0000000010034520        0x0 /Users/jkwang/Desktop/nacl_sdk/pepper_canary/toolchain/mac_pnacl/bin/../arm-nacl/lib/libnacl.a(nacl_irt_init.o)
 .bss           0x0000000010034520        0x0 /Users/jkwang/Desktop/nacl_sdk/pepper_canary/toolchain/mac_pnacl/bin/../arm-nacl/lib/libnacl.a(nacl_tls_get.o)
 .bss           0x0000000010034520        0x0 /Users/jkwang/Desktop/nacl_sdk/pepper_canary/toolchain/mac_pnacl/bin/../arm-nacl/lib/libnacl.a(nacl_tls_init.o)
 .bss           0x0000000010034520        0x0 /Users/jkwang/Desktop/nacl_sdk/pepper_canary/toolchain/mac_pnacl/bin/../arm-nacl/lib/libnacl.a(abort.o)
 .bss           0x0000000010034520        0x0 /Users/jkwang/Desktop/nacl_sdk/pepper_canary/toolchain/mac_pnacl/bin/../arm-nacl/lib/libnacl.a(sched_yield.o)
 .bss           0x0000000010034520        0x0 /Users/jkwang/Desktop/nacl_sdk/pepper_canary/toolchain/mac_pnacl/bin/../arm-nacl/lib/libnacl.a(sysconf.o)
 .bss           0x0000000010034520        0x0 /Users/jkwang/Desktop/nacl_sdk/pepper_canary/toolchain/mac_pnacl/bin/../arm-nacl/lib/libcrt_common.a(lib_a-atexit.o)
 .bss           0x0000000010034520        0x0 /Users/jkwang/Desktop/nacl_sdk/pepper_canary/toolchain/mac_pnacl/bin/../arm-nacl/lib/libcrt_common.a(lib_a-errno.o)
 .bss           0x0000000010034520        0x0 /Users/jkwang/Desktop/nacl_sdk/pepper_canary/toolchain/mac_pnacl/bin/../arm-nacl/lib/libcrt_common.a(lib_a-exit.o)
 .bss           0x0000000010034520        0x0 /Users/jkwang/Desktop/nacl_sdk/pepper_canary/toolchain/mac_pnacl/bin/../arm-nacl/lib/libcrt_common.a(lib_a-fflush.o)
 .bss           0x0000000010034520        0x0 /Users/jkwang/Desktop/nacl_sdk/pepper_canary/toolchain/mac_pnacl/bin/../arm-nacl/lib/libcrt_common.a(lib_a-findfp.o)
 .bss           0x0000000010034520        0x0 /Users/jkwang/Desktop/nacl_sdk/pepper_canary/toolchain/mac_pnacl/bin/../arm-nacl/lib/libcrt_common.a(lib_a-fini.o)
 .bss           0x0000000010034520        0x0 /Users/jkwang/Desktop/nacl_sdk/pepper_canary/toolchain/mac_pnacl/bin/../arm-nacl/lib/libcrt_common.a(lib_a-fprintf.o)
 .bss           0x0000000010034520        0x0 /Users/jkwang/Desktop/nacl_sdk/pepper_canary/toolchain/mac_pnacl/bin/../arm-nacl/lib/libcrt_common.a(lib_a-fwalk.o)
 .bss           0x0000000010034520        0x0 /Users/jkwang/Desktop/nacl_sdk/pepper_canary/toolchain/mac_pnacl/bin/../arm-nacl/lib/libcrt_common.a(lib_a-fwrite.o)
 .bss           0x0000000010034520        0x0 /Users/jkwang/Desktop/nacl_sdk/pepper_canary/toolchain/mac_pnacl/bin/../arm-nacl/lib/libcrt_common.a(lib_a-getenv.o)
 .bss           0x0000000010034520        0x0 /Users/jkwang/Desktop/nacl_sdk/pepper_canary/toolchain/mac_pnacl/bin/../arm-nacl/lib/libcrt_common.a(lib_a-getenv_r.o)
 .bss           0x0000000010034520        0x0 /Users/jkwang/Desktop/nacl_sdk/pepper_canary/toolchain/mac_pnacl/bin/../arm-nacl/lib/libcrt_common.a(lib_a-impure.o)
 .bss           0x0000000010034520        0x0 /Users/jkwang/Desktop/nacl_sdk/pepper_canary/toolchain/mac_pnacl/bin/../arm-nacl/lib/libcrt_common.a(lib_a-init.o)
 .bss           0x0000000010034520        0x0 /Users/jkwang/Desktop/nacl_sdk/pepper_canary/toolchain/mac_pnacl/bin/../arm-nacl/lib/libcrt_common.a(lib_a-memset.o)
 .bss           0x0000000010034520        0x0 /Users/jkwang/Desktop/nacl_sdk/pepper_canary/toolchain/mac_pnacl/bin/../arm-nacl/lib/libcrt_common.a(lib_a-sleep.o)
 .bss           0x0000000010034520        0x0 /Users/jkwang/Desktop/nacl_sdk/pepper_canary/toolchain/mac_pnacl/bin/../arm-nacl/lib/libcrt_common.a(lib_a-stdio.o)
 .bss           0x0000000010034520        0x0 /Users/jkwang/Desktop/nacl_sdk/pepper_canary/toolchain/mac_pnacl/bin/../arm-nacl/lib/libcrt_common.a(lib_a-strcat.o)
 .bss           0x0000000010034520        0x0 /Users/jkwang/Desktop/nacl_sdk/pepper_canary/toolchain/mac_pnacl/bin/../arm-nacl/lib/libcrt_common.a(lib_a-strcmp.o)
 .bss           0x0000000010034520        0x0 /Users/jkwang/Desktop/nacl_sdk/pepper_canary/toolchain/mac_pnacl/bin/../arm-nacl/lib/libcrt_common.a(lib_a-strcpy.o)
 .bss           0x0000000010034520        0x0 /Users/jkwang/Desktop/nacl_sdk/pepper_canary/toolchain/mac_pnacl/bin/../arm-nacl/lib/libcrt_common.a(lib_a-strlen-armv7.o)
 .bss           0x0000000010034520        0x0 /Users/jkwang/Desktop/nacl_sdk/pepper_canary/toolchain/mac_pnacl/bin/../arm-nacl/lib/libcrt_common.a(lib_a-strncmp.o)
 .bss           0x0000000010034520        0x0 /Users/jkwang/Desktop/nacl_sdk/pepper_canary/toolchain/mac_pnacl/bin/../arm-nacl/lib/libcrt_common.a(lib_a-vfprintf.o)
 .bss           0x0000000010034520        0x0 /Users/jkwang/Desktop/nacl_sdk/pepper_canary/toolchain/mac_pnacl/bin/../arm-nacl/lib/libcrt_common.a(lib_a-vsnprintf.o)
 .bss           0x0000000010034520        0x0 /Users/jkwang/Desktop/nacl_sdk/pepper_canary/toolchain/mac_pnacl/bin/../arm-nacl/lib/libcrt_common.a(lib_a-vsprintf.o)
 .bss           0x0000000010034520        0x0 /Users/jkwang/Desktop/nacl_sdk/pepper_canary/toolchain/mac_pnacl/bin/../arm-nacl/lib/libcrt_common.a(lib_a-wcrtomb.o)
 .bss           0x0000000010034520        0x0 /Users/jkwang/Desktop/nacl_sdk/pepper_canary/toolchain/mac_pnacl/bin/../arm-nacl/lib/libcrt_common.a(lib_a-wcsrtombs.o)
 .bss           0x0000000010034520        0x0 /Users/jkwang/Desktop/nacl_sdk/pepper_canary/toolchain/mac_pnacl/bin/../arm-nacl/lib/libcrt_common.a(lib_a-wctomb_r.o)
 .bss           0x0000000010034520        0x0 /Users/jkwang/Desktop/nacl_sdk/pepper_canary/toolchain/mac_pnacl/bin/../arm-nacl/lib/libcrt_common.a(lib_a-wsetup.o)
 .bss           0x0000000010034520        0x0 /Users/jkwang/Desktop/nacl_sdk/pepper_canary/toolchain/mac_pnacl/bin/../arm-nacl/lib/libcrt_common.a(lib_a-__atexit.o)
 .bss           0x0000000010034520        0x0 /Users/jkwang/Desktop/nacl_sdk/pepper_canary/toolchain/mac_pnacl/bin/../arm-nacl/lib/libcrt_common.a(lib_a-__call_atexit.o)
 .bss           0x0000000010034520        0x0 /Users/jkwang/Desktop/nacl_sdk/pepper_canary/toolchain/mac_pnacl/bin/../arm-nacl/lib/libcrt_common.a(lib_a-dtoa.o)
 .bss           0x0000000010034520        0x0 /Users/jkwang/Desktop/nacl_sdk/pepper_canary/toolchain/mac_pnacl/bin/../arm-nacl/lib/libcrt_common.a(lib_a-envlock.o)
 .bss           0x0000000010034520        0x0 /Users/jkwang/Desktop/nacl_sdk/pepper_canary/toolchain/mac_pnacl/bin/../arm-nacl/lib/libcrt_common.a(lib_a-fclose.o)
 .bss           0x0000000010034520        0x0 /Users/jkwang/Desktop/nacl_sdk/pepper_canary/toolchain/mac_pnacl/bin/../arm-nacl/lib/libcrt_common.a(lib_a-fvwrite.o)
 .bss           0x0000000010034520      0x2ac /Users/jkwang/Desktop/nacl_sdk/pepper_canary/toolchain/mac_pnacl/bin/../arm-nacl/lib/libcrt_common.a(lib_a-locale.o)
 .bss.__nlocale_changed
                0x00000000100347cc        0x4 /Users/jkwang/Desktop/nacl_sdk/pepper_canary/toolchain/mac_pnacl/bin/../arm-nacl/lib/libcrt_common.a(lib_a-locale.o)
                0x00000000100347cc                __nlocale_changed
 .bss.__mlocale_changed
                0x00000000100347d0        0x4 /Users/jkwang/Desktop/nacl_sdk/pepper_canary/toolchain/mac_pnacl/bin/../arm-nacl/lib/libcrt_common.a(lib_a-locale.o)
                0x00000000100347d0                __mlocale_changed
 .bss._PathLocale
                0x00000000100347d4        0x4 /Users/jkwang/Desktop/nacl_sdk/pepper_canary/toolchain/mac_pnacl/bin/../arm-nacl/lib/libcrt_common.a(lib_a-locale.o)
                0x00000000100347d4                _PathLocale
 .bss           0x00000000100347d8        0x0 /Users/jkwang/Desktop/nacl_sdk/pepper_canary/toolchain/mac_pnacl/bin/../arm-nacl/lib/libcrt_common.a(lib_a-makebuf.o)
 .bss           0x00000000100347d8        0x0 /Users/jkwang/Desktop/nacl_sdk/pepper_canary/toolchain/mac_pnacl/bin/../arm-nacl/lib/libcrt_common.a(lib_a-mbtowc_r.o)
 .bss           0x00000000100347d8        0x0 /Users/jkwang/Desktop/nacl_sdk/pepper_canary/toolchain/mac_pnacl/bin/../arm-nacl/lib/libcrt_common.a(lib_a-memchr.o)
 .bss           0x00000000100347d8        0x0 /Users/jkwang/Desktop/nacl_sdk/pepper_canary/toolchain/mac_pnacl/bin/../arm-nacl/lib/libcrt_common.a(lib_a-memcpy.o)
 .bss           0x00000000100347d8        0x0 /Users/jkwang/Desktop/nacl_sdk/pepper_canary/toolchain/mac_pnacl/bin/../arm-nacl/lib/libcrt_common.a(lib_a-memmove.o)
 .bss           0x00000000100347d8        0x0 /Users/jkwang/Desktop/nacl_sdk/pepper_canary/toolchain/mac_pnacl/bin/../arm-nacl/lib/libcrt_common.a(lib_a-mprec.o)
 .bss           0x00000000100347d8        0x0 /Users/jkwang/Desktop/nacl_sdk/pepper_canary/toolchain/mac_pnacl/bin/../arm-nacl/lib/libcrt_common.a(lib_a-s_fpclassify.o)
 .bss           0x00000000100347d8        0x0 /Users/jkwang/Desktop/nacl_sdk/pepper_canary/toolchain/mac_pnacl/bin/../arm-nacl/lib/libcrt_common.a(lib_a-s_frexp.o)
 .bss           0x00000000100347d8        0x0 /Users/jkwang/Desktop/nacl_sdk/pepper_canary/toolchain/mac_pnacl/bin/../arm-nacl/lib/libcrt_common.a(lib_a-strcasecmp.o)
 .bss           0x00000000100347d8        0x0 /Users/jkwang/Desktop/nacl_sdk/pepper_canary/toolchain/mac_pnacl/bin/../arm-nacl/lib/libcrt_common.a(lib_a-strchr.o)
 .bss           0x00000000100347d8        0x0 /Users/jkwang/Desktop/nacl_sdk/pepper_canary/toolchain/mac_pnacl/bin/../arm-nacl/lib/libcrt_common.a(lib_a-strlcpy.o)
 .bss           0x00000000100347d8        0x0 /Users/jkwang/Desktop/nacl_sdk/pepper_canary/toolchain/mac_pnacl/bin/../arm-nacl/lib/libcrt_common.a(lib_a-strncasecmp.o)
 .bss           0x00000000100347d8        0x0 /Users/jkwang/Desktop/nacl_sdk/pepper_canary/toolchain/mac_pnacl/bin/../arm-nacl/lib/libcrt_common.a(lib_a-strncpy.o)
 .bss           0x00000000100347d8        0x0 /Users/jkwang/Desktop/nacl_sdk/pepper_canary/toolchain/mac_pnacl/bin/../arm-nacl/lib/libcrt_common.a(lib_a-strtol.o)
 .bss           0x00000000100347d8        0x0 /Users/jkwang/Desktop/nacl_sdk/pepper_canary/toolchain/mac_pnacl/bin/../arm-nacl/lib/libcrt_common.a(lib_a-svfprintf.o)
 .bss           0x00000000100347d8        0x0 /Users/jkwang/Desktop/nacl_sdk/pepper_canary/toolchain/mac_pnacl/bin/../arm-nacl/lib/libcrt_common.a(lib_a-vfiprintf.o)
 .bss           0x00000000100347d8        0x0 /Users/jkwang/Desktop/nacl_sdk/pepper_canary/toolchain/mac_pnacl/bin/../arm-nacl/lib/libcrt_common.a(lib_a-wcsnrtombs.o)
 .bss           0x00000000100347d8        0x0 /Users/jkwang/Desktop/nacl_sdk/pepper_canary/toolchain/mac_pnacl/bin/../arm-nacl/lib/libcrt_common.a(lib_a-ctype_.o)
 .bss           0x00000000100347d8        0x0 /Users/jkwang/Desktop/nacl_sdk/pepper_canary/toolchain/mac_pnacl/bin/../arm-nacl/lib/libcrt_common.a(lib_a-fputwc.o)
 .bss           0x00000000100347d8        0x0 /Users/jkwang/Desktop/nacl_sdk/pepper_canary/toolchain/mac_pnacl/bin/../arm-nacl/lib/libcrt_common.a(lib_a-svfiprintf.o)
 .bss           0x00000000100347d8        0x0 /Users/jkwang/Desktop/nacl_sdk/pepper_canary/toolchain/mac_pnacl/bin/../arm-nacl/lib/libcrt_common.a(lib_a-wbuf.o)
 .bss           0x00000000100347d8        0x0 /Users/jkwang/Desktop/nacl_sdk/pepper_canary/toolchain/mac_pnacl/bin/../arm-nacl/lib/libnacl.a(close.o)
 .bss           0x00000000100347d8        0x0 /Users/jkwang/Desktop/nacl_sdk/pepper_canary/toolchain/mac_pnacl/bin/../arm-nacl/lib/libnacl.a(fstat.o)
 .bss           0x00000000100347d8        0x0 /Users/jkwang/Desktop/nacl_sdk/pepper_canary/toolchain/mac_pnacl/bin/../arm-nacl/lib/libnacl.a(isatty.o)
 .bss           0x00000000100347d8        0x0 /Users/jkwang/Desktop/nacl_sdk/pepper_canary/toolchain/mac_pnacl/bin/../arm-nacl/lib/libnacl.a(lseek.o)
 .bss           0x00000000100347d8        0x0 /Users/jkwang/Desktop/nacl_sdk/pepper_canary/toolchain/mac_pnacl/bin/../arm-nacl/lib/libnacl.a(nanosleep.o)
 .bss           0x00000000100347d8        0x0 /Users/jkwang/Desktop/nacl_sdk/pepper_canary/toolchain/mac_pnacl/bin/../arm-nacl/lib/libnacl.a(nacl_irt_fdio.o)
 .bss           0x00000000100347d8        0x0 /Users/jkwang/Desktop/nacl_sdk/pepper_canary/toolchain/mac_pnacl/bin/../arm-nacl/lib/libnacl.a(read.o)
 .bss           0x00000000100347d8        0x0 /Users/jkwang/Desktop/nacl_sdk/pepper_canary/toolchain/mac_pnacl/bin/../lib/clang/3.7.0/lib/arm-nacl/libgcc.a(aeabi_memcpy.o)
 .bss           0x00000000100347d8        0x0 /Users/jkwang/Desktop/nacl_sdk/pepper_canary/toolchain/mac_pnacl/bin/../lib/clang/3.7.0/lib/arm-nacl/libgcc.a(aeabi_memset.o)
 .bss           0x00000000100347d8        0x0 /Users/jkwang/Desktop/nacl_sdk/pepper_canary/toolchain/mac_pnacl/bin/../lib/clang/3.7.0/lib/arm-nacl/libgcc.a(aeabi_uldivmod.o)
 .bss           0x00000000100347d8        0x0 /Users/jkwang/Desktop/nacl_sdk/pepper_canary/toolchain/mac_pnacl/bin/../lib/clang/3.7.0/lib/arm-nacl/libgcc.a(modsi3.o)
 .bss           0x00000000100347d8        0x0 /Users/jkwang/Desktop/nacl_sdk/pepper_canary/toolchain/mac_pnacl/bin/../lib/clang/3.7.0/lib/arm-nacl/libgcc.a(udivmoddi4.o)
 .bss           0x00000000100347d8        0x0 /Users/jkwang/Desktop/nacl_sdk/pepper_canary/toolchain/mac_pnacl/bin/../lib/clang/3.7.0/lib/arm-nacl/libgcc.a(udivsi3.o)
 .bss           0x00000000100347d8        0x0 /Users/jkwang/Desktop/nacl_sdk/pepper_canary/toolchain/mac_pnacl/bin/../lib/clang/3.7.0/lib/arm-nacl/libgcc.a(umoddi3.o)
 .bss           0x00000000100347d8        0x0 /Users/jkwang/Desktop/nacl_sdk/pepper_canary/toolchain/mac_pnacl/bin/../lib/clang/3.7.0/lib/arm-nacl/libgcc.a(umodsi3.o)
 .bss           0x00000000100347d8        0x0 /Users/jkwang/Desktop/nacl_sdk/pepper_canary/toolchain/mac_pnacl/bin/../lib/clang/3.7.0/lib/arm-nacl/libgcc.a(divsi3.o)
 .bss           0x00000000100347d8        0xc /Users/jkwang/Desktop/nacl_sdk/pepper_canary/toolchain/mac_pnacl/bin/../lib/clang/3.7.0/lib/arm-nacl/libgcc_eh.a(unwind-dw2-fde-glibc.o)
 .bss           0x00000000100347e4        0x0 /Users/jkwang/Desktop/nacl_sdk/pepper_canary/toolchain/mac_pnacl/bin/../lib/clang/3.7.0/lib/arm-nacl/crtend.o
 .bss           0x00000000100347e4        0x0 /Users/jkwang/Desktop/nacl_sdk/pepper_canary/toolchain/mac_pnacl/bin/../arm-nacl/lib/crtn.o
 *(COMMON)
 COMMON         0x00000000100347e4        0xc clang-newlib/Release/debugging_arm.o
                0x00000000100347e4                g_PPAPIThread
                0x00000000100347e8                g_Instance
                0x00000000100347ec                g_NexeThread
 COMMON         0x00000000100347f0       0x14 /Users/jkwang/Desktop/nacl_sdk/pepper_canary/toolchain/mac_pnacl/bin/../arm-nacl/lib/libpthread.a(nc_thread.o)
                0x00000000100347f0                __nc_thread_initialized
                0x00000000100347f4                __nc_initial_thread_id
                0x00000000100347f8                __libnacl_irt_thread
 COMMON         0x0000000010034804        0x8 /Users/jkwang/Desktop/nacl_sdk/pepper_canary/toolchain/mac_pnacl/bin/../arm-nacl/lib/libpthread.a(nc_init_irt.o)
                0x0000000010034804                __libnacl_irt_futex
 COMMON         0x000000001003480c       0xb4 /Users/jkwang/Desktop/nacl_sdk/pepper_canary/toolchain/mac_pnacl/bin/../arm-nacl/lib/libnacl.a(nacl_irt.o)
                0x000000001003480c                __nacl_irt_query
                0x0000000010034810                __libnacl_irt_dev_filename
                0x0000000010034850                __libnacl_irt_clock
                0x0000000010034858                __libnacl_irt_memory
                0x0000000010034864                __libnacl_irt_dev_fdio
                0x000000001003489c                __libnacl_irt_basic
                0x00000000100348b4                __libnacl_irt_tls
                0x00000000100348bc                __libnacl_irt_dev_getpid
 COMMON         0x00000000100348c0        0x4 /Users/jkwang/Desktop/nacl_sdk/pepper_canary/toolchain/mac_pnacl/bin/../arm-nacl/lib/libnacl.a(start.o)
                0x00000000100348c0                __nacl_initial_thread_stack_end
                0x00000000100348c4                . = ALIGN ((. != 0x0)?0x4:0x1)
                0x00000000100348c4                _bss_end__ = .
                0x00000000100348c4                __bss_end__ = .
                0x00000000100348c4                . = ALIGN (0x4)
                0x00000000100348c4                . = SEGMENT_START ("ldata-segment", .)
                0x00000000100348c4                . = ALIGN (0x4)
                0x00000000100348c4                __end__ = .
                0x00000000100348c4                _end = .
                0x00000000100348c4                PROVIDE (end, .)
                0x00000000100348c4                . = DATA_SEGMENT_END (.)

.stab
 *(.stab)

.stabstr
 *(.stabstr)

.stab.excl
 *(.stab.excl)

.stab.exclstr
 *(.stab.exclstr)

.stab.index
 *(.stab.index)

.stab.indexstr
 *(.stab.indexstr)

.comment        0x0000000000000000       0xed
 *(.comment)
 .comment       0x0000000000000000       0xed /Users/jkwang/Desktop/nacl_sdk/pepper_canary/toolchain/mac_pnacl/bin/../lib/clang/3.7.0/lib/arm-nacl/crtbeginT.o
                                         0xee (size before relaxing)
 .comment       0x00000000000000ed       0xee clang-newlib/Release/debugging_arm.o
 .comment       0x00000000000000ed       0xee /Users/jkwang/Desktop/nacl_sdk/pepper_canary/lib/clang-newlib_arm/Release/liberror_handling.a(error_handling_arm.o)
 .comment       0x00000000000000ed       0xee /Users/jkwang/Desktop/nacl_sdk/pepper_canary/lib/clang-newlib_arm/Release/liberror_handling.a(string_stream_arm.o)
 .comment       0x00000000000000ed       0xee /Users/jkwang/Desktop/nacl_sdk/pepper_canary/toolchain/mac_pnacl/bin/../arm-nacl/lib/libppapi_stub.a(plugin_main_irt.o)
 .comment       0x00000000000000ed       0xee /Users/jkwang/Desktop/nacl_sdk/pepper_canary/toolchain/mac_pnacl/bin/../arm-nacl/lib/libppapi_stub.a(ppapi_plugin_main.o)
 .comment       0x00000000000000ed       0xee /Users/jkwang/Desktop/nacl_sdk/pepper_canary/toolchain/mac_pnacl/bin/../arm-nacl/lib/libppapi_stub.a(ppapi_plugin_start.o)
 .comment       0x00000000000000ed       0xee /Users/jkwang/Desktop/nacl_sdk/pepper_canary/toolchain/mac_pnacl/bin/../arm-nacl/lib/libppapi_stub.a(thread_creator.o)
 .comment       0x00000000000000ed       0xee /Users/jkwang/Desktop/nacl_sdk/pepper_canary/toolchain/mac_pnacl/bin/../arm-nacl/lib/libpthread.a(nc_thread.o)
 .comment       0x00000000000000ed       0xee /Users/jkwang/Desktop/nacl_sdk/pepper_canary/toolchain/mac_pnacl/bin/../arm-nacl/lib/libpthread.a(nc_mutex.o)
 .comment       0x00000000000000ed       0xee /Users/jkwang/Desktop/nacl_sdk/pepper_canary/toolchain/mac_pnacl/bin/../arm-nacl/lib/libpthread.a(nc_condvar.o)
 .comment       0x00000000000000ed       0xee /Users/jkwang/Desktop/nacl_sdk/pepper_canary/toolchain/mac_pnacl/bin/../arm-nacl/lib/libpthread.a(valgrind_annotations.o)
 .comment       0x00000000000000ed       0xee /Users/jkwang/Desktop/nacl_sdk/pepper_canary/toolchain/mac_pnacl/bin/../arm-nacl/lib/libpthread.a(nc_init_irt.o)
 .comment       0x00000000000000ed       0xee /Users/jkwang/Desktop/nacl_sdk/pepper_canary/toolchain/mac_pnacl/bin/../arm-nacl/lib/libnacl.a(nacl_irt.o)
 .comment       0x00000000000000ed       0xee /Users/jkwang/Desktop/nacl_sdk/pepper_canary/toolchain/mac_pnacl/bin/../arm-nacl/lib/libnacl.a(_exit.o)
 .comment       0x00000000000000ed       0xee /Users/jkwang/Desktop/nacl_sdk/pepper_canary/toolchain/mac_pnacl/bin/../arm-nacl/lib/libnacl.a(mmap.o)
 .comment       0x00000000000000ed       0xee /Users/jkwang/Desktop/nacl_sdk/pepper_canary/toolchain/mac_pnacl/bin/../arm-nacl/lib/libnacl.a(munmap.o)
 .comment       0x00000000000000ed       0xee /Users/jkwang/Desktop/nacl_sdk/pepper_canary/toolchain/mac_pnacl/bin/../arm-nacl/lib/libnacl.a(nacl_interface_query.o)
 .comment       0x00000000000000ed       0xee /Users/jkwang/Desktop/nacl_sdk/pepper_canary/toolchain/mac_pnacl/bin/../arm-nacl/lib/libnacl.a(write.o)
 .comment       0x00000000000000ed       0xee /Users/jkwang/Desktop/nacl_sdk/pepper_canary/toolchain/mac_pnacl/bin/../arm-nacl/lib/libnacl.a(environ.o)
 .comment       0x00000000000000ed       0xee /Users/jkwang/Desktop/nacl_sdk/pepper_canary/toolchain/mac_pnacl/bin/../arm-nacl/lib/libnacl.a(malloc.o)
 .comment       0x00000000000000ed       0xee /Users/jkwang/Desktop/nacl_sdk/pepper_canary/toolchain/mac_pnacl/bin/../arm-nacl/lib/libnacl.a(start.o)
 .comment       0x00000000000000ed       0xee /Users/jkwang/Desktop/nacl_sdk/pepper_canary/toolchain/mac_pnacl/bin/../arm-nacl/lib/libnacl.a(nacl_read_tp.o)
 .comment       0x00000000000000ed       0xee /Users/jkwang/Desktop/nacl_sdk/pepper_canary/toolchain/mac_pnacl/bin/../arm-nacl/lib/libnacl.a(pthread_initialize_minimal.o)
 .comment       0x00000000000000ed       0xee /Users/jkwang/Desktop/nacl_sdk/pepper_canary/toolchain/mac_pnacl/bin/../arm-nacl/lib/libnacl.a(tls.o)
 .comment       0x00000000000000ed       0xee /Users/jkwang/Desktop/nacl_sdk/pepper_canary/toolchain/mac_pnacl/bin/../arm-nacl/lib/libnacl.a(nacl_irt_init.o)
 .comment       0x00000000000000ed       0xee /Users/jkwang/Desktop/nacl_sdk/pepper_canary/toolchain/mac_pnacl/bin/../arm-nacl/lib/libnacl.a(nacl_tls_get.o)
 .comment       0x00000000000000ed       0xee /Users/jkwang/Desktop/nacl_sdk/pepper_canary/toolchain/mac_pnacl/bin/../arm-nacl/lib/libnacl.a(nacl_tls_init.o)
 .comment       0x00000000000000ed       0xee /Users/jkwang/Desktop/nacl_sdk/pepper_canary/toolchain/mac_pnacl/bin/../arm-nacl/lib/libnacl.a(abort.o)
 .comment       0x00000000000000ed       0xee /Users/jkwang/Desktop/nacl_sdk/pepper_canary/toolchain/mac_pnacl/bin/../arm-nacl/lib/libnacl.a(sched_yield.o)
 .comment       0x00000000000000ed       0xee /Users/jkwang/Desktop/nacl_sdk/pepper_canary/toolchain/mac_pnacl/bin/../arm-nacl/lib/libnacl.a(sysconf.o)
 .comment       0x00000000000000ed       0xee /Users/jkwang/Desktop/nacl_sdk/pepper_canary/toolchain/mac_pnacl/bin/../arm-nacl/lib/libcrt_common.a(lib_a-atexit.o)
 .comment       0x00000000000000ed       0xee /Users/jkwang/Desktop/nacl_sdk/pepper_canary/toolchain/mac_pnacl/bin/../arm-nacl/lib/libcrt_common.a(lib_a-errno.o)
 .comment       0x00000000000000ed       0xee /Users/jkwang/Desktop/nacl_sdk/pepper_canary/toolchain/mac_pnacl/bin/../arm-nacl/lib/libcrt_common.a(lib_a-exit.o)
 .comment       0x00000000000000ed       0xee /Users/jkwang/Desktop/nacl_sdk/pepper_canary/toolchain/mac_pnacl/bin/../arm-nacl/lib/libcrt_common.a(lib_a-fflush.o)
 .comment       0x00000000000000ed       0xee /Users/jkwang/Desktop/nacl_sdk/pepper_canary/toolchain/mac_pnacl/bin/../arm-nacl/lib/libcrt_common.a(lib_a-findfp.o)
 .comment       0x00000000000000ed       0xee /Users/jkwang/Desktop/nacl_sdk/pepper_canary/toolchain/mac_pnacl/bin/../arm-nacl/lib/libcrt_common.a(lib_a-fini.o)
 .comment       0x00000000000000ed       0xee /Users/jkwang/Desktop/nacl_sdk/pepper_canary/toolchain/mac_pnacl/bin/../arm-nacl/lib/libcrt_common.a(lib_a-fprintf.o)
 .comment       0x00000000000000ed       0xee /Users/jkwang/Desktop/nacl_sdk/pepper_canary/toolchain/mac_pnacl/bin/../arm-nacl/lib/libcrt_common.a(lib_a-fwalk.o)
 .comment       0x00000000000000ed       0xee /Users/jkwang/Desktop/nacl_sdk/pepper_canary/toolchain/mac_pnacl/bin/../arm-nacl/lib/libcrt_common.a(lib_a-fwrite.o)
 .comment       0x00000000000000ed       0xee /Users/jkwang/Desktop/nacl_sdk/pepper_canary/toolchain/mac_pnacl/bin/../arm-nacl/lib/libcrt_common.a(lib_a-getenv.o)
 .comment       0x00000000000000ed       0xee /Users/jkwang/Desktop/nacl_sdk/pepper_canary/toolchain/mac_pnacl/bin/../arm-nacl/lib/libcrt_common.a(lib_a-getenv_r.o)
 .comment       0x00000000000000ed       0xee /Users/jkwang/Desktop/nacl_sdk/pepper_canary/toolchain/mac_pnacl/bin/../arm-nacl/lib/libcrt_common.a(lib_a-impure.o)
 .comment       0x00000000000000ed       0xee /Users/jkwang/Desktop/nacl_sdk/pepper_canary/toolchain/mac_pnacl/bin/../arm-nacl/lib/libcrt_common.a(lib_a-init.o)
 .comment       0x00000000000000ed       0xee /Users/jkwang/Desktop/nacl_sdk/pepper_canary/toolchain/mac_pnacl/bin/../arm-nacl/lib/libcrt_common.a(lib_a-memset.o)
 .comment       0x00000000000000ed       0xee /Users/jkwang/Desktop/nacl_sdk/pepper_canary/toolchain/mac_pnacl/bin/../arm-nacl/lib/libcrt_common.a(lib_a-sleep.o)
 .comment       0x00000000000000ed       0xee /Users/jkwang/Desktop/nacl_sdk/pepper_canary/toolchain/mac_pnacl/bin/../arm-nacl/lib/libcrt_common.a(lib_a-stdio.o)
 .comment       0x00000000000000ed       0xee /Users/jkwang/Desktop/nacl_sdk/pepper_canary/toolchain/mac_pnacl/bin/../arm-nacl/lib/libcrt_common.a(lib_a-strcat.o)
 .comment       0x00000000000000ed       0xee /Users/jkwang/Desktop/nacl_sdk/pepper_canary/toolchain/mac_pnacl/bin/../arm-nacl/lib/libcrt_common.a(lib_a-strcpy.o)
 .comment       0x00000000000000ed       0xee /Users/jkwang/Desktop/nacl_sdk/pepper_canary/toolchain/mac_pnacl/bin/../arm-nacl/lib/libcrt_common.a(lib_a-strncmp.o)
 .comment       0x00000000000000ed       0xee /Users/jkwang/Desktop/nacl_sdk/pepper_canary/toolchain/mac_pnacl/bin/../arm-nacl/lib/libcrt_common.a(lib_a-vfprintf.o)
 .comment       0x00000000000000ed       0xee /Users/jkwang/Desktop/nacl_sdk/pepper_canary/toolchain/mac_pnacl/bin/../arm-nacl/lib/libcrt_common.a(lib_a-vsnprintf.o)
 .comment       0x00000000000000ed       0xee /Users/jkwang/Desktop/nacl_sdk/pepper_canary/toolchain/mac_pnacl/bin/../arm-nacl/lib/libcrt_common.a(lib_a-vsprintf.o)
 .comment       0x00000000000000ed       0xee /Users/jkwang/Desktop/nacl_sdk/pepper_canary/toolchain/mac_pnacl/bin/../arm-nacl/lib/libcrt_common.a(lib_a-wcrtomb.o)
 .comment       0x00000000000000ed       0xee /Users/jkwang/Desktop/nacl_sdk/pepper_canary/toolchain/mac_pnacl/bin/../arm-nacl/lib/libcrt_common.a(lib_a-wcsrtombs.o)
 .comment       0x00000000000000ed       0xee /Users/jkwang/Desktop/nacl_sdk/pepper_canary/toolchain/mac_pnacl/bin/../arm-nacl/lib/libcrt_common.a(lib_a-wctomb_r.o)
 .comment       0x00000000000000ed       0xee /Users/jkwang/Desktop/nacl_sdk/pepper_canary/toolchain/mac_pnacl/bin/../arm-nacl/lib/libcrt_common.a(lib_a-wsetup.o)
 .comment       0x00000000000000ed       0xee /Users/jkwang/Desktop/nacl_sdk/pepper_canary/toolchain/mac_pnacl/bin/../arm-nacl/lib/libcrt_common.a(lib_a-__atexit.o)
 .comment       0x00000000000000ed       0xee /Users/jkwang/Desktop/nacl_sdk/pepper_canary/toolchain/mac_pnacl/bin/../arm-nacl/lib/libcrt_common.a(lib_a-__call_atexit.o)
 .comment       0x00000000000000ed       0xee /Users/jkwang/Desktop/nacl_sdk/pepper_canary/toolchain/mac_pnacl/bin/../arm-nacl/lib/libcrt_common.a(lib_a-dtoa.o)
 .comment       0x00000000000000ed       0xee /Users/jkwang/Desktop/nacl_sdk/pepper_canary/toolchain/mac_pnacl/bin/../arm-nacl/lib/libcrt_common.a(lib_a-envlock.o)
 .comment       0x00000000000000ed       0xee /Users/jkwang/Desktop/nacl_sdk/pepper_canary/toolchain/mac_pnacl/bin/../arm-nacl/lib/libcrt_common.a(lib_a-fclose.o)
 .comment       0x00000000000000ed       0xee /Users/jkwang/Desktop/nacl_sdk/pepper_canary/toolchain/mac_pnacl/bin/../arm-nacl/lib/libcrt_common.a(lib_a-fvwrite.o)
 .comment       0x00000000000000ed       0xee /Users/jkwang/Desktop/nacl_sdk/pepper_canary/toolchain/mac_pnacl/bin/../arm-nacl/lib/libcrt_common.a(lib_a-locale.o)
 .comment       0x00000000000000ed       0xee /Users/jkwang/Desktop/nacl_sdk/pepper_canary/toolchain/mac_pnacl/bin/../arm-nacl/lib/libcrt_common.a(lib_a-makebuf.o)
 .comment       0x00000000000000ed       0xee /Users/jkwang/Desktop/nacl_sdk/pepper_canary/toolchain/mac_pnacl/bin/../arm-nacl/lib/libcrt_common.a(lib_a-mbtowc_r.o)
 .comment       0x00000000000000ed       0xee /Users/jkwang/Desktop/nacl_sdk/pepper_canary/toolchain/mac_pnacl/bin/../arm-nacl/lib/libcrt_common.a(lib_a-memmove.o)
 .comment       0x00000000000000ed       0xee /Users/jkwang/Desktop/nacl_sdk/pepper_canary/toolchain/mac_pnacl/bin/../arm-nacl/lib/libcrt_common.a(lib_a-mprec.o)
 .comment       0x00000000000000ed       0xee /Users/jkwang/Desktop/nacl_sdk/pepper_canary/toolchain/mac_pnacl/bin/../arm-nacl/lib/libcrt_common.a(lib_a-s_fpclassify.o)
 .comment       0x00000000000000ed       0xee /Users/jkwang/Desktop/nacl_sdk/pepper_canary/toolchain/mac_pnacl/bin/../arm-nacl/lib/libcrt_common.a(lib_a-s_frexp.o)
 .comment       0x00000000000000ed       0xee /Users/jkwang/Desktop/nacl_sdk/pepper_canary/toolchain/mac_pnacl/bin/../arm-nacl/lib/libcrt_common.a(lib_a-strcasecmp.o)
 .comment       0x00000000000000ed       0xee /Users/jkwang/Desktop/nacl_sdk/pepper_canary/toolchain/mac_pnacl/bin/../arm-nacl/lib/libcrt_common.a(lib_a-strchr.o)
 .comment       0x00000000000000ed       0xee /Users/jkwang/Desktop/nacl_sdk/pepper_canary/toolchain/mac_pnacl/bin/../arm-nacl/lib/libcrt_common.a(lib_a-strlcpy.o)
 .comment       0x00000000000000ed       0xee /Users/jkwang/Desktop/nacl_sdk/pepper_canary/toolchain/mac_pnacl/bin/../arm-nacl/lib/libcrt_common.a(lib_a-strncasecmp.o)
 .comment       0x00000000000000ed       0xee /Users/jkwang/Desktop/nacl_sdk/pepper_canary/toolchain/mac_pnacl/bin/../arm-nacl/lib/libcrt_common.a(lib_a-strncpy.o)
 .comment       0x00000000000000ed       0xee /Users/jkwang/Desktop/nacl_sdk/pepper_canary/toolchain/mac_pnacl/bin/../arm-nacl/lib/libcrt_common.a(lib_a-strtol.o)
 .comment       0x00000000000000ed       0xee /Users/jkwang/Desktop/nacl_sdk/pepper_canary/toolchain/mac_pnacl/bin/../arm-nacl/lib/libcrt_common.a(lib_a-svfprintf.o)
 .comment       0x00000000000000ed       0xee /Users/jkwang/Desktop/nacl_sdk/pepper_canary/toolchain/mac_pnacl/bin/../arm-nacl/lib/libcrt_common.a(lib_a-vfiprintf.o)
 .comment       0x00000000000000ed       0xee /Users/jkwang/Desktop/nacl_sdk/pepper_canary/toolchain/mac_pnacl/bin/../arm-nacl/lib/libcrt_common.a(lib_a-wcsnrtombs.o)
 .comment       0x00000000000000ed       0xee /Users/jkwang/Desktop/nacl_sdk/pepper_canary/toolchain/mac_pnacl/bin/../arm-nacl/lib/libcrt_common.a(lib_a-ctype_.o)
 .comment       0x00000000000000ed       0xee /Users/jkwang/Desktop/nacl_sdk/pepper_canary/toolchain/mac_pnacl/bin/../arm-nacl/lib/libcrt_common.a(lib_a-fputwc.o)
 .comment       0x00000000000000ed       0xee /Users/jkwang/Desktop/nacl_sdk/pepper_canary/toolchain/mac_pnacl/bin/../arm-nacl/lib/libcrt_common.a(lib_a-svfiprintf.o)
 .comment       0x00000000000000ed       0xee /Users/jkwang/Desktop/nacl_sdk/pepper_canary/toolchain/mac_pnacl/bin/../arm-nacl/lib/libcrt_common.a(lib_a-wbuf.o)
 .comment       0x00000000000000ed       0xee /Users/jkwang/Desktop/nacl_sdk/pepper_canary/toolchain/mac_pnacl/bin/../arm-nacl/lib/libnacl.a(close.o)
 .comment       0x00000000000000ed       0xee /Users/jkwang/Desktop/nacl_sdk/pepper_canary/toolchain/mac_pnacl/bin/../arm-nacl/lib/libnacl.a(fstat.o)
 .comment       0x00000000000000ed       0xee /Users/jkwang/Desktop/nacl_sdk/pepper_canary/toolchain/mac_pnacl/bin/../arm-nacl/lib/libnacl.a(isatty.o)
 .comment       0x00000000000000ed       0xee /Users/jkwang/Desktop/nacl_sdk/pepper_canary/toolchain/mac_pnacl/bin/../arm-nacl/lib/libnacl.a(lseek.o)
 .comment       0x00000000000000ed       0xee /Users/jkwang/Desktop/nacl_sdk/pepper_canary/toolchain/mac_pnacl/bin/../arm-nacl/lib/libnacl.a(nanosleep.o)
 .comment       0x00000000000000ed       0xee /Users/jkwang/Desktop/nacl_sdk/pepper_canary/toolchain/mac_pnacl/bin/../arm-nacl/lib/libnacl.a(nacl_irt_fdio.o)
 .comment       0x00000000000000ed       0xee /Users/jkwang/Desktop/nacl_sdk/pepper_canary/toolchain/mac_pnacl/bin/../arm-nacl/lib/libnacl.a(read.o)
 .comment       0x00000000000000ed       0xee /Users/jkwang/Desktop/nacl_sdk/pepper_canary/toolchain/mac_pnacl/bin/../lib/clang/3.7.0/lib/arm-nacl/libgcc.a(modsi3.o)
 .comment       0x00000000000000ed       0xee /Users/jkwang/Desktop/nacl_sdk/pepper_canary/toolchain/mac_pnacl/bin/../lib/clang/3.7.0/lib/arm-nacl/libgcc.a(udivmoddi4.o)
 .comment       0x00000000000000ed       0xee /Users/jkwang/Desktop/nacl_sdk/pepper_canary/toolchain/mac_pnacl/bin/../lib/clang/3.7.0/lib/arm-nacl/libgcc.a(udivsi3.o)
 .comment       0x00000000000000ed       0xee /Users/jkwang/Desktop/nacl_sdk/pepper_canary/toolchain/mac_pnacl/bin/../lib/clang/3.7.0/lib/arm-nacl/libgcc.a(umoddi3.o)
 .comment       0x00000000000000ed       0xee /Users/jkwang/Desktop/nacl_sdk/pepper_canary/toolchain/mac_pnacl/bin/../lib/clang/3.7.0/lib/arm-nacl/libgcc.a(umodsi3.o)
 .comment       0x00000000000000ed       0xee /Users/jkwang/Desktop/nacl_sdk/pepper_canary/toolchain/mac_pnacl/bin/../lib/clang/3.7.0/lib/arm-nacl/libgcc.a(divsi3.o)
 .comment       0x00000000000000ed       0xee /Users/jkwang/Desktop/nacl_sdk/pepper_canary/toolchain/mac_pnacl/bin/../lib/clang/3.7.0/lib/arm-nacl/libgcc_eh.a(unwind-dw2-fde-glibc.o)
 .comment       0x00000000000000ed       0xee /Users/jkwang/Desktop/nacl_sdk/pepper_canary/toolchain/mac_pnacl/bin/../lib/clang/3.7.0/lib/arm-nacl/crtend.o

.ARM.attributes
                0x0000000000000000       0x3d
 .ARM.attributes
                0x0000000000000000       0x16 /Users/jkwang/Desktop/nacl_sdk/pepper_canary/toolchain/mac_pnacl/bin/../arm-nacl/lib/crti.o
 .ARM.attributes
                0x0000000000000016       0x47 /Users/jkwang/Desktop/nacl_sdk/pepper_canary/toolchain/mac_pnacl/bin/../lib/clang/3.7.0/lib/arm-nacl/crtbeginT.o
 .ARM.attributes
                0x000000000000005d       0x47 clang-newlib/Release/debugging_arm.o
 .ARM.attributes
                0x00000000000000a4       0x47 /Users/jkwang/Desktop/nacl_sdk/pepper_canary/lib/clang-newlib_arm/Release/liberror_handling.a(error_handling_arm.o)
 .ARM.attributes
                0x00000000000000eb       0x47 /Users/jkwang/Desktop/nacl_sdk/pepper_canary/lib/clang-newlib_arm/Release/liberror_handling.a(string_stream_arm.o)
 .ARM.attributes
                0x0000000000000132       0x4b /Users/jkwang/Desktop/nacl_sdk/pepper_canary/toolchain/mac_pnacl/bin/../arm-nacl/lib/libppapi_stub.a(plugin_main_irt.o)
 .ARM.attributes
                0x000000000000017d       0x4b /Users/jkwang/Desktop/nacl_sdk/pepper_canary/toolchain/mac_pnacl/bin/../arm-nacl/lib/libppapi_stub.a(ppapi_plugin_main.o)
 .ARM.attributes
                0x00000000000001c8       0x4b /Users/jkwang/Desktop/nacl_sdk/pepper_canary/toolchain/mac_pnacl/bin/../arm-nacl/lib/libppapi_stub.a(ppapi_plugin_start.o)
 .ARM.attributes
                0x0000000000000213       0x4b /Users/jkwang/Desktop/nacl_sdk/pepper_canary/toolchain/mac_pnacl/bin/../arm-nacl/lib/libppapi_stub.a(thread_creator.o)
 .ARM.attributes
                0x000000000000025e       0x47 /Users/jkwang/Desktop/nacl_sdk/pepper_canary/toolchain/mac_pnacl/bin/../arm-nacl/lib/libpthread.a(nc_thread.o)
 .ARM.attributes
                0x00000000000002a5       0x47 /Users/jkwang/Desktop/nacl_sdk/pepper_canary/toolchain/mac_pnacl/bin/../arm-nacl/lib/libpthread.a(nc_mutex.o)
 .ARM.attributes
                0x00000000000002ec       0x47 /Users/jkwang/Desktop/nacl_sdk/pepper_canary/toolchain/mac_pnacl/bin/../arm-nacl/lib/libpthread.a(nc_condvar.o)
 .ARM.attributes
                0x0000000000000333       0x47 /Users/jkwang/Desktop/nacl_sdk/pepper_canary/toolchain/mac_pnacl/bin/../arm-nacl/lib/libpthread.a(valgrind_annotations.o)
 .ARM.attributes
                0x000000000000037a       0x47 /Users/jkwang/Desktop/nacl_sdk/pepper_canary/toolchain/mac_pnacl/bin/../arm-nacl/lib/libpthread.a(nc_init_irt.o)
 .ARM.attributes
                0x00000000000003c1       0x47 /Users/jkwang/Desktop/nacl_sdk/pepper_canary/toolchain/mac_pnacl/bin/../arm-nacl/lib/libnacl.a(nacl_irt.o)
 .ARM.attributes
                0x0000000000000408       0x47 /Users/jkwang/Desktop/nacl_sdk/pepper_canary/toolchain/mac_pnacl/bin/../arm-nacl/lib/libnacl.a(_exit.o)
 .ARM.attributes
                0x000000000000044f       0x47 /Users/jkwang/Desktop/nacl_sdk/pepper_canary/toolchain/mac_pnacl/bin/../arm-nacl/lib/libnacl.a(mmap.o)
 .ARM.attributes
                0x0000000000000496       0x47 /Users/jkwang/Desktop/nacl_sdk/pepper_canary/toolchain/mac_pnacl/bin/../arm-nacl/lib/libnacl.a(munmap.o)
 .ARM.attributes
                0x00000000000004dd       0x47 /Users/jkwang/Desktop/nacl_sdk/pepper_canary/toolchain/mac_pnacl/bin/../arm-nacl/lib/libnacl.a(nacl_interface_query.o)
 .ARM.attributes
                0x0000000000000524       0x47 /Users/jkwang/Desktop/nacl_sdk/pepper_canary/toolchain/mac_pnacl/bin/../arm-nacl/lib/libnacl.a(write.o)
 .ARM.attributes
                0x000000000000056b       0x47 /Users/jkwang/Desktop/nacl_sdk/pepper_canary/toolchain/mac_pnacl/bin/../arm-nacl/lib/libnacl.a(environ.o)
 .ARM.attributes
                0x00000000000005b2       0x47 /Users/jkwang/Desktop/nacl_sdk/pepper_canary/toolchain/mac_pnacl/bin/../arm-nacl/lib/libnacl.a(malloc.o)
 .ARM.attributes
                0x00000000000005f9       0x47 /Users/jkwang/Desktop/nacl_sdk/pepper_canary/toolchain/mac_pnacl/bin/../arm-nacl/lib/libnacl.a(start.o)
 .ARM.attributes
                0x0000000000000640       0x47 /Users/jkwang/Desktop/nacl_sdk/pepper_canary/toolchain/mac_pnacl/bin/../arm-nacl/lib/libnacl.a(nacl_read_tp.o)
 .ARM.attributes
                0x0000000000000687       0x47 /Users/jkwang/Desktop/nacl_sdk/pepper_canary/toolchain/mac_pnacl/bin/../arm-nacl/lib/libnacl.a(pthread_initialize_minimal.o)
 .ARM.attributes
                0x00000000000006ce       0x47 /Users/jkwang/Desktop/nacl_sdk/pepper_canary/toolchain/mac_pnacl/bin/../arm-nacl/lib/libnacl.a(tls.o)
 .ARM.attributes
                0x0000000000000715       0x47 /Users/jkwang/Desktop/nacl_sdk/pepper_canary/toolchain/mac_pnacl/bin/../arm-nacl/lib/libnacl.a(nacl_irt_init.o)
 .ARM.attributes
                0x000000000000075c       0x47 /Users/jkwang/Desktop/nacl_sdk/pepper_canary/toolchain/mac_pnacl/bin/../arm-nacl/lib/libnacl.a(nacl_tls_get.o)
 .ARM.attributes
                0x00000000000007a3       0x47 /Users/jkwang/Desktop/nacl_sdk/pepper_canary/toolchain/mac_pnacl/bin/../arm-nacl/lib/libnacl.a(nacl_tls_init.o)
 .ARM.attributes
                0x00000000000007ea       0x47 /Users/jkwang/Desktop/nacl_sdk/pepper_canary/toolchain/mac_pnacl/bin/../arm-nacl/lib/libnacl.a(abort.o)
 .ARM.attributes
                0x0000000000000831       0x47 /Users/jkwang/Desktop/nacl_sdk/pepper_canary/toolchain/mac_pnacl/bin/../arm-nacl/lib/libnacl.a(sched_yield.o)
 .ARM.attributes
                0x0000000000000878       0x47 /Users/jkwang/Desktop/nacl_sdk/pepper_canary/toolchain/mac_pnacl/bin/../arm-nacl/lib/libnacl.a(sysconf.o)
 .ARM.attributes
                0x00000000000008bf       0x47 /Users/jkwang/Desktop/nacl_sdk/pepper_canary/toolchain/mac_pnacl/bin/../arm-nacl/lib/libcrt_common.a(lib_a-atexit.o)
 .ARM.attributes
                0x0000000000000906       0x47 /Users/jkwang/Desktop/nacl_sdk/pepper_canary/toolchain/mac_pnacl/bin/../arm-nacl/lib/libcrt_common.a(lib_a-errno.o)
 .ARM.attributes
                0x000000000000094d       0x47 /Users/jkwang/Desktop/nacl_sdk/pepper_canary/toolchain/mac_pnacl/bin/../arm-nacl/lib/libcrt_common.a(lib_a-exit.o)
 .ARM.attributes
                0x0000000000000994       0x47 /Users/jkwang/Desktop/nacl_sdk/pepper_canary/toolchain/mac_pnacl/bin/../arm-nacl/lib/libcrt_common.a(lib_a-fflush.o)
 .ARM.attributes
                0x00000000000009db       0x47 /Users/jkwang/Desktop/nacl_sdk/pepper_canary/toolchain/mac_pnacl/bin/../arm-nacl/lib/libcrt_common.a(lib_a-findfp.o)
 .ARM.attributes
                0x0000000000000a22       0x47 /Users/jkwang/Desktop/nacl_sdk/pepper_canary/toolchain/mac_pnacl/bin/../arm-nacl/lib/libcrt_common.a(lib_a-fini.o)
 .ARM.attributes
                0x0000000000000a69       0x47 /Users/jkwang/Desktop/nacl_sdk/pepper_canary/toolchain/mac_pnacl/bin/../arm-nacl/lib/libcrt_common.a(lib_a-fprintf.o)
 .ARM.attributes
                0x0000000000000ab0       0x47 /Users/jkwang/Desktop/nacl_sdk/pepper_canary/toolchain/mac_pnacl/bin/../arm-nacl/lib/libcrt_common.a(lib_a-fwalk.o)
 .ARM.attributes
                0x0000000000000af7       0x47 /Users/jkwang/Desktop/nacl_sdk/pepper_canary/toolchain/mac_pnacl/bin/../arm-nacl/lib/libcrt_common.a(lib_a-fwrite.o)
 .ARM.attributes
                0x0000000000000b3e       0x47 /Users/jkwang/Desktop/nacl_sdk/pepper_canary/toolchain/mac_pnacl/bin/../arm-nacl/lib/libcrt_common.a(lib_a-getenv.o)
 .ARM.attributes
                0x0000000000000b85       0x47 /Users/jkwang/Desktop/nacl_sdk/pepper_canary/toolchain/mac_pnacl/bin/../arm-nacl/lib/libcrt_common.a(lib_a-getenv_r.o)
 .ARM.attributes
                0x0000000000000bcc       0x47 /Users/jkwang/Desktop/nacl_sdk/pepper_canary/toolchain/mac_pnacl/bin/../arm-nacl/lib/libcrt_common.a(lib_a-impure.o)
 .ARM.attributes
                0x0000000000000c13       0x47 /Users/jkwang/Desktop/nacl_sdk/pepper_canary/toolchain/mac_pnacl/bin/../arm-nacl/lib/libcrt_common.a(lib_a-init.o)
 .ARM.attributes
                0x0000000000000c5a       0x47 /Users/jkwang/Desktop/nacl_sdk/pepper_canary/toolchain/mac_pnacl/bin/../arm-nacl/lib/libcrt_common.a(lib_a-memset.o)
 .ARM.attributes
                0x0000000000000ca1       0x47 /Users/jkwang/Desktop/nacl_sdk/pepper_canary/toolchain/mac_pnacl/bin/../arm-nacl/lib/libcrt_common.a(lib_a-sleep.o)
 .ARM.attributes
                0x0000000000000ce8       0x47 /Users/jkwang/Desktop/nacl_sdk/pepper_canary/toolchain/mac_pnacl/bin/../arm-nacl/lib/libcrt_common.a(lib_a-stdio.o)
 .ARM.attributes
                0x0000000000000d2f       0x47 /Users/jkwang/Desktop/nacl_sdk/pepper_canary/toolchain/mac_pnacl/bin/../arm-nacl/lib/libcrt_common.a(lib_a-strcat.o)
 .ARM.attributes
                0x0000000000000d76       0x16 /Users/jkwang/Desktop/nacl_sdk/pepper_canary/toolchain/mac_pnacl/bin/../arm-nacl/lib/libcrt_common.a(lib_a-strcmp.o)
 .ARM.attributes
                0x0000000000000d8c       0x47 /Users/jkwang/Desktop/nacl_sdk/pepper_canary/toolchain/mac_pnacl/bin/../arm-nacl/lib/libcrt_common.a(lib_a-strcpy.o)
 .ARM.attributes
                0x0000000000000dd3       0x16 /Users/jkwang/Desktop/nacl_sdk/pepper_canary/toolchain/mac_pnacl/bin/../arm-nacl/lib/libcrt_common.a(lib_a-strlen-armv7.o)
 .ARM.attributes
                0x0000000000000de9       0x47 /Users/jkwang/Desktop/nacl_sdk/pepper_canary/toolchain/mac_pnacl/bin/../arm-nacl/lib/libcrt_common.a(lib_a-strncmp.o)
 .ARM.attributes
                0x0000000000000e30       0x47 /Users/jkwang/Desktop/nacl_sdk/pepper_canary/toolchain/mac_pnacl/bin/../arm-nacl/lib/libcrt_common.a(lib_a-vfprintf.o)
 .ARM.attributes
                0x0000000000000e77       0x47 /Users/jkwang/Desktop/nacl_sdk/pepper_canary/toolchain/mac_pnacl/bin/../arm-nacl/lib/libcrt_common.a(lib_a-vsnprintf.o)
 .ARM.attributes
                0x0000000000000ebe       0x47 /Users/jkwang/Desktop/nacl_sdk/pepper_canary/toolchain/mac_pnacl/bin/../arm-nacl/lib/libcrt_common.a(lib_a-vsprintf.o)
 .ARM.attributes
                0x0000000000000f05       0x47 /Users/jkwang/Desktop/nacl_sdk/pepper_canary/toolchain/mac_pnacl/bin/../arm-nacl/lib/libcrt_common.a(lib_a-wcrtomb.o)
 .ARM.attributes
                0x0000000000000f4c       0x47 /Users/jkwang/Desktop/nacl_sdk/pepper_canary/toolchain/mac_pnacl/bin/../arm-nacl/lib/libcrt_common.a(lib_a-wcsrtombs.o)
 .ARM.attributes
                0x0000000000000f93       0x47 /Users/jkwang/Desktop/nacl_sdk/pepper_canary/toolchain/mac_pnacl/bin/../arm-nacl/lib/libcrt_common.a(lib_a-wctomb_r.o)
 .ARM.attributes
                0x0000000000000fda       0x47 /Users/jkwang/Desktop/nacl_sdk/pepper_canary/toolchain/mac_pnacl/bin/../arm-nacl/lib/libcrt_common.a(lib_a-wsetup.o)
 .ARM.attributes
                0x0000000000001021       0x47 /Users/jkwang/Desktop/nacl_sdk/pepper_canary/toolchain/mac_pnacl/bin/../arm-nacl/lib/libcrt_common.a(lib_a-__atexit.o)
 .ARM.attributes
                0x0000000000001068       0x47 /Users/jkwang/Desktop/nacl_sdk/pepper_canary/toolchain/mac_pnacl/bin/../arm-nacl/lib/libcrt_common.a(lib_a-__call_atexit.o)
 .ARM.attributes
                0x00000000000010af       0x47 /Users/jkwang/Desktop/nacl_sdk/pepper_canary/toolchain/mac_pnacl/bin/../arm-nacl/lib/libcrt_common.a(lib_a-dtoa.o)
 .ARM.attributes
                0x00000000000010f6       0x47 /Users/jkwang/Desktop/nacl_sdk/pepper_canary/toolchain/mac_pnacl/bin/../arm-nacl/lib/libcrt_common.a(lib_a-envlock.o)
 .ARM.attributes
                0x000000000000113d       0x47 /Users/jkwang/Desktop/nacl_sdk/pepper_canary/toolchain/mac_pnacl/bin/../arm-nacl/lib/libcrt_common.a(lib_a-fclose.o)
 .ARM.attributes
                0x0000000000001184       0x47 /Users/jkwang/Desktop/nacl_sdk/pepper_canary/toolchain/mac_pnacl/bin/../arm-nacl/lib/libcrt_common.a(lib_a-fvwrite.o)
 .ARM.attributes
                0x00000000000011cb       0x47 /Users/jkwang/Desktop/nacl_sdk/pepper_canary/toolchain/mac_pnacl/bin/../arm-nacl/lib/libcrt_common.a(lib_a-locale.o)
 .ARM.attributes
                0x0000000000001212       0x47 /Users/jkwang/Desktop/nacl_sdk/pepper_canary/toolchain/mac_pnacl/bin/../arm-nacl/lib/libcrt_common.a(lib_a-makebuf.o)
 .ARM.attributes
                0x0000000000001259       0x47 /Users/jkwang/Desktop/nacl_sdk/pepper_canary/toolchain/mac_pnacl/bin/../arm-nacl/lib/libcrt_common.a(lib_a-mbtowc_r.o)
 .ARM.attributes
                0x00000000000012a0       0x1d /Users/jkwang/Desktop/nacl_sdk/pepper_canary/toolchain/mac_pnacl/bin/../arm-nacl/lib/libcrt_common.a(lib_a-memchr.o)
 .ARM.attributes
                0x00000000000012bd       0x21 /Users/jkwang/Desktop/nacl_sdk/pepper_canary/toolchain/mac_pnacl/bin/../arm-nacl/lib/libcrt_common.a(lib_a-memcpy.o)
 .ARM.attributes
                0x00000000000012de       0x47 /Users/jkwang/Desktop/nacl_sdk/pepper_canary/toolchain/mac_pnacl/bin/../arm-nacl/lib/libcrt_common.a(lib_a-memmove.o)
 .ARM.attributes
                0x0000000000001325       0x47 /Users/jkwang/Desktop/nacl_sdk/pepper_canary/toolchain/mac_pnacl/bin/../arm-nacl/lib/libcrt_common.a(lib_a-mprec.o)
 .ARM.attributes
                0x000000000000136c       0x47 /Users/jkwang/Desktop/nacl_sdk/pepper_canary/toolchain/mac_pnacl/bin/../arm-nacl/lib/libcrt_common.a(lib_a-s_fpclassify.o)
 .ARM.attributes
                0x00000000000013b3       0x47 /Users/jkwang/Desktop/nacl_sdk/pepper_canary/toolchain/mac_pnacl/bin/../arm-nacl/lib/libcrt_common.a(lib_a-s_frexp.o)
 .ARM.attributes
                0x00000000000013fa       0x47 /Users/jkwang/Desktop/nacl_sdk/pepper_canary/toolchain/mac_pnacl/bin/../arm-nacl/lib/libcrt_common.a(lib_a-strcasecmp.o)
 .ARM.attributes
                0x0000000000001441       0x47 /Users/jkwang/Desktop/nacl_sdk/pepper_canary/toolchain/mac_pnacl/bin/../arm-nacl/lib/libcrt_common.a(lib_a-strchr.o)
 .ARM.attributes
                0x0000000000001488       0x47 /Users/jkwang/Desktop/nacl_sdk/pepper_canary/toolchain/mac_pnacl/bin/../arm-nacl/lib/libcrt_common.a(lib_a-strlcpy.o)
 .ARM.attributes
                0x00000000000014cf       0x47 /Users/jkwang/Desktop/nacl_sdk/pepper_canary/toolchain/mac_pnacl/bin/../arm-nacl/lib/libcrt_common.a(lib_a-strncasecmp.o)
 .ARM.attributes
                0x0000000000001516       0x47 /Users/jkwang/Desktop/nacl_sdk/pepper_canary/toolchain/mac_pnacl/bin/../arm-nacl/lib/libcrt_common.a(lib_a-strncpy.o)
 .ARM.attributes
                0x000000000000155d       0x47 /Users/jkwang/Desktop/nacl_sdk/pepper_canary/toolchain/mac_pnacl/bin/../arm-nacl/lib/libcrt_common.a(lib_a-strtol.o)
 .ARM.attributes
                0x00000000000015a4       0x47 /Users/jkwang/Desktop/nacl_sdk/pepper_canary/toolchain/mac_pnacl/bin/../arm-nacl/lib/libcrt_common.a(lib_a-svfprintf.o)
 .ARM.attributes
                0x00000000000015eb       0x47 /Users/jkwang/Desktop/nacl_sdk/pepper_canary/toolchain/mac_pnacl/bin/../arm-nacl/lib/libcrt_common.a(lib_a-vfiprintf.o)
 .ARM.attributes
                0x0000000000001632       0x47 /Users/jkwang/Desktop/nacl_sdk/pepper_canary/toolchain/mac_pnacl/bin/../arm-nacl/lib/libcrt_common.a(lib_a-wcsnrtombs.o)
 .ARM.attributes
                0x0000000000001679       0x47 /Users/jkwang/Desktop/nacl_sdk/pepper_canary/toolchain/mac_pnacl/bin/../arm-nacl/lib/libcrt_common.a(lib_a-ctype_.o)
 .ARM.attributes
                0x00000000000016c0       0x47 /Users/jkwang/Desktop/nacl_sdk/pepper_canary/toolchain/mac_pnacl/bin/../arm-nacl/lib/libcrt_common.a(lib_a-fputwc.o)
 .ARM.attributes
                0x0000000000001707       0x47 /Users/jkwang/Desktop/nacl_sdk/pepper_canary/toolchain/mac_pnacl/bin/../arm-nacl/lib/libcrt_common.a(lib_a-svfiprintf.o)
 .ARM.attributes
                0x000000000000174e       0x47 /Users/jkwang/Desktop/nacl_sdk/pepper_canary/toolchain/mac_pnacl/bin/../arm-nacl/lib/libcrt_common.a(lib_a-wbuf.o)
 .ARM.attributes
                0x0000000000001795       0x47 /Users/jkwang/Desktop/nacl_sdk/pepper_canary/toolchain/mac_pnacl/bin/../arm-nacl/lib/libnacl.a(close.o)
 .ARM.attributes
                0x00000000000017dc       0x47 /Users/jkwang/Desktop/nacl_sdk/pepper_canary/toolchain/mac_pnacl/bin/../arm-nacl/lib/libnacl.a(fstat.o)
 .ARM.attributes
                0x0000000000001823       0x47 /Users/jkwang/Desktop/nacl_sdk/pepper_canary/toolchain/mac_pnacl/bin/../arm-nacl/lib/libnacl.a(isatty.o)
 .ARM.attributes
                0x000000000000186a       0x47 /Users/jkwang/Desktop/nacl_sdk/pepper_canary/toolchain/mac_pnacl/bin/../arm-nacl/lib/libnacl.a(lseek.o)
 .ARM.attributes
                0x00000000000018b1       0x47 /Users/jkwang/Desktop/nacl_sdk/pepper_canary/toolchain/mac_pnacl/bin/../arm-nacl/lib/libnacl.a(nanosleep.o)
 .ARM.attributes
                0x00000000000018f8       0x47 /Users/jkwang/Desktop/nacl_sdk/pepper_canary/toolchain/mac_pnacl/bin/../arm-nacl/lib/libnacl.a(nacl_irt_fdio.o)
 .ARM.attributes
                0x000000000000193f       0x47 /Users/jkwang/Desktop/nacl_sdk/pepper_canary/toolchain/mac_pnacl/bin/../arm-nacl/lib/libnacl.a(read.o)
 .ARM.attributes
                0x0000000000001986       0x14 /Users/jkwang/Desktop/nacl_sdk/pepper_canary/toolchain/mac_pnacl/bin/../lib/clang/3.7.0/lib/arm-nacl/libgcc.a(aeabi_memcpy.o)
 .ARM.attributes
                0x000000000000199a       0x14 /Users/jkwang/Desktop/nacl_sdk/pepper_canary/toolchain/mac_pnacl/bin/../lib/clang/3.7.0/lib/arm-nacl/libgcc.a(aeabi_memset.o)
 .ARM.attributes
                0x00000000000019ae       0x16 /Users/jkwang/Desktop/nacl_sdk/pepper_canary/toolchain/mac_pnacl/bin/../lib/clang/3.7.0/lib/arm-nacl/libgcc.a(aeabi_uldivmod.o)
 .ARM.attributes
                0x00000000000019c4       0x4b /Users/jkwang/Desktop/nacl_sdk/pepper_canary/toolchain/mac_pnacl/bin/../lib/clang/3.7.0/lib/arm-nacl/libgcc.a(modsi3.o)
 .ARM.attributes
                0x0000000000001a0f       0x4b /Users/jkwang/Desktop/nacl_sdk/pepper_canary/toolchain/mac_pnacl/bin/../lib/clang/3.7.0/lib/arm-nacl/libgcc.a(udivmoddi4.o)
 .ARM.attributes
                0x0000000000001a5a       0x4b /Users/jkwang/Desktop/nacl_sdk/pepper_canary/toolchain/mac_pnacl/bin/../lib/clang/3.7.0/lib/arm-nacl/libgcc.a(udivsi3.o)
 .ARM.attributes
                0x0000000000001aa5       0x4b /Users/jkwang/Desktop/nacl_sdk/pepper_canary/toolchain/mac_pnacl/bin/../lib/clang/3.7.0/lib/arm-nacl/libgcc.a(umoddi3.o)
 .ARM.attributes
                0x0000000000001af0       0x4b /Users/jkwang/Desktop/nacl_sdk/pepper_canary/toolchain/mac_pnacl/bin/../lib/clang/3.7.0/lib/arm-nacl/libgcc.a(umodsi3.o)
 .ARM.attributes
                0x0000000000001b3b       0x4b /Users/jkwang/Desktop/nacl_sdk/pepper_canary/toolchain/mac_pnacl/bin/../lib/clang/3.7.0/lib/arm-nacl/libgcc.a(divsi3.o)
 .ARM.attributes
                0x0000000000001b86       0x47 /Users/jkwang/Desktop/nacl_sdk/pepper_canary/toolchain/mac_pnacl/bin/../lib/clang/3.7.0/lib/arm-nacl/libgcc_eh.a(unwind-dw2-fde-glibc.o)
 .ARM.attributes
                0x0000000000001bcd       0x47 /Users/jkwang/Desktop/nacl_sdk/pepper_canary/toolchain/mac_pnacl/bin/../lib/clang/3.7.0/lib/arm-nacl/crtend.o
 .ARM.attributes
                0x0000000000001c14       0x14 /Users/jkwang/Desktop/nacl_sdk/pepper_canary/toolchain/mac_pnacl/bin/../arm-nacl/lib/crtn.o

.debug
 *(.debug)

.line
 *(.line)

.debug_srcinfo
 *(.debug_srcinfo)

.debug_sfnames
 *(.debug_sfnames)

.debug_aranges
 *(.debug_aranges)

.debug_pubnames
                0x0000000000000000     0x2f82
 *(.debug_pubnames)
 .debug_pubnames
                0x0000000000000000      0x223 clang-newlib/Release/debugging_arm.o
 .debug_pubnames
                0x0000000000000223      0x1c3 /Users/jkwang/Desktop/nacl_sdk/pepper_canary/lib/clang-newlib_arm/Release/liberror_handling.a(error_handling_arm.o)
 .debug_pubnames
                0x00000000000003e6       0x43 /Users/jkwang/Desktop/nacl_sdk/pepper_canary/lib/clang-newlib_arm/Release/liberror_handling.a(string_stream_arm.o)
 .debug_pubnames
                0x0000000000000429      0x62f /Users/jkwang/Desktop/nacl_sdk/pepper_canary/toolchain/mac_pnacl/bin/../arm-nacl/lib/libpthread.a(nc_thread.o)
 .debug_pubnames
                0x0000000000000a58      0x19c /Users/jkwang/Desktop/nacl_sdk/pepper_canary/toolchain/mac_pnacl/bin/../arm-nacl/lib/libpthread.a(nc_mutex.o)
 .debug_pubnames
                0x0000000000000bf4      0x166 /Users/jkwang/Desktop/nacl_sdk/pepper_canary/toolchain/mac_pnacl/bin/../arm-nacl/lib/libpthread.a(nc_condvar.o)
 .debug_pubnames
                0x0000000000000d5a      0x4d7 /Users/jkwang/Desktop/nacl_sdk/pepper_canary/toolchain/mac_pnacl/bin/../arm-nacl/lib/libpthread.a(valgrind_annotations.o)
 .debug_pubnames
                0x0000000000001231       0x49 /Users/jkwang/Desktop/nacl_sdk/pepper_canary/toolchain/mac_pnacl/bin/../arm-nacl/lib/libpthread.a(nc_init_irt.o)
 .debug_pubnames
                0x000000000000127a      0x1f6 /Users/jkwang/Desktop/nacl_sdk/pepper_canary/toolchain/mac_pnacl/bin/../arm-nacl/lib/libnacl.a(nacl_irt.o)
 .debug_pubnames
                0x0000000000001470       0x1c /Users/jkwang/Desktop/nacl_sdk/pepper_canary/toolchain/mac_pnacl/bin/../arm-nacl/lib/libnacl.a(_exit.o)
 .debug_pubnames
                0x000000000000148c       0x1b /Users/jkwang/Desktop/nacl_sdk/pepper_canary/toolchain/mac_pnacl/bin/../arm-nacl/lib/libnacl.a(mmap.o)
 .debug_pubnames
                0x00000000000014a7       0x1d /Users/jkwang/Desktop/nacl_sdk/pepper_canary/toolchain/mac_pnacl/bin/../arm-nacl/lib/libnacl.a(munmap.o)
 .debug_pubnames
                0x00000000000014c4       0x2b /Users/jkwang/Desktop/nacl_sdk/pepper_canary/toolchain/mac_pnacl/bin/../arm-nacl/lib/libnacl.a(nacl_interface_query.o)
 .debug_pubnames
                0x00000000000014ef       0x1c /Users/jkwang/Desktop/nacl_sdk/pepper_canary/toolchain/mac_pnacl/bin/../arm-nacl/lib/libnacl.a(write.o)
 .debug_pubnames
                0x000000000000150b       0x28 /Users/jkwang/Desktop/nacl_sdk/pepper_canary/toolchain/mac_pnacl/bin/../arm-nacl/lib/libnacl.a(environ.o)
 .debug_pubnames
                0x0000000000001533      0x38d /Users/jkwang/Desktop/nacl_sdk/pepper_canary/toolchain/mac_pnacl/bin/../arm-nacl/lib/libnacl.a(malloc.o)
 .debug_pubnames
                0x00000000000018c0       0xc5 /Users/jkwang/Desktop/nacl_sdk/pepper_canary/toolchain/mac_pnacl/bin/../arm-nacl/lib/libnacl.a(start.o)
 .debug_pubnames
                0x0000000000001985       0x25 /Users/jkwang/Desktop/nacl_sdk/pepper_canary/toolchain/mac_pnacl/bin/../arm-nacl/lib/libnacl.a(nacl_read_tp.o)
 .debug_pubnames
                0x00000000000019aa       0x33 /Users/jkwang/Desktop/nacl_sdk/pepper_canary/toolchain/mac_pnacl/bin/../arm-nacl/lib/libnacl.a(pthread_initialize_minimal.o)
 .debug_pubnames
                0x00000000000019dd      0x12e /Users/jkwang/Desktop/nacl_sdk/pepper_canary/toolchain/mac_pnacl/bin/../arm-nacl/lib/libnacl.a(tls.o)
 .debug_pubnames
                0x0000000000001b0b       0x52 /Users/jkwang/Desktop/nacl_sdk/pepper_canary/toolchain/mac_pnacl/bin/../arm-nacl/lib/libnacl.a(nacl_irt_init.o)
 .debug_pubnames
                0x0000000000001b5d       0x23 /Users/jkwang/Desktop/nacl_sdk/pepper_canary/toolchain/mac_pnacl/bin/../arm-nacl/lib/libnacl.a(nacl_tls_get.o)
 .debug_pubnames
                0x0000000000001b80       0x24 /Users/jkwang/Desktop/nacl_sdk/pepper_canary/toolchain/mac_pnacl/bin/../arm-nacl/lib/libnacl.a(nacl_tls_init.o)
 .debug_pubnames
                0x0000000000001ba4       0x28 /Users/jkwang/Desktop/nacl_sdk/pepper_canary/toolchain/mac_pnacl/bin/../arm-nacl/lib/libnacl.a(abort.o)
 .debug_pubnames
                0x0000000000001bcc       0x22 /Users/jkwang/Desktop/nacl_sdk/pepper_canary/toolchain/mac_pnacl/bin/../arm-nacl/lib/libnacl.a(sched_yield.o)
 .debug_pubnames
                0x0000000000001bee       0x1e /Users/jkwang/Desktop/nacl_sdk/pepper_canary/toolchain/mac_pnacl/bin/../arm-nacl/lib/libnacl.a(sysconf.o)
 .debug_pubnames
                0x0000000000001c0c       0x1d /Users/jkwang/Desktop/nacl_sdk/pepper_canary/toolchain/mac_pnacl/bin/../arm-nacl/lib/libcrt_common.a(lib_a-atexit.o)
 .debug_pubnames
                0x0000000000001c29       0x1e /Users/jkwang/Desktop/nacl_sdk/pepper_canary/toolchain/mac_pnacl/bin/../arm-nacl/lib/libcrt_common.a(lib_a-errno.o)
 .debug_pubnames
                0x0000000000001c47       0x1b /Users/jkwang/Desktop/nacl_sdk/pepper_canary/toolchain/mac_pnacl/bin/../arm-nacl/lib/libcrt_common.a(lib_a-exit.o)
 .debug_pubnames
                0x0000000000001c62       0x3a /Users/jkwang/Desktop/nacl_sdk/pepper_canary/toolchain/mac_pnacl/bin/../arm-nacl/lib/libcrt_common.a(lib_a-fflush.o)
 .debug_pubnames
                0x0000000000001c9c      0x121 /Users/jkwang/Desktop/nacl_sdk/pepper_canary/toolchain/mac_pnacl/bin/../arm-nacl/lib/libcrt_common.a(lib_a-findfp.o)
 .debug_pubnames
                0x0000000000001dbd       0x28 /Users/jkwang/Desktop/nacl_sdk/pepper_canary/toolchain/mac_pnacl/bin/../arm-nacl/lib/libcrt_common.a(lib_a-fini.o)
 .debug_pubnames
                0x0000000000001de5       0x2d /Users/jkwang/Desktop/nacl_sdk/pepper_canary/toolchain/mac_pnacl/bin/../arm-nacl/lib/libcrt_common.a(lib_a-fprintf.o)
 .debug_pubnames
                0x0000000000001e12       0x4c /Users/jkwang/Desktop/nacl_sdk/pepper_canary/toolchain/mac_pnacl/bin/../arm-nacl/lib/libcrt_common.a(lib_a-fwalk.o)
 .debug_pubnames
                0x0000000000001e5e       0x2b /Users/jkwang/Desktop/nacl_sdk/pepper_canary/toolchain/mac_pnacl/bin/../arm-nacl/lib/libcrt_common.a(lib_a-fwrite.o)
 .debug_pubnames
                0x0000000000001e89       0x2a /Users/jkwang/Desktop/nacl_sdk/pepper_canary/toolchain/mac_pnacl/bin/../arm-nacl/lib/libcrt_common.a(lib_a-getenv.o)
 .debug_pubnames
                0x0000000000001eb3       0x3d /Users/jkwang/Desktop/nacl_sdk/pepper_canary/toolchain/mac_pnacl/bin/../arm-nacl/lib/libcrt_common.a(lib_a-getenv_r.o)
 .debug_pubnames
                0x0000000000001ef0       0x92 /Users/jkwang/Desktop/nacl_sdk/pepper_canary/toolchain/mac_pnacl/bin/../arm-nacl/lib/libcrt_common.a(lib_a-impure.o)
 .debug_pubnames
                0x0000000000001f82       0x28 /Users/jkwang/Desktop/nacl_sdk/pepper_canary/toolchain/mac_pnacl/bin/../arm-nacl/lib/libcrt_common.a(lib_a-init.o)
 .debug_pubnames
                0x0000000000001faa       0x1d /Users/jkwang/Desktop/nacl_sdk/pepper_canary/toolchain/mac_pnacl/bin/../arm-nacl/lib/libcrt_common.a(lib_a-memset.o)
 .debug_pubnames
                0x0000000000001fc7       0x1c /Users/jkwang/Desktop/nacl_sdk/pepper_canary/toolchain/mac_pnacl/bin/../arm-nacl/lib/libcrt_common.a(lib_a-sleep.o)
 .debug_pubnames
                0x0000000000001fe3       0x53 /Users/jkwang/Desktop/nacl_sdk/pepper_canary/toolchain/mac_pnacl/bin/../arm-nacl/lib/libcrt_common.a(lib_a-stdio.o)
 .debug_pubnames
                0x0000000000002036       0x1d /Users/jkwang/Desktop/nacl_sdk/pepper_canary/toolchain/mac_pnacl/bin/../arm-nacl/lib/libcrt_common.a(lib_a-strcat.o)
 .debug_pubnames
                0x0000000000002053       0x1d /Users/jkwang/Desktop/nacl_sdk/pepper_canary/toolchain/mac_pnacl/bin/../arm-nacl/lib/libcrt_common.a(lib_a-strcpy.o)
 .debug_pubnames
                0x0000000000002070       0x1e /Users/jkwang/Desktop/nacl_sdk/pepper_canary/toolchain/mac_pnacl/bin/../arm-nacl/lib/libcrt_common.a(lib_a-strncmp.o)
 .debug_pubnames
                0x000000000000208e       0x69 /Users/jkwang/Desktop/nacl_sdk/pepper_canary/toolchain/mac_pnacl/bin/../arm-nacl/lib/libcrt_common.a(lib_a-vfprintf.o)
 .debug_pubnames
                0x00000000000020f7       0x31 /Users/jkwang/Desktop/nacl_sdk/pepper_canary/toolchain/mac_pnacl/bin/../arm-nacl/lib/libcrt_common.a(lib_a-vsnprintf.o)
 .debug_pubnames
                0x0000000000002128       0x2f /Users/jkwang/Desktop/nacl_sdk/pepper_canary/toolchain/mac_pnacl/bin/../arm-nacl/lib/libcrt_common.a(lib_a-vsprintf.o)
 .debug_pubnames
                0x0000000000002157       0x2d /Users/jkwang/Desktop/nacl_sdk/pepper_canary/toolchain/mac_pnacl/bin/../arm-nacl/lib/libcrt_common.a(lib_a-wcrtomb.o)
 .debug_pubnames
                0x0000000000002184       0x31 /Users/jkwang/Desktop/nacl_sdk/pepper_canary/toolchain/mac_pnacl/bin/../arm-nacl/lib/libcrt_common.a(lib_a-wcsrtombs.o)
 .debug_pubnames
                0x00000000000021b5       0x88 /Users/jkwang/Desktop/nacl_sdk/pepper_canary/toolchain/mac_pnacl/bin/../arm-nacl/lib/libcrt_common.a(lib_a-wctomb_r.o)
 .debug_pubnames
                0x000000000000223d       0x22 /Users/jkwang/Desktop/nacl_sdk/pepper_canary/toolchain/mac_pnacl/bin/../arm-nacl/lib/libcrt_common.a(lib_a-wsetup.o)
 .debug_pubnames
                0x000000000000225f       0x2a /Users/jkwang/Desktop/nacl_sdk/pepper_canary/toolchain/mac_pnacl/bin/../arm-nacl/lib/libcrt_common.a(lib_a-__atexit.o)
 .debug_pubnames
                0x0000000000002289       0x39 /Users/jkwang/Desktop/nacl_sdk/pepper_canary/toolchain/mac_pnacl/bin/../arm-nacl/lib/libcrt_common.a(lib_a-__call_atexit.o)
 .debug_pubnames
                0x00000000000022c2       0x29 /Users/jkwang/Desktop/nacl_sdk/pepper_canary/toolchain/mac_pnacl/bin/../arm-nacl/lib/libcrt_common.a(lib_a-dtoa.o)
 .debug_pubnames
                0x00000000000022eb       0x48 /Users/jkwang/Desktop/nacl_sdk/pepper_canary/toolchain/mac_pnacl/bin/../arm-nacl/lib/libcrt_common.a(lib_a-envlock.o)
 .debug_pubnames
                0x0000000000002333       0x2b /Users/jkwang/Desktop/nacl_sdk/pepper_canary/toolchain/mac_pnacl/bin/../arm-nacl/lib/libcrt_common.a(lib_a-fclose.o)
 .debug_pubnames
                0x000000000000235e       0x23 /Users/jkwang/Desktop/nacl_sdk/pepper_canary/toolchain/mac_pnacl/bin/../arm-nacl/lib/libcrt_common.a(lib_a-fvwrite.o)
 .debug_pubnames
                0x0000000000002381      0x1f9 /Users/jkwang/Desktop/nacl_sdk/pepper_canary/toolchain/mac_pnacl/bin/../arm-nacl/lib/libcrt_common.a(lib_a-locale.o)
 .debug_pubnames
                0x000000000000257a       0x23 /Users/jkwang/Desktop/nacl_sdk/pepper_canary/toolchain/mac_pnacl/bin/../arm-nacl/lib/libcrt_common.a(lib_a-makebuf.o)
 .debug_pubnames
                0x000000000000259d       0xb1 /Users/jkwang/Desktop/nacl_sdk/pepper_canary/toolchain/mac_pnacl/bin/../arm-nacl/lib/libcrt_common.a(lib_a-mbtowc_r.o)
 .debug_pubnames
                0x000000000000264e       0x1e /Users/jkwang/Desktop/nacl_sdk/pepper_canary/toolchain/mac_pnacl/bin/../arm-nacl/lib/libcrt_common.a(lib_a-memmove.o)
 .debug_pubnames
                0x000000000000266c      0x142 /Users/jkwang/Desktop/nacl_sdk/pepper_canary/toolchain/mac_pnacl/bin/../arm-nacl/lib/libcrt_common.a(lib_a-mprec.o)
 .debug_pubnames
                0x00000000000027ae       0x24 /Users/jkwang/Desktop/nacl_sdk/pepper_canary/toolchain/mac_pnacl/bin/../arm-nacl/lib/libcrt_common.a(lib_a-s_fpclassify.o)
 .debug_pubnames
                0x00000000000027d2       0x26 /Users/jkwang/Desktop/nacl_sdk/pepper_canary/toolchain/mac_pnacl/bin/../arm-nacl/lib/libcrt_common.a(lib_a-s_frexp.o)
 .debug_pubnames
                0x00000000000027f8       0x21 /Users/jkwang/Desktop/nacl_sdk/pepper_canary/toolchain/mac_pnacl/bin/../arm-nacl/lib/libcrt_common.a(lib_a-strcasecmp.o)
 .debug_pubnames
                0x0000000000002819       0x1d /Users/jkwang/Desktop/nacl_sdk/pepper_canary/toolchain/mac_pnacl/bin/../arm-nacl/lib/libcrt_common.a(lib_a-strchr.o)
 .debug_pubnames
                0x0000000000002836       0x1e /Users/jkwang/Desktop/nacl_sdk/pepper_canary/toolchain/mac_pnacl/bin/../arm-nacl/lib/libcrt_common.a(lib_a-strlcpy.o)
 .debug_pubnames
                0x0000000000002854       0x22 /Users/jkwang/Desktop/nacl_sdk/pepper_canary/toolchain/mac_pnacl/bin/../arm-nacl/lib/libcrt_common.a(lib_a-strncasecmp.o)
 .debug_pubnames
                0x0000000000002876       0x1e /Users/jkwang/Desktop/nacl_sdk/pepper_canary/toolchain/mac_pnacl/bin/../arm-nacl/lib/libcrt_common.a(lib_a-strncpy.o)
 .debug_pubnames
                0x0000000000002894       0x2b /Users/jkwang/Desktop/nacl_sdk/pepper_canary/toolchain/mac_pnacl/bin/../arm-nacl/lib/libcrt_common.a(lib_a-strtol.o)
 .debug_pubnames
                0x00000000000028bf       0x4e /Users/jkwang/Desktop/nacl_sdk/pepper_canary/toolchain/mac_pnacl/bin/../arm-nacl/lib/libcrt_common.a(lib_a-svfprintf.o)
 .debug_pubnames
                0x000000000000290d       0x65 /Users/jkwang/Desktop/nacl_sdk/pepper_canary/toolchain/mac_pnacl/bin/../arm-nacl/lib/libcrt_common.a(lib_a-vfiprintf.o)
 .debug_pubnames
                0x0000000000002972       0x33 /Users/jkwang/Desktop/nacl_sdk/pepper_canary/toolchain/mac_pnacl/bin/../arm-nacl/lib/libcrt_common.a(lib_a-wcsnrtombs.o)
 .debug_pubnames
                0x00000000000029a5       0x40 /Users/jkwang/Desktop/nacl_sdk/pepper_canary/toolchain/mac_pnacl/bin/../arm-nacl/lib/libcrt_common.a(lib_a-ctype_.o)
 .debug_pubnames
                0x00000000000029e5       0x38 /Users/jkwang/Desktop/nacl_sdk/pepper_canary/toolchain/mac_pnacl/bin/../arm-nacl/lib/libcrt_common.a(lib_a-fputwc.o)
 .debug_pubnames
                0x0000000000002a1d       0x4a /Users/jkwang/Desktop/nacl_sdk/pepper_canary/toolchain/mac_pnacl/bin/../arm-nacl/lib/libcrt_common.a(lib_a-svfiprintf.o)
 .debug_pubnames
                0x0000000000002a67       0x2c /Users/jkwang/Desktop/nacl_sdk/pepper_canary/toolchain/mac_pnacl/bin/../arm-nacl/lib/libcrt_common.a(lib_a-wbuf.o)
 .debug_pubnames
                0x0000000000002a93       0x1c /Users/jkwang/Desktop/nacl_sdk/pepper_canary/toolchain/mac_pnacl/bin/../arm-nacl/lib/libnacl.a(close.o)
 .debug_pubnames
                0x0000000000002aaf       0x1c /Users/jkwang/Desktop/nacl_sdk/pepper_canary/toolchain/mac_pnacl/bin/../arm-nacl/lib/libnacl.a(fstat.o)
 .debug_pubnames
                0x0000000000002acb       0x1d /Users/jkwang/Desktop/nacl_sdk/pepper_canary/toolchain/mac_pnacl/bin/../arm-nacl/lib/libnacl.a(isatty.o)
 .debug_pubnames
                0x0000000000002ae8       0x1c /Users/jkwang/Desktop/nacl_sdk/pepper_canary/toolchain/mac_pnacl/bin/../arm-nacl/lib/libnacl.a(lseek.o)
 .debug_pubnames
                0x0000000000002b04       0x20 /Users/jkwang/Desktop/nacl_sdk/pepper_canary/toolchain/mac_pnacl/bin/../arm-nacl/lib/libnacl.a(nanosleep.o)
 .debug_pubnames
                0x0000000000002b24       0x32 /Users/jkwang/Desktop/nacl_sdk/pepper_canary/toolchain/mac_pnacl/bin/../arm-nacl/lib/libnacl.a(nacl_irt_fdio.o)
 .debug_pubnames
                0x0000000000002b56       0x1b /Users/jkwang/Desktop/nacl_sdk/pepper_canary/toolchain/mac_pnacl/bin/../arm-nacl/lib/libnacl.a(read.o)
 .debug_pubnames
                0x0000000000002b71      0x411 /Users/jkwang/Desktop/nacl_sdk/pepper_canary/toolchain/mac_pnacl/bin/../lib/clang/3.7.0/lib/arm-nacl/libgcc_eh.a(unwind-dw2-fde-glibc.o)

.debug_info     0x0000000000000000    0x2194b
 *(.debug_info .gnu.linkonce.wi.*)
 .debug_info    0x0000000000000000      0xbc7 clang-newlib/Release/debugging_arm.o
 .debug_info    0x0000000000000bc7      0x7a3 /Users/jkwang/Desktop/nacl_sdk/pepper_canary/lib/clang-newlib_arm/Release/liberror_handling.a(error_handling_arm.o)
 .debug_info    0x000000000000136a      0x1a4 /Users/jkwang/Desktop/nacl_sdk/pepper_canary/lib/clang-newlib_arm/Release/liberror_handling.a(string_stream_arm.o)
 .debug_info    0x000000000000150e     0x13d7 /Users/jkwang/Desktop/nacl_sdk/pepper_canary/toolchain/mac_pnacl/bin/../arm-nacl/lib/libpthread.a(nc_thread.o)
 .debug_info    0x00000000000028e5      0x87f /Users/jkwang/Desktop/nacl_sdk/pepper_canary/toolchain/mac_pnacl/bin/../arm-nacl/lib/libpthread.a(nc_mutex.o)
 .debug_info    0x0000000000003164      0x613 /Users/jkwang/Desktop/nacl_sdk/pepper_canary/toolchain/mac_pnacl/bin/../arm-nacl/lib/libpthread.a(nc_condvar.o)
 .debug_info    0x0000000000003777      0x935 /Users/jkwang/Desktop/nacl_sdk/pepper_canary/toolchain/mac_pnacl/bin/../arm-nacl/lib/libpthread.a(valgrind_annotations.o)
 .debug_info    0x00000000000040ac      0x111 /Users/jkwang/Desktop/nacl_sdk/pepper_canary/toolchain/mac_pnacl/bin/../arm-nacl/lib/libpthread.a(nc_init_irt.o)
 .debug_info    0x00000000000041bd      0xb5b /Users/jkwang/Desktop/nacl_sdk/pepper_canary/toolchain/mac_pnacl/bin/../arm-nacl/lib/libnacl.a(nacl_irt.o)
 .debug_info    0x0000000000004d18       0x4d /Users/jkwang/Desktop/nacl_sdk/pepper_canary/toolchain/mac_pnacl/bin/../arm-nacl/lib/libnacl.a(_exit.o)
 .debug_info    0x0000000000004d65       0xe2 /Users/jkwang/Desktop/nacl_sdk/pepper_canary/toolchain/mac_pnacl/bin/../arm-nacl/lib/libnacl.a(mmap.o)
 .debug_info    0x0000000000004e47       0x82 /Users/jkwang/Desktop/nacl_sdk/pepper_canary/toolchain/mac_pnacl/bin/../arm-nacl/lib/libnacl.a(munmap.o)
 .debug_info    0x0000000000004ec9       0x8a /Users/jkwang/Desktop/nacl_sdk/pepper_canary/toolchain/mac_pnacl/bin/../arm-nacl/lib/libnacl.a(nacl_interface_query.o)
 .debug_info    0x0000000000004f53       0xa3 /Users/jkwang/Desktop/nacl_sdk/pepper_canary/toolchain/mac_pnacl/bin/../arm-nacl/lib/libnacl.a(write.o)
 .debug_info    0x0000000000004ff6       0x65 /Users/jkwang/Desktop/nacl_sdk/pepper_canary/toolchain/mac_pnacl/bin/../arm-nacl/lib/libnacl.a(environ.o)
 .debug_info    0x000000000000505b     0x3ce7 /Users/jkwang/Desktop/nacl_sdk/pepper_canary/toolchain/mac_pnacl/bin/../arm-nacl/lib/libnacl.a(malloc.o)
 .debug_info    0x0000000000008d42      0x298 /Users/jkwang/Desktop/nacl_sdk/pepper_canary/toolchain/mac_pnacl/bin/../arm-nacl/lib/libnacl.a(start.o)
 .debug_info    0x0000000000008fda       0x3d /Users/jkwang/Desktop/nacl_sdk/pepper_canary/toolchain/mac_pnacl/bin/../arm-nacl/lib/libnacl.a(nacl_read_tp.o)
 .debug_info    0x0000000000009017       0x88 /Users/jkwang/Desktop/nacl_sdk/pepper_canary/toolchain/mac_pnacl/bin/../arm-nacl/lib/libnacl.a(pthread_initialize_minimal.o)
 .debug_info    0x000000000000909f      0x545 /Users/jkwang/Desktop/nacl_sdk/pepper_canary/toolchain/mac_pnacl/bin/../arm-nacl/lib/libnacl.a(tls.o)
 .debug_info    0x00000000000095e4      0x264 /Users/jkwang/Desktop/nacl_sdk/pepper_canary/toolchain/mac_pnacl/bin/../arm-nacl/lib/libnacl.a(nacl_irt_init.o)
 .debug_info    0x0000000000009848       0x3d /Users/jkwang/Desktop/nacl_sdk/pepper_canary/toolchain/mac_pnacl/bin/../arm-nacl/lib/libnacl.a(nacl_tls_get.o)
 .debug_info    0x0000000000009885       0x52 /Users/jkwang/Desktop/nacl_sdk/pepper_canary/toolchain/mac_pnacl/bin/../arm-nacl/lib/libnacl.a(nacl_tls_init.o)
 .debug_info    0x00000000000098d7       0x69 /Users/jkwang/Desktop/nacl_sdk/pepper_canary/toolchain/mac_pnacl/bin/../arm-nacl/lib/libnacl.a(abort.o)
 .debug_info    0x0000000000009940       0x53 /Users/jkwang/Desktop/nacl_sdk/pepper_canary/toolchain/mac_pnacl/bin/../arm-nacl/lib/libnacl.a(sched_yield.o)
 .debug_info    0x0000000000009993       0x78 /Users/jkwang/Desktop/nacl_sdk/pepper_canary/toolchain/mac_pnacl/bin/../arm-nacl/lib/libnacl.a(sysconf.o)
 .debug_info    0x0000000000009a0b       0x75 /Users/jkwang/Desktop/nacl_sdk/pepper_canary/toolchain/mac_pnacl/bin/../arm-nacl/lib/libcrt_common.a(lib_a-atexit.o)
 .debug_info    0x0000000000009a80       0x48 /Users/jkwang/Desktop/nacl_sdk/pepper_canary/toolchain/mac_pnacl/bin/../arm-nacl/lib/libcrt_common.a(lib_a-errno.o)
 .debug_info    0x0000000000009ac8       0x50 /Users/jkwang/Desktop/nacl_sdk/pepper_canary/toolchain/mac_pnacl/bin/../arm-nacl/lib/libcrt_common.a(lib_a-exit.o)
 .debug_info    0x0000000000009b18      0x9b6 /Users/jkwang/Desktop/nacl_sdk/pepper_canary/toolchain/mac_pnacl/bin/../arm-nacl/lib/libcrt_common.a(lib_a-fflush.o)
 .debug_info    0x000000000000a4ce      0xb5d /Users/jkwang/Desktop/nacl_sdk/pepper_canary/toolchain/mac_pnacl/bin/../arm-nacl/lib/libcrt_common.a(lib_a-findfp.o)
 .debug_info    0x000000000000b02b       0x65 /Users/jkwang/Desktop/nacl_sdk/pepper_canary/toolchain/mac_pnacl/bin/../arm-nacl/lib/libcrt_common.a(lib_a-fini.o)
 .debug_info    0x000000000000b090      0x90f /Users/jkwang/Desktop/nacl_sdk/pepper_canary/toolchain/mac_pnacl/bin/../arm-nacl/lib/libcrt_common.a(lib_a-fprintf.o)
 .debug_info    0x000000000000b99f      0xa4d /Users/jkwang/Desktop/nacl_sdk/pepper_canary/toolchain/mac_pnacl/bin/../arm-nacl/lib/libcrt_common.a(lib_a-fwalk.o)
 .debug_info    0x000000000000c3ec      0x998 /Users/jkwang/Desktop/nacl_sdk/pepper_canary/toolchain/mac_pnacl/bin/../arm-nacl/lib/libcrt_common.a(lib_a-fwrite.o)
 .debug_info    0x000000000000cd84       0xb0 /Users/jkwang/Desktop/nacl_sdk/pepper_canary/toolchain/mac_pnacl/bin/../arm-nacl/lib/libcrt_common.a(lib_a-getenv.o)
 .debug_info    0x000000000000ce34      0x8ef /Users/jkwang/Desktop/nacl_sdk/pepper_canary/toolchain/mac_pnacl/bin/../arm-nacl/lib/libcrt_common.a(lib_a-getenv_r.o)
 .debug_info    0x000000000000d723      0x892 /Users/jkwang/Desktop/nacl_sdk/pepper_canary/toolchain/mac_pnacl/bin/../arm-nacl/lib/libcrt_common.a(lib_a-impure.o)
 .debug_info    0x000000000000dfb5       0x65 /Users/jkwang/Desktop/nacl_sdk/pepper_canary/toolchain/mac_pnacl/bin/../arm-nacl/lib/libcrt_common.a(lib_a-init.o)
 .debug_info    0x000000000000e01a       0xe7 /Users/jkwang/Desktop/nacl_sdk/pepper_canary/toolchain/mac_pnacl/bin/../arm-nacl/lib/libcrt_common.a(lib_a-memset.o)
 .debug_info    0x000000000000e101       0xb2 /Users/jkwang/Desktop/nacl_sdk/pepper_canary/toolchain/mac_pnacl/bin/../arm-nacl/lib/libcrt_common.a(lib_a-sleep.o)
 .debug_info    0x000000000000e1b3      0xa0e /Users/jkwang/Desktop/nacl_sdk/pepper_canary/toolchain/mac_pnacl/bin/../arm-nacl/lib/libcrt_common.a(lib_a-stdio.o)
 .debug_info    0x000000000000ebc1       0xb0 /Users/jkwang/Desktop/nacl_sdk/pepper_canary/toolchain/mac_pnacl/bin/../arm-nacl/lib/libcrt_common.a(lib_a-strcat.o)
 .debug_info    0x000000000000ec71       0x48 /Users/jkwang/Desktop/nacl_sdk/pepper_canary/toolchain/mac_pnacl/bin/../arm-nacl/lib/libcrt_common.a(lib_a-strcpy.o)
 .debug_info    0x000000000000ecb9       0xd6 /Users/jkwang/Desktop/nacl_sdk/pepper_canary/toolchain/mac_pnacl/bin/../arm-nacl/lib/libcrt_common.a(lib_a-strncmp.o)
 .debug_info    0x000000000000ed8f     0x1027 /Users/jkwang/Desktop/nacl_sdk/pepper_canary/toolchain/mac_pnacl/bin/../arm-nacl/lib/libcrt_common.a(lib_a-vfprintf.o)
 .debug_info    0x000000000000fdb6      0x98d /Users/jkwang/Desktop/nacl_sdk/pepper_canary/toolchain/mac_pnacl/bin/../arm-nacl/lib/libcrt_common.a(lib_a-vsnprintf.o)
 .debug_info    0x0000000000010743      0x964 /Users/jkwang/Desktop/nacl_sdk/pepper_canary/toolchain/mac_pnacl/bin/../arm-nacl/lib/libcrt_common.a(lib_a-vsprintf.o)
 .debug_info    0x00000000000110a7      0x93f /Users/jkwang/Desktop/nacl_sdk/pepper_canary/toolchain/mac_pnacl/bin/../arm-nacl/lib/libcrt_common.a(lib_a-wcrtomb.o)
 .debug_info    0x00000000000119e6      0x918 /Users/jkwang/Desktop/nacl_sdk/pepper_canary/toolchain/mac_pnacl/bin/../arm-nacl/lib/libcrt_common.a(lib_a-wcsrtombs.o)
 .debug_info    0x00000000000122fe      0xb4f /Users/jkwang/Desktop/nacl_sdk/pepper_canary/toolchain/mac_pnacl/bin/../arm-nacl/lib/libcrt_common.a(lib_a-wctomb_r.o)
 .debug_info    0x0000000000012e4d      0x882 /Users/jkwang/Desktop/nacl_sdk/pepper_canary/toolchain/mac_pnacl/bin/../arm-nacl/lib/libcrt_common.a(lib_a-wsetup.o)
 .debug_info    0x00000000000136cf      0x16d /Users/jkwang/Desktop/nacl_sdk/pepper_canary/toolchain/mac_pnacl/bin/../arm-nacl/lib/libcrt_common.a(lib_a-__atexit.o)
 .debug_info    0x000000000001383c      0x207 /Users/jkwang/Desktop/nacl_sdk/pepper_canary/toolchain/mac_pnacl/bin/../arm-nacl/lib/libcrt_common.a(lib_a-__call_atexit.o)
 .debug_info    0x0000000000013a43      0xc13 /Users/jkwang/Desktop/nacl_sdk/pepper_canary/toolchain/mac_pnacl/bin/../arm-nacl/lib/libcrt_common.a(lib_a-dtoa.o)
 .debug_info    0x0000000000014656      0x874 /Users/jkwang/Desktop/nacl_sdk/pepper_canary/toolchain/mac_pnacl/bin/../arm-nacl/lib/libcrt_common.a(lib_a-envlock.o)
 .debug_info    0x0000000000014eca      0x8b6 /Users/jkwang/Desktop/nacl_sdk/pepper_canary/toolchain/mac_pnacl/bin/../arm-nacl/lib/libcrt_common.a(lib_a-fclose.o)
 .debug_info    0x0000000000015780      0x989 /Users/jkwang/Desktop/nacl_sdk/pepper_canary/toolchain/mac_pnacl/bin/../arm-nacl/lib/libcrt_common.a(lib_a-fvwrite.o)
 .debug_info    0x0000000000016109      0xe09 /Users/jkwang/Desktop/nacl_sdk/pepper_canary/toolchain/mac_pnacl/bin/../arm-nacl/lib/libcrt_common.a(lib_a-locale.o)
 .debug_info    0x0000000000016f12      0xa62 /Users/jkwang/Desktop/nacl_sdk/pepper_canary/toolchain/mac_pnacl/bin/../arm-nacl/lib/libcrt_common.a(lib_a-makebuf.o)
 .debug_info    0x0000000000017974      0xda8 /Users/jkwang/Desktop/nacl_sdk/pepper_canary/toolchain/mac_pnacl/bin/../arm-nacl/lib/libcrt_common.a(lib_a-mbtowc_r.o)
 .debug_info    0x000000000001871c       0xe9 /Users/jkwang/Desktop/nacl_sdk/pepper_canary/toolchain/mac_pnacl/bin/../arm-nacl/lib/libcrt_common.a(lib_a-memmove.o)
 .debug_info    0x0000000000018805     0x16e5 /Users/jkwang/Desktop/nacl_sdk/pepper_canary/toolchain/mac_pnacl/bin/../arm-nacl/lib/libcrt_common.a(lib_a-mprec.o)
 .debug_info    0x0000000000019eea       0xe7 /Users/jkwang/Desktop/nacl_sdk/pepper_canary/toolchain/mac_pnacl/bin/../arm-nacl/lib/libcrt_common.a(lib_a-s_fpclassify.o)
 .debug_info    0x0000000000019fd1      0x153 /Users/jkwang/Desktop/nacl_sdk/pepper_canary/toolchain/mac_pnacl/bin/../arm-nacl/lib/libcrt_common.a(lib_a-s_frexp.o)
 .debug_info    0x000000000001a124      0x100 /Users/jkwang/Desktop/nacl_sdk/pepper_canary/toolchain/mac_pnacl/bin/../arm-nacl/lib/libcrt_common.a(lib_a-strcasecmp.o)
 .debug_info    0x000000000001a224       0xe5 /Users/jkwang/Desktop/nacl_sdk/pepper_canary/toolchain/mac_pnacl/bin/../arm-nacl/lib/libcrt_common.a(lib_a-strchr.o)
 .debug_info    0x000000000001a309       0xbd /Users/jkwang/Desktop/nacl_sdk/pepper_canary/toolchain/mac_pnacl/bin/../arm-nacl/lib/libcrt_common.a(lib_a-strlcpy.o)
 .debug_info    0x000000000001a3c6      0x11a /Users/jkwang/Desktop/nacl_sdk/pepper_canary/toolchain/mac_pnacl/bin/../arm-nacl/lib/libcrt_common.a(lib_a-strncasecmp.o)
 .debug_info    0x000000000001a4e0       0xec /Users/jkwang/Desktop/nacl_sdk/pepper_canary/toolchain/mac_pnacl/bin/../arm-nacl/lib/libcrt_common.a(lib_a-strncpy.o)
 .debug_info    0x000000000001a5cc      0x93c /Users/jkwang/Desktop/nacl_sdk/pepper_canary/toolchain/mac_pnacl/bin/../arm-nacl/lib/libcrt_common.a(lib_a-strtol.o)
 .debug_info    0x000000000001af08      0xf38 /Users/jkwang/Desktop/nacl_sdk/pepper_canary/toolchain/mac_pnacl/bin/../arm-nacl/lib/libcrt_common.a(lib_a-svfprintf.o)
 .debug_info    0x000000000001be40     0x127a /Users/jkwang/Desktop/nacl_sdk/pepper_canary/toolchain/mac_pnacl/bin/../arm-nacl/lib/libcrt_common.a(lib_a-vfiprintf.o)
 .debug_info    0x000000000001d0ba      0x9c4 /Users/jkwang/Desktop/nacl_sdk/pepper_canary/toolchain/mac_pnacl/bin/../arm-nacl/lib/libcrt_common.a(lib_a-wcsnrtombs.o)
 .debug_info    0x000000000001da7e       0x94 /Users/jkwang/Desktop/nacl_sdk/pepper_canary/toolchain/mac_pnacl/bin/../arm-nacl/lib/libcrt_common.a(lib_a-ctype_.o)
 .debug_info    0x000000000001db12      0x989 /Users/jkwang/Desktop/nacl_sdk/pepper_canary/toolchain/mac_pnacl/bin/../arm-nacl/lib/libcrt_common.a(lib_a-fputwc.o)
 .debug_info    0x000000000001e49b      0xcb8 /Users/jkwang/Desktop/nacl_sdk/pepper_canary/toolchain/mac_pnacl/bin/../arm-nacl/lib/libcrt_common.a(lib_a-svfiprintf.o)
 .debug_info    0x000000000001f153      0x8d4 /Users/jkwang/Desktop/nacl_sdk/pepper_canary/toolchain/mac_pnacl/bin/../arm-nacl/lib/libcrt_common.a(lib_a-wbuf.o)
 .debug_info    0x000000000001fa27       0x62 /Users/jkwang/Desktop/nacl_sdk/pepper_canary/toolchain/mac_pnacl/bin/../arm-nacl/lib/libnacl.a(close.o)
 .debug_info    0x000000000001fa89      0x25a /Users/jkwang/Desktop/nacl_sdk/pepper_canary/toolchain/mac_pnacl/bin/../arm-nacl/lib/libnacl.a(fstat.o)
 .debug_info    0x000000000001fce3       0x71 /Users/jkwang/Desktop/nacl_sdk/pepper_canary/toolchain/mac_pnacl/bin/../arm-nacl/lib/libnacl.a(isatty.o)
 .debug_info    0x000000000001fd54       0xb3 /Users/jkwang/Desktop/nacl_sdk/pepper_canary/toolchain/mac_pnacl/bin/../arm-nacl/lib/libnacl.a(lseek.o)
 .debug_info    0x000000000001fe07       0xce /Users/jkwang/Desktop/nacl_sdk/pepper_canary/toolchain/mac_pnacl/bin/../arm-nacl/lib/libnacl.a(nanosleep.o)
 .debug_info    0x000000000001fed5       0x38 /Users/jkwang/Desktop/nacl_sdk/pepper_canary/toolchain/mac_pnacl/bin/../arm-nacl/lib/libnacl.a(nacl_irt_fdio.o)
 .debug_info    0x000000000001ff0d       0x9e /Users/jkwang/Desktop/nacl_sdk/pepper_canary/toolchain/mac_pnacl/bin/../arm-nacl/lib/libnacl.a(read.o)
 .debug_info    0x000000000001ffab     0x19a0 /Users/jkwang/Desktop/nacl_sdk/pepper_canary/toolchain/mac_pnacl/bin/../lib/clang/3.7.0/lib/arm-nacl/libgcc_eh.a(unwind-dw2-fde-glibc.o)

.debug_abbrev   0x0000000000000000     0x6329
 *(.debug_abbrev)
 .debug_abbrev  0x0000000000000000      0x223 clang-newlib/Release/debugging_arm.o
 .debug_abbrev  0x0000000000000223      0x239 /Users/jkwang/Desktop/nacl_sdk/pepper_canary/lib/clang-newlib_arm/Release/liberror_handling.a(error_handling_arm.o)
 .debug_abbrev  0x000000000000045c       0xf6 /Users/jkwang/Desktop/nacl_sdk/pepper_canary/lib/clang-newlib_arm/Release/liberror_handling.a(string_stream_arm.o)
 .debug_abbrev  0x0000000000000552      0x3b9 /Users/jkwang/Desktop/nacl_sdk/pepper_canary/toolchain/mac_pnacl/bin/../arm-nacl/lib/libpthread.a(nc_thread.o)
 .debug_abbrev  0x000000000000090b      0x216 /Users/jkwang/Desktop/nacl_sdk/pepper_canary/toolchain/mac_pnacl/bin/../arm-nacl/lib/libpthread.a(nc_mutex.o)
 .debug_abbrev  0x0000000000000b21      0x175 /Users/jkwang/Desktop/nacl_sdk/pepper_canary/toolchain/mac_pnacl/bin/../arm-nacl/lib/libpthread.a(nc_condvar.o)
 .debug_abbrev  0x0000000000000c96       0xda /Users/jkwang/Desktop/nacl_sdk/pepper_canary/toolchain/mac_pnacl/bin/../arm-nacl/lib/libpthread.a(valgrind_annotations.o)
 .debug_abbrev  0x0000000000000d70       0xb8 /Users/jkwang/Desktop/nacl_sdk/pepper_canary/toolchain/mac_pnacl/bin/../arm-nacl/lib/libpthread.a(nc_init_irt.o)
 .debug_abbrev  0x0000000000000e28      0x1de /Users/jkwang/Desktop/nacl_sdk/pepper_canary/toolchain/mac_pnacl/bin/../arm-nacl/lib/libnacl.a(nacl_irt.o)
 .debug_abbrev  0x0000000000001006       0x4c /Users/jkwang/Desktop/nacl_sdk/pepper_canary/toolchain/mac_pnacl/bin/../arm-nacl/lib/libnacl.a(_exit.o)
 .debug_abbrev  0x0000000000001052       0x7e /Users/jkwang/Desktop/nacl_sdk/pepper_canary/toolchain/mac_pnacl/bin/../arm-nacl/lib/libnacl.a(mmap.o)
 .debug_abbrev  0x00000000000010d0       0x7e /Users/jkwang/Desktop/nacl_sdk/pepper_canary/toolchain/mac_pnacl/bin/../arm-nacl/lib/libnacl.a(munmap.o)
 .debug_abbrev  0x000000000000114e       0x7d /Users/jkwang/Desktop/nacl_sdk/pepper_canary/toolchain/mac_pnacl/bin/../arm-nacl/lib/libnacl.a(nacl_interface_query.o)
 .debug_abbrev  0x00000000000011cb       0x85 /Users/jkwang/Desktop/nacl_sdk/pepper_canary/toolchain/mac_pnacl/bin/../arm-nacl/lib/libnacl.a(write.o)
 .debug_abbrev  0x0000000000001250       0x60 /Users/jkwang/Desktop/nacl_sdk/pepper_canary/toolchain/mac_pnacl/bin/../arm-nacl/lib/libnacl.a(environ.o)
 .debug_abbrev  0x00000000000012b0      0x352 /Users/jkwang/Desktop/nacl_sdk/pepper_canary/toolchain/mac_pnacl/bin/../arm-nacl/lib/libnacl.a(malloc.o)
 .debug_abbrev  0x0000000000001602      0x143 /Users/jkwang/Desktop/nacl_sdk/pepper_canary/toolchain/mac_pnacl/bin/../arm-nacl/lib/libnacl.a(start.o)
 .debug_abbrev  0x0000000000001745       0x39 /Users/jkwang/Desktop/nacl_sdk/pepper_canary/toolchain/mac_pnacl/bin/../arm-nacl/lib/libnacl.a(nacl_read_tp.o)
 .debug_abbrev  0x000000000000177e       0x6d /Users/jkwang/Desktop/nacl_sdk/pepper_canary/toolchain/mac_pnacl/bin/../arm-nacl/lib/libnacl.a(pthread_initialize_minimal.o)
 .debug_abbrev  0x00000000000017eb      0x1f0 /Users/jkwang/Desktop/nacl_sdk/pepper_canary/toolchain/mac_pnacl/bin/../arm-nacl/lib/libnacl.a(tls.o)
 .debug_abbrev  0x00000000000019db      0x12e /Users/jkwang/Desktop/nacl_sdk/pepper_canary/toolchain/mac_pnacl/bin/../arm-nacl/lib/libnacl.a(nacl_irt_init.o)
 .debug_abbrev  0x0000000000001b09       0x39 /Users/jkwang/Desktop/nacl_sdk/pepper_canary/toolchain/mac_pnacl/bin/../arm-nacl/lib/libnacl.a(nacl_tls_get.o)
 .debug_abbrev  0x0000000000001b42       0x53 /Users/jkwang/Desktop/nacl_sdk/pepper_canary/toolchain/mac_pnacl/bin/../arm-nacl/lib/libnacl.a(nacl_tls_init.o)
 .debug_abbrev  0x0000000000001b95       0x6e /Users/jkwang/Desktop/nacl_sdk/pepper_canary/toolchain/mac_pnacl/bin/../arm-nacl/lib/libnacl.a(abort.o)
 .debug_abbrev  0x0000000000001c03       0x4e /Users/jkwang/Desktop/nacl_sdk/pepper_canary/toolchain/mac_pnacl/bin/../arm-nacl/lib/libnacl.a(sched_yield.o)
 .debug_abbrev  0x0000000000001c51       0x5d /Users/jkwang/Desktop/nacl_sdk/pepper_canary/toolchain/mac_pnacl/bin/../arm-nacl/lib/libnacl.a(sysconf.o)
 .debug_abbrev  0x0000000000001cae       0x74 /Users/jkwang/Desktop/nacl_sdk/pepper_canary/toolchain/mac_pnacl/bin/../arm-nacl/lib/libcrt_common.a(lib_a-atexit.o)
 .debug_abbrev  0x0000000000001d22       0x43 /Users/jkwang/Desktop/nacl_sdk/pepper_canary/toolchain/mac_pnacl/bin/../arm-nacl/lib/libcrt_common.a(lib_a-errno.o)
 .debug_abbrev  0x0000000000001d65       0x4e /Users/jkwang/Desktop/nacl_sdk/pepper_canary/toolchain/mac_pnacl/bin/../arm-nacl/lib/libcrt_common.a(lib_a-exit.o)
 .debug_abbrev  0x0000000000001db3      0x207 /Users/jkwang/Desktop/nacl_sdk/pepper_canary/toolchain/mac_pnacl/bin/../arm-nacl/lib/libcrt_common.a(lib_a-fflush.o)
 .debug_abbrev  0x0000000000001fba      0x2b6 /Users/jkwang/Desktop/nacl_sdk/pepper_canary/toolchain/mac_pnacl/bin/../arm-nacl/lib/libcrt_common.a(lib_a-findfp.o)
 .debug_abbrev  0x0000000000002270       0x63 /Users/jkwang/Desktop/nacl_sdk/pepper_canary/toolchain/mac_pnacl/bin/../arm-nacl/lib/libcrt_common.a(lib_a-fini.o)
 .debug_abbrev  0x00000000000022d3      0x184 /Users/jkwang/Desktop/nacl_sdk/pepper_canary/toolchain/mac_pnacl/bin/../arm-nacl/lib/libcrt_common.a(lib_a-fprintf.o)
 .debug_abbrev  0x0000000000002457      0x1c6 /Users/jkwang/Desktop/nacl_sdk/pepper_canary/toolchain/mac_pnacl/bin/../arm-nacl/lib/libcrt_common.a(lib_a-fwalk.o)
 .debug_abbrev  0x000000000000261d      0x16f /Users/jkwang/Desktop/nacl_sdk/pepper_canary/toolchain/mac_pnacl/bin/../arm-nacl/lib/libcrt_common.a(lib_a-fwrite.o)
 .debug_abbrev  0x000000000000278c       0x68 /Users/jkwang/Desktop/nacl_sdk/pepper_canary/toolchain/mac_pnacl/bin/../arm-nacl/lib/libcrt_common.a(lib_a-getenv.o)
 .debug_abbrev  0x00000000000027f4      0x187 /Users/jkwang/Desktop/nacl_sdk/pepper_canary/toolchain/mac_pnacl/bin/../arm-nacl/lib/libcrt_common.a(lib_a-getenv_r.o)
 .debug_abbrev  0x000000000000297b      0x15a /Users/jkwang/Desktop/nacl_sdk/pepper_canary/toolchain/mac_pnacl/bin/../arm-nacl/lib/libcrt_common.a(lib_a-impure.o)
 .debug_abbrev  0x0000000000002ad5       0x63 /Users/jkwang/Desktop/nacl_sdk/pepper_canary/toolchain/mac_pnacl/bin/../arm-nacl/lib/libcrt_common.a(lib_a-init.o)
 .debug_abbrev  0x0000000000002b38       0x91 /Users/jkwang/Desktop/nacl_sdk/pepper_canary/toolchain/mac_pnacl/bin/../arm-nacl/lib/libcrt_common.a(lib_a-memset.o)
 .debug_abbrev  0x0000000000002bc9       0x83 /Users/jkwang/Desktop/nacl_sdk/pepper_canary/toolchain/mac_pnacl/bin/../arm-nacl/lib/libcrt_common.a(lib_a-sleep.o)
 .debug_abbrev  0x0000000000002c4c      0x178 /Users/jkwang/Desktop/nacl_sdk/pepper_canary/toolchain/mac_pnacl/bin/../arm-nacl/lib/libcrt_common.a(lib_a-stdio.o)
 .debug_abbrev  0x0000000000002dc4       0x94 /Users/jkwang/Desktop/nacl_sdk/pepper_canary/toolchain/mac_pnacl/bin/../arm-nacl/lib/libcrt_common.a(lib_a-strcat.o)
 .debug_abbrev  0x0000000000002e58       0x43 /Users/jkwang/Desktop/nacl_sdk/pepper_canary/toolchain/mac_pnacl/bin/../arm-nacl/lib/libcrt_common.a(lib_a-strcpy.o)
 .debug_abbrev  0x0000000000002e9b       0x75 /Users/jkwang/Desktop/nacl_sdk/pepper_canary/toolchain/mac_pnacl/bin/../arm-nacl/lib/libcrt_common.a(lib_a-strncmp.o)
 .debug_abbrev  0x0000000000002f10      0x25a /Users/jkwang/Desktop/nacl_sdk/pepper_canary/toolchain/mac_pnacl/bin/../arm-nacl/lib/libcrt_common.a(lib_a-vfprintf.o)
 .debug_abbrev  0x000000000000316a      0x1d4 /Users/jkwang/Desktop/nacl_sdk/pepper_canary/toolchain/mac_pnacl/bin/../arm-nacl/lib/libcrt_common.a(lib_a-vsnprintf.o)
 .debug_abbrev  0x000000000000333e      0x1dd /Users/jkwang/Desktop/nacl_sdk/pepper_canary/toolchain/mac_pnacl/bin/../arm-nacl/lib/libcrt_common.a(lib_a-vsprintf.o)
 .debug_abbrev  0x000000000000351b      0x172 /Users/jkwang/Desktop/nacl_sdk/pepper_canary/toolchain/mac_pnacl/bin/../arm-nacl/lib/libcrt_common.a(lib_a-wcrtomb.o)
 .debug_abbrev  0x000000000000368d      0x163 /Users/jkwang/Desktop/nacl_sdk/pepper_canary/toolchain/mac_pnacl/bin/../arm-nacl/lib/libcrt_common.a(lib_a-wcsrtombs.o)
 .debug_abbrev  0x00000000000037f0      0x1a7 /Users/jkwang/Desktop/nacl_sdk/pepper_canary/toolchain/mac_pnacl/bin/../arm-nacl/lib/libcrt_common.a(lib_a-wctomb_r.o)
 .debug_abbrev  0x0000000000003997      0x165 /Users/jkwang/Desktop/nacl_sdk/pepper_canary/toolchain/mac_pnacl/bin/../arm-nacl/lib/libcrt_common.a(lib_a-wsetup.o)
 .debug_abbrev  0x0000000000003afc       0xe3 /Users/jkwang/Desktop/nacl_sdk/pepper_canary/toolchain/mac_pnacl/bin/../arm-nacl/lib/libcrt_common.a(lib_a-__atexit.o)
 .debug_abbrev  0x0000000000003bdf       0xfe /Users/jkwang/Desktop/nacl_sdk/pepper_canary/toolchain/mac_pnacl/bin/../arm-nacl/lib/libcrt_common.a(lib_a-__call_atexit.o)
 .debug_abbrev  0x0000000000003cdd      0x19d /Users/jkwang/Desktop/nacl_sdk/pepper_canary/toolchain/mac_pnacl/bin/../arm-nacl/lib/libcrt_common.a(lib_a-dtoa.o)
 .debug_abbrev  0x0000000000003e7a      0x158 /Users/jkwang/Desktop/nacl_sdk/pepper_canary/toolchain/mac_pnacl/bin/../arm-nacl/lib/libcrt_common.a(lib_a-envlock.o)
 .debug_abbrev  0x0000000000003fd2      0x165 /Users/jkwang/Desktop/nacl_sdk/pepper_canary/toolchain/mac_pnacl/bin/../arm-nacl/lib/libcrt_common.a(lib_a-fclose.o)
 .debug_abbrev  0x0000000000004137      0x177 /Users/jkwang/Desktop/nacl_sdk/pepper_canary/toolchain/mac_pnacl/bin/../arm-nacl/lib/libcrt_common.a(lib_a-fvwrite.o)
 .debug_abbrev  0x00000000000042ae      0x240 /Users/jkwang/Desktop/nacl_sdk/pepper_canary/toolchain/mac_pnacl/bin/../arm-nacl/lib/libcrt_common.a(lib_a-locale.o)
 .debug_abbrev  0x00000000000044ee      0x169 /Users/jkwang/Desktop/nacl_sdk/pepper_canary/toolchain/mac_pnacl/bin/../arm-nacl/lib/libcrt_common.a(lib_a-makebuf.o)
 .debug_abbrev  0x0000000000004657      0x20e /Users/jkwang/Desktop/nacl_sdk/pepper_canary/toolchain/mac_pnacl/bin/../arm-nacl/lib/libcrt_common.a(lib_a-mbtowc_r.o)
 .debug_abbrev  0x0000000000004865       0x8e /Users/jkwang/Desktop/nacl_sdk/pepper_canary/toolchain/mac_pnacl/bin/../arm-nacl/lib/libcrt_common.a(lib_a-memmove.o)
 .debug_abbrev  0x00000000000048f3      0x2d3 /Users/jkwang/Desktop/nacl_sdk/pepper_canary/toolchain/mac_pnacl/bin/../arm-nacl/lib/libcrt_common.a(lib_a-mprec.o)
 .debug_abbrev  0x0000000000004bc6       0xaf /Users/jkwang/Desktop/nacl_sdk/pepper_canary/toolchain/mac_pnacl/bin/../arm-nacl/lib/libcrt_common.a(lib_a-s_fpclassify.o)
 .debug_abbrev  0x0000000000004c75       0xd1 /Users/jkwang/Desktop/nacl_sdk/pepper_canary/toolchain/mac_pnacl/bin/../arm-nacl/lib/libcrt_common.a(lib_a-s_frexp.o)
 .debug_abbrev  0x0000000000004d46       0x85 /Users/jkwang/Desktop/nacl_sdk/pepper_canary/toolchain/mac_pnacl/bin/../arm-nacl/lib/libcrt_common.a(lib_a-strcasecmp.o)
 .debug_abbrev  0x0000000000004dcb       0x84 /Users/jkwang/Desktop/nacl_sdk/pepper_canary/toolchain/mac_pnacl/bin/../arm-nacl/lib/libcrt_common.a(lib_a-strchr.o)
 .debug_abbrev  0x0000000000004e4f       0x84 /Users/jkwang/Desktop/nacl_sdk/pepper_canary/toolchain/mac_pnacl/bin/../arm-nacl/lib/libcrt_common.a(lib_a-strlcpy.o)
 .debug_abbrev  0x0000000000004ed3       0x98 /Users/jkwang/Desktop/nacl_sdk/pepper_canary/toolchain/mac_pnacl/bin/../arm-nacl/lib/libcrt_common.a(lib_a-strncasecmp.o)
 .debug_abbrev  0x0000000000004f6b       0x8b /Users/jkwang/Desktop/nacl_sdk/pepper_canary/toolchain/mac_pnacl/bin/../arm-nacl/lib/libcrt_common.a(lib_a-strncpy.o)
 .debug_abbrev  0x0000000000004ff6      0x163 /Users/jkwang/Desktop/nacl_sdk/pepper_canary/toolchain/mac_pnacl/bin/../arm-nacl/lib/libcrt_common.a(lib_a-strtol.o)
 .debug_abbrev  0x0000000000005159      0x239 /Users/jkwang/Desktop/nacl_sdk/pepper_canary/toolchain/mac_pnacl/bin/../arm-nacl/lib/libcrt_common.a(lib_a-svfprintf.o)
 .debug_abbrev  0x0000000000005392      0x234 /Users/jkwang/Desktop/nacl_sdk/pepper_canary/toolchain/mac_pnacl/bin/../arm-nacl/lib/libcrt_common.a(lib_a-vfiprintf.o)
 .debug_abbrev  0x00000000000055c6      0x186 /Users/jkwang/Desktop/nacl_sdk/pepper_canary/toolchain/mac_pnacl/bin/../arm-nacl/lib/libcrt_common.a(lib_a-wcsnrtombs.o)
 .debug_abbrev  0x000000000000574c       0x83 /Users/jkwang/Desktop/nacl_sdk/pepper_canary/toolchain/mac_pnacl/bin/../arm-nacl/lib/libcrt_common.a(lib_a-ctype_.o)
 .debug_abbrev  0x00000000000057cf      0x1bb /Users/jkwang/Desktop/nacl_sdk/pepper_canary/toolchain/mac_pnacl/bin/../arm-nacl/lib/libcrt_common.a(lib_a-fputwc.o)
 .debug_abbrev  0x000000000000598a      0x1bf /Users/jkwang/Desktop/nacl_sdk/pepper_canary/toolchain/mac_pnacl/bin/../arm-nacl/lib/libcrt_common.a(lib_a-svfiprintf.o)
 .debug_abbrev  0x0000000000005b49      0x165 /Users/jkwang/Desktop/nacl_sdk/pepper_canary/toolchain/mac_pnacl/bin/../arm-nacl/lib/libcrt_common.a(lib_a-wbuf.o)
 .debug_abbrev  0x0000000000005cae       0x5d /Users/jkwang/Desktop/nacl_sdk/pepper_canary/toolchain/mac_pnacl/bin/../arm-nacl/lib/libnacl.a(close.o)
 .debug_abbrev  0x0000000000005d0b       0x9c /Users/jkwang/Desktop/nacl_sdk/pepper_canary/toolchain/mac_pnacl/bin/../arm-nacl/lib/libnacl.a(fstat.o)
 .debug_abbrev  0x0000000000005da7       0x5d /Users/jkwang/Desktop/nacl_sdk/pepper_canary/toolchain/mac_pnacl/bin/../arm-nacl/lib/libnacl.a(isatty.o)
 .debug_abbrev  0x0000000000005e04       0x77 /Users/jkwang/Desktop/nacl_sdk/pepper_canary/toolchain/mac_pnacl/bin/../arm-nacl/lib/libnacl.a(lseek.o)
 .debug_abbrev  0x0000000000005e7b       0xa3 /Users/jkwang/Desktop/nacl_sdk/pepper_canary/toolchain/mac_pnacl/bin/../arm-nacl/lib/libnacl.a(nanosleep.o)
 .debug_abbrev  0x0000000000005f1e       0x32 /Users/jkwang/Desktop/nacl_sdk/pepper_canary/toolchain/mac_pnacl/bin/../arm-nacl/lib/libnacl.a(nacl_irt_fdio.o)
 .debug_abbrev  0x0000000000005f50       0x7e /Users/jkwang/Desktop/nacl_sdk/pepper_canary/toolchain/mac_pnacl/bin/../arm-nacl/lib/libnacl.a(read.o)
 .debug_abbrev  0x0000000000005fce      0x35b /Users/jkwang/Desktop/nacl_sdk/pepper_canary/toolchain/mac_pnacl/bin/../lib/clang/3.7.0/lib/arm-nacl/libgcc_eh.a(unwind-dw2-fde-glibc.o)

.debug_line     0x0000000000000000    0x1552b
 *(.debug_line .debug_line.* .debug_line_end)
 .debug_line    0x0000000000000000      0x457 clang-newlib/Release/debugging_arm.o
 .debug_line    0x0000000000000457      0x4f4 /Users/jkwang/Desktop/nacl_sdk/pepper_canary/lib/clang-newlib_arm/Release/liberror_handling.a(error_handling_arm.o)
 .debug_line    0x000000000000094b      0x17c /Users/jkwang/Desktop/nacl_sdk/pepper_canary/lib/clang-newlib_arm/Release/liberror_handling.a(string_stream_arm.o)
 .debug_line    0x0000000000000ac7      0xc7b /Users/jkwang/Desktop/nacl_sdk/pepper_canary/toolchain/mac_pnacl/bin/../arm-nacl/lib/libpthread.a(nc_thread.o)
 .debug_line    0x0000000000001742      0x4e4 /Users/jkwang/Desktop/nacl_sdk/pepper_canary/toolchain/mac_pnacl/bin/../arm-nacl/lib/libpthread.a(nc_mutex.o)
 .debug_line    0x0000000000001c26      0x39a /Users/jkwang/Desktop/nacl_sdk/pepper_canary/toolchain/mac_pnacl/bin/../arm-nacl/lib/libpthread.a(nc_condvar.o)
 .debug_line    0x0000000000001fc0      0x182 /Users/jkwang/Desktop/nacl_sdk/pepper_canary/toolchain/mac_pnacl/bin/../arm-nacl/lib/libpthread.a(valgrind_annotations.o)
 .debug_line    0x0000000000002142      0x163 /Users/jkwang/Desktop/nacl_sdk/pepper_canary/toolchain/mac_pnacl/bin/../arm-nacl/lib/libpthread.a(nc_init_irt.o)
 .debug_line    0x00000000000022a5      0x407 /Users/jkwang/Desktop/nacl_sdk/pepper_canary/toolchain/mac_pnacl/bin/../arm-nacl/lib/libnacl.a(nacl_irt.o)
 .debug_line    0x00000000000026ac       0x58 /Users/jkwang/Desktop/nacl_sdk/pepper_canary/toolchain/mac_pnacl/bin/../arm-nacl/lib/libnacl.a(_exit.o)
 .debug_line    0x0000000000002704      0x24e /Users/jkwang/Desktop/nacl_sdk/pepper_canary/toolchain/mac_pnacl/bin/../arm-nacl/lib/libnacl.a(mmap.o)
 .debug_line    0x0000000000002952      0x102 /Users/jkwang/Desktop/nacl_sdk/pepper_canary/toolchain/mac_pnacl/bin/../arm-nacl/lib/libnacl.a(munmap.o)
 .debug_line    0x0000000000002a54      0x104 /Users/jkwang/Desktop/nacl_sdk/pepper_canary/toolchain/mac_pnacl/bin/../arm-nacl/lib/libnacl.a(nacl_interface_query.o)
 .debug_line    0x0000000000002b58      0x104 /Users/jkwang/Desktop/nacl_sdk/pepper_canary/toolchain/mac_pnacl/bin/../arm-nacl/lib/libnacl.a(write.o)
 .debug_line    0x0000000000002c5c       0x43 /Users/jkwang/Desktop/nacl_sdk/pepper_canary/toolchain/mac_pnacl/bin/../arm-nacl/lib/libnacl.a(environ.o)
 .debug_line    0x0000000000002c9f     0x2cb9 /Users/jkwang/Desktop/nacl_sdk/pepper_canary/toolchain/mac_pnacl/bin/../arm-nacl/lib/libnacl.a(malloc.o)
 .debug_line    0x0000000000005958      0x292 /Users/jkwang/Desktop/nacl_sdk/pepper_canary/toolchain/mac_pnacl/bin/../arm-nacl/lib/libnacl.a(start.o)
 .debug_line    0x0000000000005bea       0x55 /Users/jkwang/Desktop/nacl_sdk/pepper_canary/toolchain/mac_pnacl/bin/../arm-nacl/lib/libnacl.a(nacl_read_tp.o)
 .debug_line    0x0000000000005c3f      0x116 /Users/jkwang/Desktop/nacl_sdk/pepper_canary/toolchain/mac_pnacl/bin/../arm-nacl/lib/libnacl.a(pthread_initialize_minimal.o)
 .debug_line    0x0000000000005d55      0x499 /Users/jkwang/Desktop/nacl_sdk/pepper_canary/toolchain/mac_pnacl/bin/../arm-nacl/lib/libnacl.a(tls.o)
 .debug_line    0x00000000000061ee      0x33c /Users/jkwang/Desktop/nacl_sdk/pepper_canary/toolchain/mac_pnacl/bin/../arm-nacl/lib/libnacl.a(nacl_irt_init.o)
 .debug_line    0x000000000000652a       0x59 /Users/jkwang/Desktop/nacl_sdk/pepper_canary/toolchain/mac_pnacl/bin/../arm-nacl/lib/libnacl.a(nacl_tls_get.o)
 .debug_line    0x0000000000006583       0x5a /Users/jkwang/Desktop/nacl_sdk/pepper_canary/toolchain/mac_pnacl/bin/../arm-nacl/lib/libnacl.a(nacl_tls_init.o)
 .debug_line    0x00000000000065dd       0x50 /Users/jkwang/Desktop/nacl_sdk/pepper_canary/toolchain/mac_pnacl/bin/../arm-nacl/lib/libnacl.a(abort.o)
 .debug_line    0x000000000000662d       0x69 /Users/jkwang/Desktop/nacl_sdk/pepper_canary/toolchain/mac_pnacl/bin/../arm-nacl/lib/libnacl.a(sched_yield.o)
 .debug_line    0x0000000000006696       0x6a /Users/jkwang/Desktop/nacl_sdk/pepper_canary/toolchain/mac_pnacl/bin/../arm-nacl/lib/libnacl.a(sysconf.o)
 .debug_line    0x0000000000006700       0x80 /Users/jkwang/Desktop/nacl_sdk/pepper_canary/toolchain/mac_pnacl/bin/../arm-nacl/lib/libcrt_common.a(lib_a-atexit.o)
 .debug_line    0x0000000000006780       0x75 /Users/jkwang/Desktop/nacl_sdk/pepper_canary/toolchain/mac_pnacl/bin/../arm-nacl/lib/libcrt_common.a(lib_a-errno.o)
 .debug_line    0x00000000000067f5       0x84 /Users/jkwang/Desktop/nacl_sdk/pepper_canary/toolchain/mac_pnacl/bin/../arm-nacl/lib/libcrt_common.a(lib_a-exit.o)
 .debug_line    0x0000000000006879      0x4fa /Users/jkwang/Desktop/nacl_sdk/pepper_canary/toolchain/mac_pnacl/bin/../arm-nacl/lib/libcrt_common.a(lib_a-fflush.o)
 .debug_line    0x0000000000006d73      0x68b /Users/jkwang/Desktop/nacl_sdk/pepper_canary/toolchain/mac_pnacl/bin/../arm-nacl/lib/libcrt_common.a(lib_a-findfp.o)
 .debug_line    0x00000000000073fe      0x124 /Users/jkwang/Desktop/nacl_sdk/pepper_canary/toolchain/mac_pnacl/bin/../arm-nacl/lib/libcrt_common.a(lib_a-fini.o)
 .debug_line    0x0000000000007522      0x389 /Users/jkwang/Desktop/nacl_sdk/pepper_canary/toolchain/mac_pnacl/bin/../arm-nacl/lib/libcrt_common.a(lib_a-fprintf.o)
 .debug_line    0x00000000000078ab      0x411 /Users/jkwang/Desktop/nacl_sdk/pepper_canary/toolchain/mac_pnacl/bin/../arm-nacl/lib/libcrt_common.a(lib_a-fwalk.o)
 .debug_line    0x0000000000007cbc      0x3ef /Users/jkwang/Desktop/nacl_sdk/pepper_canary/toolchain/mac_pnacl/bin/../arm-nacl/lib/libcrt_common.a(lib_a-fwrite.o)
 .debug_line    0x00000000000080ab       0x9a /Users/jkwang/Desktop/nacl_sdk/pepper_canary/toolchain/mac_pnacl/bin/../arm-nacl/lib/libcrt_common.a(lib_a-getenv.o)
 .debug_line    0x0000000000008145      0x350 /Users/jkwang/Desktop/nacl_sdk/pepper_canary/toolchain/mac_pnacl/bin/../arm-nacl/lib/libcrt_common.a(lib_a-getenv_r.o)
 .debug_line    0x0000000000008495      0x2e7 /Users/jkwang/Desktop/nacl_sdk/pepper_canary/toolchain/mac_pnacl/bin/../arm-nacl/lib/libcrt_common.a(lib_a-impure.o)
 .debug_line    0x000000000000877c      0x138 /Users/jkwang/Desktop/nacl_sdk/pepper_canary/toolchain/mac_pnacl/bin/../arm-nacl/lib/libcrt_common.a(lib_a-init.o)
 .debug_line    0x00000000000088b4      0x18a /Users/jkwang/Desktop/nacl_sdk/pepper_canary/toolchain/mac_pnacl/bin/../arm-nacl/lib/libcrt_common.a(lib_a-memset.o)
 .debug_line    0x0000000000008a3e      0x1ab /Users/jkwang/Desktop/nacl_sdk/pepper_canary/toolchain/mac_pnacl/bin/../arm-nacl/lib/libcrt_common.a(lib_a-sleep.o)
 .debug_line    0x0000000000008be9      0x3eb /Users/jkwang/Desktop/nacl_sdk/pepper_canary/toolchain/mac_pnacl/bin/../arm-nacl/lib/libcrt_common.a(lib_a-stdio.o)
 .debug_line    0x0000000000008fd4       0x90 /Users/jkwang/Desktop/nacl_sdk/pepper_canary/toolchain/mac_pnacl/bin/../arm-nacl/lib/libcrt_common.a(lib_a-strcat.o)
 .debug_line    0x0000000000009064       0x7b /Users/jkwang/Desktop/nacl_sdk/pepper_canary/toolchain/mac_pnacl/bin/../arm-nacl/lib/libcrt_common.a(lib_a-strcpy.o)
 .debug_line    0x00000000000090df      0x1a1 /Users/jkwang/Desktop/nacl_sdk/pepper_canary/toolchain/mac_pnacl/bin/../arm-nacl/lib/libcrt_common.a(lib_a-strncmp.o)
 .debug_line    0x0000000000009280     0x1232 /Users/jkwang/Desktop/nacl_sdk/pepper_canary/toolchain/mac_pnacl/bin/../arm-nacl/lib/libcrt_common.a(lib_a-vfprintf.o)
 .debug_line    0x000000000000a4b2      0x3f3 /Users/jkwang/Desktop/nacl_sdk/pepper_canary/toolchain/mac_pnacl/bin/../arm-nacl/lib/libcrt_common.a(lib_a-vsnprintf.o)
 .debug_line    0x000000000000a8a5      0x3c4 /Users/jkwang/Desktop/nacl_sdk/pepper_canary/toolchain/mac_pnacl/bin/../arm-nacl/lib/libcrt_common.a(lib_a-vsprintf.o)
 .debug_line    0x000000000000ac69      0x3c1 /Users/jkwang/Desktop/nacl_sdk/pepper_canary/toolchain/mac_pnacl/bin/../arm-nacl/lib/libcrt_common.a(lib_a-wcrtomb.o)
 .debug_line    0x000000000000b02a      0x376 /Users/jkwang/Desktop/nacl_sdk/pepper_canary/toolchain/mac_pnacl/bin/../arm-nacl/lib/libcrt_common.a(lib_a-wcsrtombs.o)
 .debug_line    0x000000000000b3a0      0x53b /Users/jkwang/Desktop/nacl_sdk/pepper_canary/toolchain/mac_pnacl/bin/../arm-nacl/lib/libcrt_common.a(lib_a-wctomb_r.o)
 .debug_line    0x000000000000b8db      0x3db /Users/jkwang/Desktop/nacl_sdk/pepper_canary/toolchain/mac_pnacl/bin/../arm-nacl/lib/libcrt_common.a(lib_a-wsetup.o)
 .debug_line    0x000000000000bcb6      0x180 /Users/jkwang/Desktop/nacl_sdk/pepper_canary/toolchain/mac_pnacl/bin/../arm-nacl/lib/libcrt_common.a(lib_a-__atexit.o)
 .debug_line    0x000000000000be36      0x1a9 /Users/jkwang/Desktop/nacl_sdk/pepper_canary/toolchain/mac_pnacl/bin/../arm-nacl/lib/libcrt_common.a(lib_a-__call_atexit.o)
 .debug_line    0x000000000000bfdf      0x9d6 /Users/jkwang/Desktop/nacl_sdk/pepper_canary/toolchain/mac_pnacl/bin/../arm-nacl/lib/libcrt_common.a(lib_a-dtoa.o)
 .debug_line    0x000000000000c9b5      0x2e5 /Users/jkwang/Desktop/nacl_sdk/pepper_canary/toolchain/mac_pnacl/bin/../arm-nacl/lib/libcrt_common.a(lib_a-envlock.o)
 .debug_line    0x000000000000cc9a      0x3ea /Users/jkwang/Desktop/nacl_sdk/pepper_canary/toolchain/mac_pnacl/bin/../arm-nacl/lib/libcrt_common.a(lib_a-fclose.o)
 .debug_line    0x000000000000d084      0x53e /Users/jkwang/Desktop/nacl_sdk/pepper_canary/toolchain/mac_pnacl/bin/../arm-nacl/lib/libcrt_common.a(lib_a-fvwrite.o)
 .debug_line    0x000000000000d5c2      0x84e /Users/jkwang/Desktop/nacl_sdk/pepper_canary/toolchain/mac_pnacl/bin/../arm-nacl/lib/libcrt_common.a(lib_a-locale.o)
 .debug_line    0x000000000000de10      0x483 /Users/jkwang/Desktop/nacl_sdk/pepper_canary/toolchain/mac_pnacl/bin/../arm-nacl/lib/libcrt_common.a(lib_a-makebuf.o)
 .debug_line    0x000000000000e293      0x69d /Users/jkwang/Desktop/nacl_sdk/pepper_canary/toolchain/mac_pnacl/bin/../arm-nacl/lib/libcrt_common.a(lib_a-mbtowc_r.o)
 .debug_line    0x000000000000e930      0x1e0 /Users/jkwang/Desktop/nacl_sdk/pepper_canary/toolchain/mac_pnacl/bin/../arm-nacl/lib/libcrt_common.a(lib_a-memmove.o)
 .debug_line    0x000000000000eb10      0xdd4 /Users/jkwang/Desktop/nacl_sdk/pepper_canary/toolchain/mac_pnacl/bin/../arm-nacl/lib/libcrt_common.a(lib_a-mprec.o)
 .debug_line    0x000000000000f8e4      0x12a /Users/jkwang/Desktop/nacl_sdk/pepper_canary/toolchain/mac_pnacl/bin/../arm-nacl/lib/libcrt_common.a(lib_a-s_fpclassify.o)
 .debug_line    0x000000000000fa0e      0x18f /Users/jkwang/Desktop/nacl_sdk/pepper_canary/toolchain/mac_pnacl/bin/../arm-nacl/lib/libcrt_common.a(lib_a-s_frexp.o)
 .debug_line    0x000000000000fb9d       0x90 /Users/jkwang/Desktop/nacl_sdk/pepper_canary/toolchain/mac_pnacl/bin/../arm-nacl/lib/libcrt_common.a(lib_a-strcasecmp.o)
 .debug_line    0x000000000000fc2d      0x116 /Users/jkwang/Desktop/nacl_sdk/pepper_canary/toolchain/mac_pnacl/bin/../arm-nacl/lib/libcrt_common.a(lib_a-strchr.o)
 .debug_line    0x000000000000fd43      0x155 /Users/jkwang/Desktop/nacl_sdk/pepper_canary/toolchain/mac_pnacl/bin/../arm-nacl/lib/libcrt_common.a(lib_a-strlcpy.o)
 .debug_line    0x000000000000fe98      0x13f /Users/jkwang/Desktop/nacl_sdk/pepper_canary/toolchain/mac_pnacl/bin/../arm-nacl/lib/libcrt_common.a(lib_a-strncasecmp.o)
 .debug_line    0x000000000000ffd7      0x17b /Users/jkwang/Desktop/nacl_sdk/pepper_canary/toolchain/mac_pnacl/bin/../arm-nacl/lib/libcrt_common.a(lib_a-strncpy.o)
 .debug_line    0x0000000000010152      0x38c /Users/jkwang/Desktop/nacl_sdk/pepper_canary/toolchain/mac_pnacl/bin/../arm-nacl/lib/libcrt_common.a(lib_a-strtol.o)
 .debug_line    0x00000000000104de     0x1117 /Users/jkwang/Desktop/nacl_sdk/pepper_canary/toolchain/mac_pnacl/bin/../arm-nacl/lib/libcrt_common.a(lib_a-svfprintf.o)
 .debug_line    0x00000000000115f5     0x114f /Users/jkwang/Desktop/nacl_sdk/pepper_canary/toolchain/mac_pnacl/bin/../arm-nacl/lib/libcrt_common.a(lib_a-vfiprintf.o)
 .debug_line    0x0000000000012744      0x404 /Users/jkwang/Desktop/nacl_sdk/pepper_canary/toolchain/mac_pnacl/bin/../arm-nacl/lib/libcrt_common.a(lib_a-wcsnrtombs.o)
 .debug_line    0x0000000000012b48       0x77 /Users/jkwang/Desktop/nacl_sdk/pepper_canary/toolchain/mac_pnacl/bin/../arm-nacl/lib/libcrt_common.a(lib_a-ctype_.o)
 .debug_line    0x0000000000012bbf      0x3fe /Users/jkwang/Desktop/nacl_sdk/pepper_canary/toolchain/mac_pnacl/bin/../arm-nacl/lib/libcrt_common.a(lib_a-fputwc.o)
 .debug_line    0x0000000000012fbd      0xb04 /Users/jkwang/Desktop/nacl_sdk/pepper_canary/toolchain/mac_pnacl/bin/../arm-nacl/lib/libcrt_common.a(lib_a-svfiprintf.o)
 .debug_line    0x0000000000013ac1      0x3e9 /Users/jkwang/Desktop/nacl_sdk/pepper_canary/toolchain/mac_pnacl/bin/../arm-nacl/lib/libcrt_common.a(lib_a-wbuf.o)
 .debug_line    0x0000000000013eaa       0x65 /Users/jkwang/Desktop/nacl_sdk/pepper_canary/toolchain/mac_pnacl/bin/../arm-nacl/lib/libnacl.a(close.o)
 .debug_line    0x0000000000013f0f      0x2db /Users/jkwang/Desktop/nacl_sdk/pepper_canary/toolchain/mac_pnacl/bin/../arm-nacl/lib/libnacl.a(fstat.o)
 .debug_line    0x00000000000141ea       0x73 /Users/jkwang/Desktop/nacl_sdk/pepper_canary/toolchain/mac_pnacl/bin/../arm-nacl/lib/libnacl.a(isatty.o)
 .debug_line    0x000000000001425d      0x1b5 /Users/jkwang/Desktop/nacl_sdk/pepper_canary/toolchain/mac_pnacl/bin/../arm-nacl/lib/libnacl.a(lseek.o)
 .debug_line    0x0000000000014412      0x11a /Users/jkwang/Desktop/nacl_sdk/pepper_canary/toolchain/mac_pnacl/bin/../arm-nacl/lib/libnacl.a(nanosleep.o)
 .debug_line    0x000000000001452c       0x6b /Users/jkwang/Desktop/nacl_sdk/pepper_canary/toolchain/mac_pnacl/bin/../arm-nacl/lib/libnacl.a(nacl_irt_fdio.o)
 .debug_line    0x0000000000014597      0x103 /Users/jkwang/Desktop/nacl_sdk/pepper_canary/toolchain/mac_pnacl/bin/../arm-nacl/lib/libnacl.a(read.o)
 .debug_line    0x000000000001469a      0xe91 /Users/jkwang/Desktop/nacl_sdk/pepper_canary/toolchain/mac_pnacl/bin/../lib/clang/3.7.0/lib/arm-nacl/libgcc_eh.a(unwind-dw2-fde-glibc.o)

.debug_frame    0x0000000000000000     0x15e4
 *(.debug_frame)
 .debug_frame   0x0000000000000000      0x18c clang-newlib/Release/debugging_arm.o
 .debug_frame   0x000000000000018c       0xf0 /Users/jkwang/Desktop/nacl_sdk/pepper_canary/lib/clang-newlib_arm/Release/liberror_handling.a(error_handling_arm.o)
 .debug_frame   0x000000000000027c       0x88 /Users/jkwang/Desktop/nacl_sdk/pepper_canary/lib/clang-newlib_arm/Release/liberror_handling.a(string_stream_arm.o)
 .debug_frame   0x0000000000000304       0x20 /Users/jkwang/Desktop/nacl_sdk/pepper_canary/toolchain/mac_pnacl/bin/../arm-nacl/lib/libcrt_common.a(lib_a-atexit.o)
 .debug_frame   0x0000000000000324       0x2c /Users/jkwang/Desktop/nacl_sdk/pepper_canary/toolchain/mac_pnacl/bin/../arm-nacl/lib/libcrt_common.a(lib_a-errno.o)
 .debug_frame   0x0000000000000350       0x30 /Users/jkwang/Desktop/nacl_sdk/pepper_canary/toolchain/mac_pnacl/bin/../arm-nacl/lib/libcrt_common.a(lib_a-exit.o)
 .debug_frame   0x0000000000000380       0x80 /Users/jkwang/Desktop/nacl_sdk/pepper_canary/toolchain/mac_pnacl/bin/../arm-nacl/lib/libcrt_common.a(lib_a-fflush.o)
 .debug_frame   0x0000000000000400      0x154 /Users/jkwang/Desktop/nacl_sdk/pepper_canary/toolchain/mac_pnacl/bin/../arm-nacl/lib/libcrt_common.a(lib_a-findfp.o)
 .debug_frame   0x0000000000000554       0x30 /Users/jkwang/Desktop/nacl_sdk/pepper_canary/toolchain/mac_pnacl/bin/../arm-nacl/lib/libcrt_common.a(lib_a-fini.o)
 .debug_frame   0x0000000000000584       0x54 /Users/jkwang/Desktop/nacl_sdk/pepper_canary/toolchain/mac_pnacl/bin/../arm-nacl/lib/libcrt_common.a(lib_a-fprintf.o)
 .debug_frame   0x00000000000005d8       0x60 /Users/jkwang/Desktop/nacl_sdk/pepper_canary/toolchain/mac_pnacl/bin/../arm-nacl/lib/libcrt_common.a(lib_a-fwalk.o)
 .debug_frame   0x0000000000000638       0x58 /Users/jkwang/Desktop/nacl_sdk/pepper_canary/toolchain/mac_pnacl/bin/../arm-nacl/lib/libcrt_common.a(lib_a-fwrite.o)
 .debug_frame   0x0000000000000690       0x48 /Users/jkwang/Desktop/nacl_sdk/pepper_canary/toolchain/mac_pnacl/bin/../arm-nacl/lib/libcrt_common.a(lib_a-getenv.o)
 .debug_frame   0x00000000000006d8       0x54 /Users/jkwang/Desktop/nacl_sdk/pepper_canary/toolchain/mac_pnacl/bin/../arm-nacl/lib/libcrt_common.a(lib_a-getenv_r.o)
 .debug_frame   0x000000000000072c       0x3c /Users/jkwang/Desktop/nacl_sdk/pepper_canary/toolchain/mac_pnacl/bin/../arm-nacl/lib/libcrt_common.a(lib_a-impure.o)
 .debug_frame   0x0000000000000768       0x34 /Users/jkwang/Desktop/nacl_sdk/pepper_canary/toolchain/mac_pnacl/bin/../arm-nacl/lib/libcrt_common.a(lib_a-init.o)
 .debug_frame   0x000000000000079c       0x34 /Users/jkwang/Desktop/nacl_sdk/pepper_canary/toolchain/mac_pnacl/bin/../arm-nacl/lib/libcrt_common.a(lib_a-memset.o)
 .debug_frame   0x00000000000007d0       0x30 /Users/jkwang/Desktop/nacl_sdk/pepper_canary/toolchain/mac_pnacl/bin/../arm-nacl/lib/libcrt_common.a(lib_a-sleep.o)
 .debug_frame   0x0000000000000800       0x94 /Users/jkwang/Desktop/nacl_sdk/pepper_canary/toolchain/mac_pnacl/bin/../arm-nacl/lib/libcrt_common.a(lib_a-stdio.o)
 .debug_frame   0x0000000000000894       0x34 /Users/jkwang/Desktop/nacl_sdk/pepper_canary/toolchain/mac_pnacl/bin/../arm-nacl/lib/libcrt_common.a(lib_a-strcat.o)
 .debug_frame   0x00000000000008c8       0x20 /Users/jkwang/Desktop/nacl_sdk/pepper_canary/toolchain/mac_pnacl/bin/../arm-nacl/lib/libcrt_common.a(lib_a-strcpy.o)
 .debug_frame   0x00000000000008e8       0x2c /Users/jkwang/Desktop/nacl_sdk/pepper_canary/toolchain/mac_pnacl/bin/../arm-nacl/lib/libcrt_common.a(lib_a-strncmp.o)
 .debug_frame   0x0000000000000914       0x9c /Users/jkwang/Desktop/nacl_sdk/pepper_canary/toolchain/mac_pnacl/bin/../arm-nacl/lib/libcrt_common.a(lib_a-vfprintf.o)
 .debug_frame   0x00000000000009b0       0x50 /Users/jkwang/Desktop/nacl_sdk/pepper_canary/toolchain/mac_pnacl/bin/../arm-nacl/lib/libcrt_common.a(lib_a-vsnprintf.o)
 .debug_frame   0x0000000000000a00       0x4c /Users/jkwang/Desktop/nacl_sdk/pepper_canary/toolchain/mac_pnacl/bin/../arm-nacl/lib/libcrt_common.a(lib_a-vsprintf.o)
 .debug_frame   0x0000000000000a4c       0x60 /Users/jkwang/Desktop/nacl_sdk/pepper_canary/toolchain/mac_pnacl/bin/../arm-nacl/lib/libcrt_common.a(lib_a-wcrtomb.o)
 .debug_frame   0x0000000000000aac       0x4c /Users/jkwang/Desktop/nacl_sdk/pepper_canary/toolchain/mac_pnacl/bin/../arm-nacl/lib/libcrt_common.a(lib_a-wcsrtombs.o)
 .debug_frame   0x0000000000000af8       0xa0 /Users/jkwang/Desktop/nacl_sdk/pepper_canary/toolchain/mac_pnacl/bin/../arm-nacl/lib/libcrt_common.a(lib_a-wctomb_r.o)
 .debug_frame   0x0000000000000b98       0x30 /Users/jkwang/Desktop/nacl_sdk/pepper_canary/toolchain/mac_pnacl/bin/../arm-nacl/lib/libcrt_common.a(lib_a-wsetup.o)
 .debug_frame   0x0000000000000bc8       0x38 /Users/jkwang/Desktop/nacl_sdk/pepper_canary/toolchain/mac_pnacl/bin/../arm-nacl/lib/libcrt_common.a(lib_a-__atexit.o)
 .debug_frame   0x0000000000000c00       0x38 /Users/jkwang/Desktop/nacl_sdk/pepper_canary/toolchain/mac_pnacl/bin/../arm-nacl/lib/libcrt_common.a(lib_a-__call_atexit.o)
 .debug_frame   0x0000000000000c38       0x64 /Users/jkwang/Desktop/nacl_sdk/pepper_canary/toolchain/mac_pnacl/bin/../arm-nacl/lib/libcrt_common.a(lib_a-dtoa.o)
 .debug_frame   0x0000000000000c9c       0x30 /Users/jkwang/Desktop/nacl_sdk/pepper_canary/toolchain/mac_pnacl/bin/../arm-nacl/lib/libcrt_common.a(lib_a-envlock.o)
 .debug_frame   0x0000000000000ccc       0x50 /Users/jkwang/Desktop/nacl_sdk/pepper_canary/toolchain/mac_pnacl/bin/../arm-nacl/lib/libcrt_common.a(lib_a-fclose.o)
 .debug_frame   0x0000000000000d1c       0x38 /Users/jkwang/Desktop/nacl_sdk/pepper_canary/toolchain/mac_pnacl/bin/../arm-nacl/lib/libcrt_common.a(lib_a-fvwrite.o)
 .debug_frame   0x0000000000000d54      0x100 /Users/jkwang/Desktop/nacl_sdk/pepper_canary/toolchain/mac_pnacl/bin/../arm-nacl/lib/libcrt_common.a(lib_a-locale.o)
 .debug_frame   0x0000000000000e54       0x34 /Users/jkwang/Desktop/nacl_sdk/pepper_canary/toolchain/mac_pnacl/bin/../arm-nacl/lib/libcrt_common.a(lib_a-makebuf.o)
 .debug_frame   0x0000000000000e88       0xdc /Users/jkwang/Desktop/nacl_sdk/pepper_canary/toolchain/mac_pnacl/bin/../arm-nacl/lib/libcrt_common.a(lib_a-mbtowc_r.o)
 .debug_frame   0x0000000000000f64       0x38 /Users/jkwang/Desktop/nacl_sdk/pepper_canary/toolchain/mac_pnacl/bin/../arm-nacl/lib/libcrt_common.a(lib_a-memmove.o)
 .debug_frame   0x0000000000000f9c      0x254 /Users/jkwang/Desktop/nacl_sdk/pepper_canary/toolchain/mac_pnacl/bin/../arm-nacl/lib/libcrt_common.a(lib_a-mprec.o)
 .debug_frame   0x00000000000011f0       0x28 /Users/jkwang/Desktop/nacl_sdk/pepper_canary/toolchain/mac_pnacl/bin/../arm-nacl/lib/libcrt_common.a(lib_a-s_fpclassify.o)
 .debug_frame   0x0000000000001218       0x28 /Users/jkwang/Desktop/nacl_sdk/pepper_canary/toolchain/mac_pnacl/bin/../arm-nacl/lib/libcrt_common.a(lib_a-s_frexp.o)
 .debug_frame   0x0000000000001240       0x28 /Users/jkwang/Desktop/nacl_sdk/pepper_canary/toolchain/mac_pnacl/bin/../arm-nacl/lib/libcrt_common.a(lib_a-strcasecmp.o)
 .debug_frame   0x0000000000001268       0x28 /Users/jkwang/Desktop/nacl_sdk/pepper_canary/toolchain/mac_pnacl/bin/../arm-nacl/lib/libcrt_common.a(lib_a-strchr.o)
 .debug_frame   0x0000000000001290       0x20 /Users/jkwang/Desktop/nacl_sdk/pepper_canary/toolchain/mac_pnacl/bin/../arm-nacl/lib/libcrt_common.a(lib_a-strlcpy.o)
 .debug_frame   0x00000000000012b0       0x2c /Users/jkwang/Desktop/nacl_sdk/pepper_canary/toolchain/mac_pnacl/bin/../arm-nacl/lib/libcrt_common.a(lib_a-strncasecmp.o)
 .debug_frame   0x00000000000012dc       0x2c /Users/jkwang/Desktop/nacl_sdk/pepper_canary/toolchain/mac_pnacl/bin/../arm-nacl/lib/libcrt_common.a(lib_a-strncpy.o)
 .debug_frame   0x0000000000001308       0x58 /Users/jkwang/Desktop/nacl_sdk/pepper_canary/toolchain/mac_pnacl/bin/../arm-nacl/lib/libcrt_common.a(lib_a-strtol.o)
 .debug_frame   0x0000000000001360       0x54 /Users/jkwang/Desktop/nacl_sdk/pepper_canary/toolchain/mac_pnacl/bin/../arm-nacl/lib/libcrt_common.a(lib_a-svfprintf.o)
 .debug_frame   0x00000000000013b4       0xac /Users/jkwang/Desktop/nacl_sdk/pepper_canary/toolchain/mac_pnacl/bin/../arm-nacl/lib/libcrt_common.a(lib_a-vfiprintf.o)
 .debug_frame   0x0000000000001460       0x58 /Users/jkwang/Desktop/nacl_sdk/pepper_canary/toolchain/mac_pnacl/bin/../arm-nacl/lib/libcrt_common.a(lib_a-wcsnrtombs.o)
 .debug_frame   0x00000000000014b8       0x20 /Users/jkwang/Desktop/nacl_sdk/pepper_canary/toolchain/mac_pnacl/bin/../arm-nacl/lib/libcrt_common.a(lib_a-ctype_.o)
 .debug_frame   0x00000000000014d8       0x5c /Users/jkwang/Desktop/nacl_sdk/pepper_canary/toolchain/mac_pnacl/bin/../arm-nacl/lib/libcrt_common.a(lib_a-fputwc.o)
 .debug_frame   0x0000000000001534       0x60 /Users/jkwang/Desktop/nacl_sdk/pepper_canary/toolchain/mac_pnacl/bin/../arm-nacl/lib/libcrt_common.a(lib_a-svfiprintf.o)
 .debug_frame   0x0000000000001594       0x50 /Users/jkwang/Desktop/nacl_sdk/pepper_canary/toolchain/mac_pnacl/bin/../arm-nacl/lib/libcrt_common.a(lib_a-wbuf.o)

.debug_str      0x0000000000000000     0x5ac5
 *(.debug_str)
 .debug_str     0x0000000000000000      0xa0a clang-newlib/Release/debugging_arm.o
                                        0xb1a (size before relaxing)
 .debug_str     0x0000000000000a0a      0x3ab /Users/jkwang/Desktop/nacl_sdk/pepper_canary/lib/clang-newlib_arm/Release/liberror_handling.a(error_handling_arm.o)
                                        0x538 (size before relaxing)
 .debug_str     0x0000000000000db5       0x67 /Users/jkwang/Desktop/nacl_sdk/pepper_canary/lib/clang-newlib_arm/Release/liberror_handling.a(string_stream_arm.o)
                                        0x1df (size before relaxing)
 .debug_str     0x0000000000000e1c      0x942 /Users/jkwang/Desktop/nacl_sdk/pepper_canary/toolchain/mac_pnacl/bin/../arm-nacl/lib/libpthread.a(nc_thread.o)
                                        0xb8f (size before relaxing)
 .debug_str     0x000000000000175e      0x22b /Users/jkwang/Desktop/nacl_sdk/pepper_canary/toolchain/mac_pnacl/bin/../arm-nacl/lib/libpthread.a(nc_mutex.o)
                                        0x673 (size before relaxing)
 .debug_str     0x0000000000001989      0x18c /Users/jkwang/Desktop/nacl_sdk/pepper_canary/toolchain/mac_pnacl/bin/../arm-nacl/lib/libpthread.a(nc_condvar.o)
                                        0x53b (size before relaxing)
 .debug_str     0x0000000000001b15      0x4aa /Users/jkwang/Desktop/nacl_sdk/pepper_canary/toolchain/mac_pnacl/bin/../arm-nacl/lib/libpthread.a(valgrind_annotations.o)
                                        0x634 (size before relaxing)
 .debug_str     0x0000000000001fbf       0x6d /Users/jkwang/Desktop/nacl_sdk/pepper_canary/toolchain/mac_pnacl/bin/../arm-nacl/lib/libpthread.a(nc_init_irt.o)
                                        0x1f1 (size before relaxing)
 .debug_str     0x000000000000202c      0x341 /Users/jkwang/Desktop/nacl_sdk/pepper_canary/toolchain/mac_pnacl/bin/../arm-nacl/lib/libnacl.a(nacl_irt.o)
                                        0x642 (size before relaxing)
 .debug_str     0x000000000000236d       0x1b /Users/jkwang/Desktop/nacl_sdk/pepper_canary/toolchain/mac_pnacl/bin/../arm-nacl/lib/libnacl.a(_exit.o)
                                        0x154 (size before relaxing)
 .debug_str     0x0000000000002388       0x2a /Users/jkwang/Desktop/nacl_sdk/pepper_canary/toolchain/mac_pnacl/bin/../arm-nacl/lib/libnacl.a(mmap.o)
                                        0x1ae (size before relaxing)
 .debug_str     0x00000000000023b2       0x1c /Users/jkwang/Desktop/nacl_sdk/pepper_canary/toolchain/mac_pnacl/bin/../arm-nacl/lib/libnacl.a(munmap.o)
                                        0x176 (size before relaxing)
 .debug_str     0x00000000000023ce       0x59 /Users/jkwang/Desktop/nacl_sdk/pepper_canary/toolchain/mac_pnacl/bin/../arm-nacl/lib/libnacl.a(nacl_interface_query.o)
                                        0x1a0 (size before relaxing)
 .debug_str     0x0000000000002427       0x1b /Users/jkwang/Desktop/nacl_sdk/pepper_canary/toolchain/mac_pnacl/bin/../arm-nacl/lib/libnacl.a(write.o)
                                        0x17d (size before relaxing)
 .debug_str     0x0000000000002442       0x29 /Users/jkwang/Desktop/nacl_sdk/pepper_canary/toolchain/mac_pnacl/bin/../arm-nacl/lib/libnacl.a(environ.o)
                                        0x167 (size before relaxing)
 .debug_str     0x000000000000246b      0xaba /Users/jkwang/Desktop/nacl_sdk/pepper_canary/toolchain/mac_pnacl/bin/../arm-nacl/lib/libnacl.a(malloc.o)
                                        0xe86 (size before relaxing)
 .debug_str     0x0000000000002f25      0x157 /Users/jkwang/Desktop/nacl_sdk/pepper_canary/toolchain/mac_pnacl/bin/../arm-nacl/lib/libnacl.a(start.o)
                                        0x2ce (size before relaxing)
 .debug_str     0x000000000000307c       0x31 /Users/jkwang/Desktop/nacl_sdk/pepper_canary/toolchain/mac_pnacl/bin/../arm-nacl/lib/libnacl.a(nacl_read_tp.o)
                                        0x159 (size before relaxing)
 .debug_str     0x00000000000030ad       0x4d /Users/jkwang/Desktop/nacl_sdk/pepper_canary/toolchain/mac_pnacl/bin/../arm-nacl/lib/libnacl.a(pthread_initialize_minimal.o)
                                        0x1b1 (size before relaxing)
 .debug_str     0x00000000000030fa      0x1a5 /Users/jkwang/Desktop/nacl_sdk/pepper_canary/toolchain/mac_pnacl/bin/../arm-nacl/lib/libnacl.a(tls.o)
                                        0x3a8 (size before relaxing)
 .debug_str     0x000000000000329f       0x85 /Users/jkwang/Desktop/nacl_sdk/pepper_canary/toolchain/mac_pnacl/bin/../arm-nacl/lib/libnacl.a(nacl_irt_init.o)
                                        0x273 (size before relaxing)
 .debug_str     0x0000000000003324       0x2f /Users/jkwang/Desktop/nacl_sdk/pepper_canary/toolchain/mac_pnacl/bin/../arm-nacl/lib/libnacl.a(nacl_tls_get.o)
                                        0x157 (size before relaxing)
 .debug_str     0x0000000000003353       0x3c /Users/jkwang/Desktop/nacl_sdk/pepper_canary/toolchain/mac_pnacl/bin/../arm-nacl/lib/libnacl.a(nacl_tls_init.o)
                                        0x168 (size before relaxing)
 .debug_str     0x000000000000338f       0x21 /Users/jkwang/Desktop/nacl_sdk/pepper_canary/toolchain/mac_pnacl/bin/../arm-nacl/lib/libnacl.a(abort.o)
                                        0x15f (size before relaxing)
 .debug_str     0x00000000000033b0       0x21 /Users/jkwang/Desktop/nacl_sdk/pepper_canary/toolchain/mac_pnacl/bin/../arm-nacl/lib/libnacl.a(sched_yield.o)
                                        0x15f (size before relaxing)
 .debug_str     0x00000000000033d1       0x1d /Users/jkwang/Desktop/nacl_sdk/pepper_canary/toolchain/mac_pnacl/bin/../arm-nacl/lib/libnacl.a(sysconf.o)
                                        0x16b (size before relaxing)
 .debug_str     0x00000000000033ee       0xea /Users/jkwang/Desktop/nacl_sdk/pepper_canary/toolchain/mac_pnacl/bin/../arm-nacl/lib/libcrt_common.a(lib_a-atexit.o)
                                        0x1e5 (size before relaxing)
 .debug_str     0x00000000000034d8       0xbf /Users/jkwang/Desktop/nacl_sdk/pepper_canary/toolchain/mac_pnacl/bin/../arm-nacl/lib/libcrt_common.a(lib_a-errno.o)
                                        0x1b0 (size before relaxing)
 .debug_str     0x0000000000003597       0x42 /Users/jkwang/Desktop/nacl_sdk/pepper_canary/toolchain/mac_pnacl/bin/../arm-nacl/lib/libcrt_common.a(lib_a-exit.o)
                                        0x1b3 (size before relaxing)
 .debug_str     0x00000000000035d9       0xf9 /Users/jkwang/Desktop/nacl_sdk/pepper_canary/toolchain/mac_pnacl/bin/../arm-nacl/lib/libcrt_common.a(lib_a-fflush.o)
                                        0x6cd (size before relaxing)
 .debug_str     0x00000000000036d2      0x113 /Users/jkwang/Desktop/nacl_sdk/pepper_canary/toolchain/mac_pnacl/bin/../arm-nacl/lib/libcrt_common.a(lib_a-findfp.o)
                                        0x784 (size before relaxing)
 .debug_str     0x00000000000037e5       0xc6 /Users/jkwang/Desktop/nacl_sdk/pepper_canary/toolchain/mac_pnacl/bin/../arm-nacl/lib/libcrt_common.a(lib_a-fini.o)
                                        0x1cf (size before relaxing)
 .debug_str     0x00000000000038ab       0x4e /Users/jkwang/Desktop/nacl_sdk/pepper_canary/toolchain/mac_pnacl/bin/../arm-nacl/lib/libcrt_common.a(lib_a-fprintf.o)
                                        0x6c1 (size before relaxing)
 .debug_str     0x00000000000038f9       0x62 /Users/jkwang/Desktop/nacl_sdk/pepper_canary/toolchain/mac_pnacl/bin/../arm-nacl/lib/libcrt_common.a(lib_a-fwalk.o)
                                        0x6d2 (size before relaxing)
 .debug_str     0x000000000000395b       0x8b /Users/jkwang/Desktop/nacl_sdk/pepper_canary/toolchain/mac_pnacl/bin/../arm-nacl/lib/libcrt_common.a(lib_a-fwrite.o)
                                        0x6f6 (size before relaxing)
 .debug_str     0x00000000000039e6       0x4f /Users/jkwang/Desktop/nacl_sdk/pepper_canary/toolchain/mac_pnacl/bin/../arm-nacl/lib/libcrt_common.a(lib_a-getenv.o)
                                        0x1cc (size before relaxing)
 .debug_str     0x0000000000003a35       0x6a /Users/jkwang/Desktop/nacl_sdk/pepper_canary/toolchain/mac_pnacl/bin/../arm-nacl/lib/libcrt_common.a(lib_a-getenv_r.o)
                                        0x6ae (size before relaxing)
 .debug_str     0x0000000000003a9f      0x108 /Users/jkwang/Desktop/nacl_sdk/pepper_canary/toolchain/mac_pnacl/bin/../arm-nacl/lib/libcrt_common.a(lib_a-impure.o)
                                        0x6d5 (size before relaxing)
 .debug_str     0x0000000000003ba7       0x4d /Users/jkwang/Desktop/nacl_sdk/pepper_canary/toolchain/mac_pnacl/bin/../arm-nacl/lib/libcrt_common.a(lib_a-init.o)
                                        0x1cf (size before relaxing)
 .debug_str     0x0000000000003bf4       0xc8 /Users/jkwang/Desktop/nacl_sdk/pepper_canary/toolchain/mac_pnacl/bin/../arm-nacl/lib/libcrt_common.a(lib_a-memset.o)
                                        0x206 (size before relaxing)
 .debug_str     0x0000000000003cbc       0xbf /Users/jkwang/Desktop/nacl_sdk/pepper_canary/toolchain/mac_pnacl/bin/../arm-nacl/lib/libcrt_common.a(lib_a-sleep.o)
                                        0x20b (size before relaxing)
 .debug_str     0x0000000000003d7b       0x73 /Users/jkwang/Desktop/nacl_sdk/pepper_canary/toolchain/mac_pnacl/bin/../arm-nacl/lib/libcrt_common.a(lib_a-stdio.o)
                                        0x6e0 (size before relaxing)
 .debug_str     0x0000000000003dee       0x51 /Users/jkwang/Desktop/nacl_sdk/pepper_canary/toolchain/mac_pnacl/bin/../arm-nacl/lib/libcrt_common.a(lib_a-strcat.o)
                                        0x1e1 (size before relaxing)
 .debug_str     0x0000000000003e3f       0xce /Users/jkwang/Desktop/nacl_sdk/pepper_canary/toolchain/mac_pnacl/bin/../arm-nacl/lib/libcrt_common.a(lib_a-strcpy.o)
                                        0x1c0 (size before relaxing)
 .debug_str     0x0000000000003f0d       0x4e /Users/jkwang/Desktop/nacl_sdk/pepper_canary/toolchain/mac_pnacl/bin/../arm-nacl/lib/libcrt_common.a(lib_a-strncmp.o)
                                        0x204 (size before relaxing)
 .debug_str     0x0000000000003f5b      0x184 /Users/jkwang/Desktop/nacl_sdk/pepper_canary/toolchain/mac_pnacl/bin/../arm-nacl/lib/libcrt_common.a(lib_a-vfprintf.o)
                                        0x916 (size before relaxing)
 .debug_str     0x00000000000040df       0x58 /Users/jkwang/Desktop/nacl_sdk/pepper_canary/toolchain/mac_pnacl/bin/../arm-nacl/lib/libcrt_common.a(lib_a-vsnprintf.o)
                                        0x6d6 (size before relaxing)
 .debug_str     0x0000000000004137       0x55 /Users/jkwang/Desktop/nacl_sdk/pepper_canary/toolchain/mac_pnacl/bin/../arm-nacl/lib/libcrt_common.a(lib_a-vsprintf.o)
                                        0x6c7 (size before relaxing)
 .debug_str     0x000000000000418c       0x53 /Users/jkwang/Desktop/nacl_sdk/pepper_canary/toolchain/mac_pnacl/bin/../arm-nacl/lib/libcrt_common.a(lib_a-wcrtomb.o)
                                        0x6b9 (size before relaxing)
 .debug_str     0x00000000000041df       0x59 /Users/jkwang/Desktop/nacl_sdk/pepper_canary/toolchain/mac_pnacl/bin/../arm-nacl/lib/libcrt_common.a(lib_a-wcsrtombs.o)
                                        0x6b3 (size before relaxing)
 .debug_str     0x0000000000004238       0xae /Users/jkwang/Desktop/nacl_sdk/pepper_canary/toolchain/mac_pnacl/bin/../arm-nacl/lib/libcrt_common.a(lib_a-wctomb_r.o)
                                        0x717 (size before relaxing)
 .debug_str     0x00000000000042e6       0x4a /Users/jkwang/Desktop/nacl_sdk/pepper_canary/toolchain/mac_pnacl/bin/../arm-nacl/lib/libcrt_common.a(lib_a-wsetup.o)
                                        0x695 (size before relaxing)
 .debug_str     0x0000000000004330       0x55 /Users/jkwang/Desktop/nacl_sdk/pepper_canary/toolchain/mac_pnacl/bin/../arm-nacl/lib/libcrt_common.a(lib_a-__atexit.o)
                                        0x274 (size before relaxing)
 .debug_str     0x0000000000004385       0x6b /Users/jkwang/Desktop/nacl_sdk/pepper_canary/toolchain/mac_pnacl/bin/../arm-nacl/lib/libcrt_common.a(lib_a-__call_atexit.o)
                                        0x2d3 (size before relaxing)
 .debug_str     0x00000000000043f0       0xdc /Users/jkwang/Desktop/nacl_sdk/pepper_canary/toolchain/mac_pnacl/bin/../arm-nacl/lib/libcrt_common.a(lib_a-dtoa.o)
                                        0x782 (size before relaxing)
 .debug_str     0x00000000000044cc       0x6a /Users/jkwang/Desktop/nacl_sdk/pepper_canary/toolchain/mac_pnacl/bin/../arm-nacl/lib/libcrt_common.a(lib_a-envlock.o)
                                        0x69e (size before relaxing)
 .debug_str     0x0000000000004536       0x4f /Users/jkwang/Desktop/nacl_sdk/pepper_canary/toolchain/mac_pnacl/bin/../arm-nacl/lib/libcrt_common.a(lib_a-fclose.o)
                                        0x69d (size before relaxing)
 .debug_str     0x0000000000004585       0x65 /Users/jkwang/Desktop/nacl_sdk/pepper_canary/toolchain/mac_pnacl/bin/../arm-nacl/lib/libcrt_common.a(lib_a-fvwrite.o)
                                        0x701 (size before relaxing)
 .debug_str     0x00000000000045ea      0x348 /Users/jkwang/Desktop/nacl_sdk/pepper_canary/toolchain/mac_pnacl/bin/../arm-nacl/lib/libcrt_common.a(lib_a-locale.o)
                                        0x9db (size before relaxing)
 .debug_str     0x0000000000004932      0x137 /Users/jkwang/Desktop/nacl_sdk/pepper_canary/toolchain/mac_pnacl/bin/../arm-nacl/lib/libcrt_common.a(lib_a-makebuf.o)
                                        0x7f5 (size before relaxing)
 .debug_str     0x0000000000004a69      0x1a0 /Users/jkwang/Desktop/nacl_sdk/pepper_canary/toolchain/mac_pnacl/bin/../arm-nacl/lib/libcrt_common.a(lib_a-mbtowc_r.o)
                                        0x814 (size before relaxing)
 .debug_str     0x0000000000004c09       0x72 /Users/jkwang/Desktop/nacl_sdk/pepper_canary/toolchain/mac_pnacl/bin/../arm-nacl/lib/libcrt_common.a(lib_a-memmove.o)
                                        0x20b (size before relaxing)
 .debug_str     0x0000000000004c7b      0x166 /Users/jkwang/Desktop/nacl_sdk/pepper_canary/toolchain/mac_pnacl/bin/../arm-nacl/lib/libcrt_common.a(lib_a-mprec.o)
                                        0x810 (size before relaxing)
 .debug_str     0x0000000000004de1       0xf8 /Users/jkwang/Desktop/nacl_sdk/pepper_canary/toolchain/mac_pnacl/bin/../arm-nacl/lib/libcrt_common.a(lib_a-s_fpclassify.o)
                                        0x210 (size before relaxing)
 .debug_str     0x0000000000004ed9       0xd8 /Users/jkwang/Desktop/nacl_sdk/pepper_canary/toolchain/mac_pnacl/bin/../arm-nacl/lib/libcrt_common.a(lib_a-s_frexp.o)
                                        0x227 (size before relaxing)
 .debug_str     0x0000000000004fb1       0x62 /Users/jkwang/Desktop/nacl_sdk/pepper_canary/toolchain/mac_pnacl/bin/../arm-nacl/lib/libcrt_common.a(lib_a-strcasecmp.o)
                                        0x1e9 (size before relaxing)
 .debug_str     0x0000000000005013       0x4b /Users/jkwang/Desktop/nacl_sdk/pepper_canary/toolchain/mac_pnacl/bin/../arm-nacl/lib/libcrt_common.a(lib_a-strchr.o)
                                        0x1fd (size before relaxing)
 .debug_str     0x000000000000505e       0x4c /Users/jkwang/Desktop/nacl_sdk/pepper_canary/toolchain/mac_pnacl/bin/../arm-nacl/lib/libcrt_common.a(lib_a-strlcpy.o)
                                        0x1db (size before relaxing)
 .debug_str     0x00000000000050aa       0x50 /Users/jkwang/Desktop/nacl_sdk/pepper_canary/toolchain/mac_pnacl/bin/../arm-nacl/lib/libcrt_common.a(lib_a-strncasecmp.o)
                                        0x201 (size before relaxing)
 .debug_str     0x00000000000050fa       0x52 /Users/jkwang/Desktop/nacl_sdk/pepper_canary/toolchain/mac_pnacl/bin/../arm-nacl/lib/libcrt_common.a(lib_a-strncpy.o)
                                        0x202 (size before relaxing)
 .debug_str     0x000000000000514c       0x6d /Users/jkwang/Desktop/nacl_sdk/pepper_canary/toolchain/mac_pnacl/bin/../arm-nacl/lib/libcrt_common.a(lib_a-strtol.o)
                                        0x6b8 (size before relaxing)
 .debug_str     0x00000000000051b9        0xd /Users/jkwang/Desktop/nacl_sdk/pepper_canary/toolchain/mac_pnacl/bin/../arm-nacl/lib/libcrt_common.a(lib_a-svfprintf.o)
                                        0x8e2 (size before relaxing)
 .debug_str     0x00000000000051c6       0x22 /Users/jkwang/Desktop/nacl_sdk/pepper_canary/toolchain/mac_pnacl/bin/../arm-nacl/lib/libcrt_common.a(lib_a-vfiprintf.o)
                                        0x857 (size before relaxing)
 .debug_str     0x00000000000051e8       0x6a /Users/jkwang/Desktop/nacl_sdk/pepper_canary/toolchain/mac_pnacl/bin/../arm-nacl/lib/libcrt_common.a(lib_a-wcsnrtombs.o)
                                        0x6dc (size before relaxing)
 .debug_str     0x0000000000005252       0xda /Users/jkwang/Desktop/nacl_sdk/pepper_canary/toolchain/mac_pnacl/bin/../arm-nacl/lib/libcrt_common.a(lib_a-ctype_.o)
                                        0x1dd (size before relaxing)
 .debug_str     0x000000000000532c       0x51 /Users/jkwang/Desktop/nacl_sdk/pepper_canary/toolchain/mac_pnacl/bin/../arm-nacl/lib/libcrt_common.a(lib_a-fputwc.o)
                                        0x6c7 (size before relaxing)
 .debug_str     0x000000000000537d       0x1a /Users/jkwang/Desktop/nacl_sdk/pepper_canary/toolchain/mac_pnacl/bin/../arm-nacl/lib/libcrt_common.a(lib_a-svfiprintf.o)
                                        0x832 (size before relaxing)
 .debug_str     0x0000000000005397       0x4e /Users/jkwang/Desktop/nacl_sdk/pepper_canary/toolchain/mac_pnacl/bin/../arm-nacl/lib/libcrt_common.a(lib_a-wbuf.o)
                                        0x69d (size before relaxing)
 .debug_str     0x00000000000053e5       0x1b /Users/jkwang/Desktop/nacl_sdk/pepper_canary/toolchain/mac_pnacl/bin/../arm-nacl/lib/libnacl.a(close.o)
                                        0x158 (size before relaxing)
 .debug_str     0x0000000000005400       0x1b /Users/jkwang/Desktop/nacl_sdk/pepper_canary/toolchain/mac_pnacl/bin/../arm-nacl/lib/libnacl.a(fstat.o)
                                        0x2ee (size before relaxing)
 .debug_str     0x000000000000541b       0x1c /Users/jkwang/Desktop/nacl_sdk/pepper_canary/toolchain/mac_pnacl/bin/../arm-nacl/lib/libnacl.a(isatty.o)
                                        0x15f (size before relaxing)
 .debug_str     0x0000000000005437       0x21 /Users/jkwang/Desktop/nacl_sdk/pepper_canary/toolchain/mac_pnacl/bin/../arm-nacl/lib/libnacl.a(lseek.o)
                                        0x192 (size before relaxing)
 .debug_str     0x0000000000005458       0x1f /Users/jkwang/Desktop/nacl_sdk/pepper_canary/toolchain/mac_pnacl/bin/../arm-nacl/lib/libnacl.a(nanosleep.o)
                                        0x1ac (size before relaxing)
 .debug_str     0x0000000000005477       0x3f /Users/jkwang/Desktop/nacl_sdk/pepper_canary/toolchain/mac_pnacl/bin/../arm-nacl/lib/libnacl.a(nacl_irt_fdio.o)
                                        0x167 (size before relaxing)
 .debug_str     0x00000000000054b6       0x1a /Users/jkwang/Desktop/nacl_sdk/pepper_canary/toolchain/mac_pnacl/bin/../arm-nacl/lib/libnacl.a(read.o)
                                        0x17a (size before relaxing)
 .debug_str     0x00000000000054d0      0x5f5 /Users/jkwang/Desktop/nacl_sdk/pepper_canary/toolchain/mac_pnacl/bin/../lib/clang/3.7.0/lib/arm-nacl/libgcc_eh.a(unwind-dw2-fde-glibc.o)
                                        0x824 (size before relaxing)

.debug_loc      0x0000000000000000    0x198fb
 *(.debug_loc)
 .debug_loc     0x0000000000000000      0x23f clang-newlib/Release/debugging_arm.o
 .debug_loc     0x000000000000023f      0x2cd /Users/jkwang/Desktop/nacl_sdk/pepper_canary/lib/clang-newlib_arm/Release/liberror_handling.a(error_handling_arm.o)
 .debug_loc     0x000000000000050c       0xbc /Users/jkwang/Desktop/nacl_sdk/pepper_canary/lib/clang-newlib_arm/Release/liberror_handling.a(string_stream_arm.o)
 .debug_loc     0x00000000000005c8      0xb44 /Users/jkwang/Desktop/nacl_sdk/pepper_canary/toolchain/mac_pnacl/bin/../arm-nacl/lib/libpthread.a(nc_thread.o)
 .debug_loc     0x000000000000110c      0xa62 /Users/jkwang/Desktop/nacl_sdk/pepper_canary/toolchain/mac_pnacl/bin/../arm-nacl/lib/libpthread.a(nc_mutex.o)
 .debug_loc     0x0000000000001b6e      0x285 /Users/jkwang/Desktop/nacl_sdk/pepper_canary/toolchain/mac_pnacl/bin/../arm-nacl/lib/libpthread.a(nc_condvar.o)
 .debug_loc     0x0000000000001df3       0x26 /Users/jkwang/Desktop/nacl_sdk/pepper_canary/toolchain/mac_pnacl/bin/../arm-nacl/lib/libpthread.a(valgrind_annotations.o)
 .debug_loc     0x0000000000001e19        0x0 /Users/jkwang/Desktop/nacl_sdk/pepper_canary/toolchain/mac_pnacl/bin/../arm-nacl/lib/libpthread.a(nc_init_irt.o)
 .debug_loc     0x0000000000001e19      0x1cc /Users/jkwang/Desktop/nacl_sdk/pepper_canary/toolchain/mac_pnacl/bin/../arm-nacl/lib/libnacl.a(nacl_irt.o)
 .debug_loc     0x0000000000001fe5        0x0 /Users/jkwang/Desktop/nacl_sdk/pepper_canary/toolchain/mac_pnacl/bin/../arm-nacl/lib/libnacl.a(_exit.o)
 .debug_loc     0x0000000000001fe5       0x8a /Users/jkwang/Desktop/nacl_sdk/pepper_canary/toolchain/mac_pnacl/bin/../arm-nacl/lib/libnacl.a(mmap.o)
 .debug_loc     0x000000000000206f       0x26 /Users/jkwang/Desktop/nacl_sdk/pepper_canary/toolchain/mac_pnacl/bin/../arm-nacl/lib/libnacl.a(munmap.o)
 .debug_loc     0x0000000000002095       0x1e /Users/jkwang/Desktop/nacl_sdk/pepper_canary/toolchain/mac_pnacl/bin/../arm-nacl/lib/libnacl.a(nacl_interface_query.o)
 .debug_loc     0x00000000000020b3       0x3a /Users/jkwang/Desktop/nacl_sdk/pepper_canary/toolchain/mac_pnacl/bin/../arm-nacl/lib/libnacl.a(write.o)
 .debug_loc     0x00000000000020ed        0x0 /Users/jkwang/Desktop/nacl_sdk/pepper_canary/toolchain/mac_pnacl/bin/../arm-nacl/lib/libnacl.a(environ.o)
 .debug_loc     0x00000000000020ed     0x3b5b /Users/jkwang/Desktop/nacl_sdk/pepper_canary/toolchain/mac_pnacl/bin/../arm-nacl/lib/libnacl.a(malloc.o)
 .debug_loc     0x0000000000005c48      0x101 /Users/jkwang/Desktop/nacl_sdk/pepper_canary/toolchain/mac_pnacl/bin/../arm-nacl/lib/libnacl.a(start.o)
 .debug_loc     0x0000000000005d49        0x0 /Users/jkwang/Desktop/nacl_sdk/pepper_canary/toolchain/mac_pnacl/bin/../arm-nacl/lib/libnacl.a(nacl_read_tp.o)
 .debug_loc     0x0000000000005d49       0x62 /Users/jkwang/Desktop/nacl_sdk/pepper_canary/toolchain/mac_pnacl/bin/../arm-nacl/lib/libnacl.a(pthread_initialize_minimal.o)
 .debug_loc     0x0000000000005dab      0x24e /Users/jkwang/Desktop/nacl_sdk/pepper_canary/toolchain/mac_pnacl/bin/../arm-nacl/lib/libnacl.a(tls.o)
 .debug_loc     0x0000000000005ff9       0x4c /Users/jkwang/Desktop/nacl_sdk/pepper_canary/toolchain/mac_pnacl/bin/../arm-nacl/lib/libnacl.a(nacl_irt_init.o)
 .debug_loc     0x0000000000006045        0x0 /Users/jkwang/Desktop/nacl_sdk/pepper_canary/toolchain/mac_pnacl/bin/../arm-nacl/lib/libnacl.a(nacl_tls_get.o)
 .debug_loc     0x0000000000006045        0x0 /Users/jkwang/Desktop/nacl_sdk/pepper_canary/toolchain/mac_pnacl/bin/../arm-nacl/lib/libnacl.a(nacl_tls_init.o)
 .debug_loc     0x0000000000006045        0x0 /Users/jkwang/Desktop/nacl_sdk/pepper_canary/toolchain/mac_pnacl/bin/../arm-nacl/lib/libnacl.a(abort.o)
 .debug_loc     0x0000000000006045       0x13 /Users/jkwang/Desktop/nacl_sdk/pepper_canary/toolchain/mac_pnacl/bin/../arm-nacl/lib/libnacl.a(sched_yield.o)
 .debug_loc     0x0000000000006058       0x3a /Users/jkwang/Desktop/nacl_sdk/pepper_canary/toolchain/mac_pnacl/bin/../arm-nacl/lib/libnacl.a(sysconf.o)
 .debug_loc     0x0000000000006092       0x1e /Users/jkwang/Desktop/nacl_sdk/pepper_canary/toolchain/mac_pnacl/bin/../arm-nacl/lib/libcrt_common.a(lib_a-atexit.o)
 .debug_loc     0x00000000000060b0        0x0 /Users/jkwang/Desktop/nacl_sdk/pepper_canary/toolchain/mac_pnacl/bin/../arm-nacl/lib/libcrt_common.a(lib_a-errno.o)
 .debug_loc     0x00000000000060b0       0x1e /Users/jkwang/Desktop/nacl_sdk/pepper_canary/toolchain/mac_pnacl/bin/../arm-nacl/lib/libcrt_common.a(lib_a-exit.o)
 .debug_loc     0x00000000000060ce      0x34b /Users/jkwang/Desktop/nacl_sdk/pepper_canary/toolchain/mac_pnacl/bin/../arm-nacl/lib/libcrt_common.a(lib_a-fflush.o)
 .debug_loc     0x0000000000006419      0x134 /Users/jkwang/Desktop/nacl_sdk/pepper_canary/toolchain/mac_pnacl/bin/../arm-nacl/lib/libcrt_common.a(lib_a-findfp.o)
 .debug_loc     0x000000000000654d       0x13 /Users/jkwang/Desktop/nacl_sdk/pepper_canary/toolchain/mac_pnacl/bin/../arm-nacl/lib/libcrt_common.a(lib_a-fini.o)
 .debug_loc     0x0000000000006560       0x5a /Users/jkwang/Desktop/nacl_sdk/pepper_canary/toolchain/mac_pnacl/bin/../arm-nacl/lib/libcrt_common.a(lib_a-fprintf.o)
 .debug_loc     0x00000000000065ba      0x265 /Users/jkwang/Desktop/nacl_sdk/pepper_canary/toolchain/mac_pnacl/bin/../arm-nacl/lib/libcrt_common.a(lib_a-fwalk.o)
 .debug_loc     0x000000000000681f      0x1a9 /Users/jkwang/Desktop/nacl_sdk/pepper_canary/toolchain/mac_pnacl/bin/../arm-nacl/lib/libcrt_common.a(lib_a-fwrite.o)
 .debug_loc     0x00000000000069c8       0x5a /Users/jkwang/Desktop/nacl_sdk/pepper_canary/toolchain/mac_pnacl/bin/../arm-nacl/lib/libcrt_common.a(lib_a-getenv.o)
 .debug_loc     0x0000000000006a22      0x10d /Users/jkwang/Desktop/nacl_sdk/pepper_canary/toolchain/mac_pnacl/bin/../arm-nacl/lib/libcrt_common.a(lib_a-getenv_r.o)
 .debug_loc     0x0000000000006b2f        0x0 /Users/jkwang/Desktop/nacl_sdk/pepper_canary/toolchain/mac_pnacl/bin/../arm-nacl/lib/libcrt_common.a(lib_a-impure.o)
 .debug_loc     0x0000000000006b2f       0x45 /Users/jkwang/Desktop/nacl_sdk/pepper_canary/toolchain/mac_pnacl/bin/../arm-nacl/lib/libcrt_common.a(lib_a-init.o)
 .debug_loc     0x0000000000006b74       0xe3 /Users/jkwang/Desktop/nacl_sdk/pepper_canary/toolchain/mac_pnacl/bin/../arm-nacl/lib/libcrt_common.a(lib_a-memset.o)
 .debug_loc     0x0000000000006c57       0x27 /Users/jkwang/Desktop/nacl_sdk/pepper_canary/toolchain/mac_pnacl/bin/../arm-nacl/lib/libcrt_common.a(lib_a-sleep.o)
 .debug_loc     0x0000000000006c7e      0x1c5 /Users/jkwang/Desktop/nacl_sdk/pepper_canary/toolchain/mac_pnacl/bin/../arm-nacl/lib/libcrt_common.a(lib_a-stdio.o)
 .debug_loc     0x0000000000006e43       0x3c /Users/jkwang/Desktop/nacl_sdk/pepper_canary/toolchain/mac_pnacl/bin/../arm-nacl/lib/libcrt_common.a(lib_a-strcat.o)
 .debug_loc     0x0000000000006e7f        0x0 /Users/jkwang/Desktop/nacl_sdk/pepper_canary/toolchain/mac_pnacl/bin/../arm-nacl/lib/libcrt_common.a(lib_a-strcpy.o)
 .debug_loc     0x0000000000006e7f       0xa1 /Users/jkwang/Desktop/nacl_sdk/pepper_canary/toolchain/mac_pnacl/bin/../arm-nacl/lib/libcrt_common.a(lib_a-strncmp.o)
 .debug_loc     0x0000000000006f20     0x357a /Users/jkwang/Desktop/nacl_sdk/pepper_canary/toolchain/mac_pnacl/bin/../arm-nacl/lib/libcrt_common.a(lib_a-vfprintf.o)
 .debug_loc     0x000000000000a49a      0x13b /Users/jkwang/Desktop/nacl_sdk/pepper_canary/toolchain/mac_pnacl/bin/../arm-nacl/lib/libcrt_common.a(lib_a-vsnprintf.o)
 .debug_loc     0x000000000000a5d5       0xd6 /Users/jkwang/Desktop/nacl_sdk/pepper_canary/toolchain/mac_pnacl/bin/../arm-nacl/lib/libcrt_common.a(lib_a-vsprintf.o)
 .debug_loc     0x000000000000a6ab      0x155 /Users/jkwang/Desktop/nacl_sdk/pepper_canary/toolchain/mac_pnacl/bin/../arm-nacl/lib/libcrt_common.a(lib_a-wcrtomb.o)
 .debug_loc     0x000000000000a800       0xa7 /Users/jkwang/Desktop/nacl_sdk/pepper_canary/toolchain/mac_pnacl/bin/../arm-nacl/lib/libcrt_common.a(lib_a-wcsrtombs.o)
 .debug_loc     0x000000000000a8a7      0x4bb /Users/jkwang/Desktop/nacl_sdk/pepper_canary/toolchain/mac_pnacl/bin/../arm-nacl/lib/libcrt_common.a(lib_a-wctomb_r.o)
 .debug_loc     0x000000000000ad62       0xe9 /Users/jkwang/Desktop/nacl_sdk/pepper_canary/toolchain/mac_pnacl/bin/../arm-nacl/lib/libcrt_common.a(lib_a-wsetup.o)
 .debug_loc     0x000000000000ae4b       0x96 /Users/jkwang/Desktop/nacl_sdk/pepper_canary/toolchain/mac_pnacl/bin/../arm-nacl/lib/libcrt_common.a(lib_a-__atexit.o)
 .debug_loc     0x000000000000aee1      0x172 /Users/jkwang/Desktop/nacl_sdk/pepper_canary/toolchain/mac_pnacl/bin/../arm-nacl/lib/libcrt_common.a(lib_a-__call_atexit.o)
 .debug_loc     0x000000000000b053     0x1b4d /Users/jkwang/Desktop/nacl_sdk/pepper_canary/toolchain/mac_pnacl/bin/../arm-nacl/lib/libcrt_common.a(lib_a-dtoa.o)
 .debug_loc     0x000000000000cba0        0x0 /Users/jkwang/Desktop/nacl_sdk/pepper_canary/toolchain/mac_pnacl/bin/../arm-nacl/lib/libcrt_common.a(lib_a-envlock.o)
 .debug_loc     0x000000000000cba0      0x127 /Users/jkwang/Desktop/nacl_sdk/pepper_canary/toolchain/mac_pnacl/bin/../arm-nacl/lib/libcrt_common.a(lib_a-fclose.o)
 .debug_loc     0x000000000000ccc7      0x581 /Users/jkwang/Desktop/nacl_sdk/pepper_canary/toolchain/mac_pnacl/bin/../arm-nacl/lib/libcrt_common.a(lib_a-fvwrite.o)
 .debug_loc     0x000000000000d248      0x6db /Users/jkwang/Desktop/nacl_sdk/pepper_canary/toolchain/mac_pnacl/bin/../arm-nacl/lib/libcrt_common.a(lib_a-locale.o)
 .debug_loc     0x000000000000d923       0xf2 /Users/jkwang/Desktop/nacl_sdk/pepper_canary/toolchain/mac_pnacl/bin/../arm-nacl/lib/libcrt_common.a(lib_a-makebuf.o)
 .debug_loc     0x000000000000da15      0x83c /Users/jkwang/Desktop/nacl_sdk/pepper_canary/toolchain/mac_pnacl/bin/../arm-nacl/lib/libcrt_common.a(lib_a-mbtowc_r.o)
 .debug_loc     0x000000000000e251      0x1bc /Users/jkwang/Desktop/nacl_sdk/pepper_canary/toolchain/mac_pnacl/bin/../arm-nacl/lib/libcrt_common.a(lib_a-memmove.o)
 .debug_loc     0x000000000000e40d     0x1998 /Users/jkwang/Desktop/nacl_sdk/pepper_canary/toolchain/mac_pnacl/bin/../arm-nacl/lib/libcrt_common.a(lib_a-mprec.o)
 .debug_loc     0x000000000000fda5        0x0 /Users/jkwang/Desktop/nacl_sdk/pepper_canary/toolchain/mac_pnacl/bin/../arm-nacl/lib/libcrt_common.a(lib_a-s_fpclassify.o)
 .debug_loc     0x000000000000fda5       0x9b /Users/jkwang/Desktop/nacl_sdk/pepper_canary/toolchain/mac_pnacl/bin/../arm-nacl/lib/libcrt_common.a(lib_a-s_frexp.o)
 .debug_loc     0x000000000000fe40       0xa8 /Users/jkwang/Desktop/nacl_sdk/pepper_canary/toolchain/mac_pnacl/bin/../arm-nacl/lib/libcrt_common.a(lib_a-strcasecmp.o)
 .debug_loc     0x000000000000fee8       0xcd /Users/jkwang/Desktop/nacl_sdk/pepper_canary/toolchain/mac_pnacl/bin/../arm-nacl/lib/libcrt_common.a(lib_a-strchr.o)
 .debug_loc     0x000000000000ffb5       0xa1 /Users/jkwang/Desktop/nacl_sdk/pepper_canary/toolchain/mac_pnacl/bin/../arm-nacl/lib/libcrt_common.a(lib_a-strlcpy.o)
 .debug_loc     0x0000000000010056       0xd2 /Users/jkwang/Desktop/nacl_sdk/pepper_canary/toolchain/mac_pnacl/bin/../arm-nacl/lib/libcrt_common.a(lib_a-strncasecmp.o)
 .debug_loc     0x0000000000010128      0x101 /Users/jkwang/Desktop/nacl_sdk/pepper_canary/toolchain/mac_pnacl/bin/../arm-nacl/lib/libcrt_common.a(lib_a-strncpy.o)
 .debug_loc     0x0000000000010229      0x2f7 /Users/jkwang/Desktop/nacl_sdk/pepper_canary/toolchain/mac_pnacl/bin/../arm-nacl/lib/libcrt_common.a(lib_a-strtol.o)
 .debug_loc     0x0000000000010520     0x30bf /Users/jkwang/Desktop/nacl_sdk/pepper_canary/toolchain/mac_pnacl/bin/../arm-nacl/lib/libcrt_common.a(lib_a-svfprintf.o)
 .debug_loc     0x00000000000135df     0x2b08 /Users/jkwang/Desktop/nacl_sdk/pepper_canary/toolchain/mac_pnacl/bin/../arm-nacl/lib/libcrt_common.a(lib_a-vfiprintf.o)
 .debug_loc     0x00000000000160e7      0x2dc /Users/jkwang/Desktop/nacl_sdk/pepper_canary/toolchain/mac_pnacl/bin/../arm-nacl/lib/libcrt_common.a(lib_a-wcsnrtombs.o)
 .debug_loc     0x00000000000163c3       0x13 /Users/jkwang/Desktop/nacl_sdk/pepper_canary/toolchain/mac_pnacl/bin/../arm-nacl/lib/libcrt_common.a(lib_a-ctype_.o)
 .debug_loc     0x00000000000163d6      0x247 /Users/jkwang/Desktop/nacl_sdk/pepper_canary/toolchain/mac_pnacl/bin/../arm-nacl/lib/libcrt_common.a(lib_a-fputwc.o)
 .debug_loc     0x000000000001661d     0x1425 /Users/jkwang/Desktop/nacl_sdk/pepper_canary/toolchain/mac_pnacl/bin/../arm-nacl/lib/libcrt_common.a(lib_a-svfiprintf.o)
 .debug_loc     0x0000000000017a42      0x16c /Users/jkwang/Desktop/nacl_sdk/pepper_canary/toolchain/mac_pnacl/bin/../arm-nacl/lib/libcrt_common.a(lib_a-wbuf.o)
 .debug_loc     0x0000000000017bae       0x26 /Users/jkwang/Desktop/nacl_sdk/pepper_canary/toolchain/mac_pnacl/bin/../arm-nacl/lib/libnacl.a(close.o)
 .debug_loc     0x0000000000017bd4       0x26 /Users/jkwang/Desktop/nacl_sdk/pepper_canary/toolchain/mac_pnacl/bin/../arm-nacl/lib/libnacl.a(fstat.o)
 .debug_loc     0x0000000000017bfa       0x45 /Users/jkwang/Desktop/nacl_sdk/pepper_canary/toolchain/mac_pnacl/bin/../arm-nacl/lib/libnacl.a(isatty.o)
 .debug_loc     0x0000000000017c3f       0x66 /Users/jkwang/Desktop/nacl_sdk/pepper_canary/toolchain/mac_pnacl/bin/../arm-nacl/lib/libnacl.a(lseek.o)
 .debug_loc     0x0000000000017ca5       0x26 /Users/jkwang/Desktop/nacl_sdk/pepper_canary/toolchain/mac_pnacl/bin/../arm-nacl/lib/libnacl.a(nanosleep.o)
 .debug_loc     0x0000000000017ccb        0x0 /Users/jkwang/Desktop/nacl_sdk/pepper_canary/toolchain/mac_pnacl/bin/../arm-nacl/lib/libnacl.a(nacl_irt_fdio.o)
 .debug_loc     0x0000000000017ccb       0x3a /Users/jkwang/Desktop/nacl_sdk/pepper_canary/toolchain/mac_pnacl/bin/../arm-nacl/lib/libnacl.a(read.o)
 .debug_loc     0x0000000000017d05     0x1bf6 /Users/jkwang/Desktop/nacl_sdk/pepper_canary/toolchain/mac_pnacl/bin/../lib/clang/3.7.0/lib/arm-nacl/libgcc_eh.a(unwind-dw2-fde-glibc.o)

.debug_macinfo
 *(.debug_macinfo)

.debug_weaknames
 *(.debug_weaknames)

.debug_funcnames
 *(.debug_funcnames)

.debug_typenames
 *(.debug_typenames)

.debug_varnames
 *(.debug_varnames)

.debug_pubtypes
                0x0000000000000000     0x59ef
 *(.debug_pubtypes)
 .debug_pubtypes
                0x0000000000000000      0x254 clang-newlib/Release/debugging_arm.o
 .debug_pubtypes
                0x0000000000000254      0x182 /Users/jkwang/Desktop/nacl_sdk/pepper_canary/lib/clang-newlib_arm/Release/liberror_handling.a(error_handling_arm.o)
 .debug_pubtypes
                0x00000000000003d6       0x7d /Users/jkwang/Desktop/nacl_sdk/pepper_canary/lib/clang-newlib_arm/Release/liberror_handling.a(string_stream_arm.o)
 .debug_pubtypes
                0x0000000000000453      0x22c /Users/jkwang/Desktop/nacl_sdk/pepper_canary/toolchain/mac_pnacl/bin/../arm-nacl/lib/libpthread.a(nc_thread.o)
 .debug_pubtypes
                0x000000000000067f      0x1bf /Users/jkwang/Desktop/nacl_sdk/pepper_canary/toolchain/mac_pnacl/bin/../arm-nacl/lib/libpthread.a(nc_mutex.o)
 .debug_pubtypes
                0x000000000000083e      0x1a2 /Users/jkwang/Desktop/nacl_sdk/pepper_canary/toolchain/mac_pnacl/bin/../arm-nacl/lib/libpthread.a(nc_condvar.o)
 .debug_pubtypes
                0x00000000000009e0       0x30 /Users/jkwang/Desktop/nacl_sdk/pepper_canary/toolchain/mac_pnacl/bin/../arm-nacl/lib/libpthread.a(valgrind_annotations.o)
 .debug_pubtypes
                0x0000000000000a10       0x7f /Users/jkwang/Desktop/nacl_sdk/pepper_canary/toolchain/mac_pnacl/bin/../arm-nacl/lib/libpthread.a(nc_init_irt.o)
 .debug_pubtypes
                0x0000000000000a8f      0x21f /Users/jkwang/Desktop/nacl_sdk/pepper_canary/toolchain/mac_pnacl/bin/../arm-nacl/lib/libnacl.a(nacl_irt.o)
 .debug_pubtypes
                0x0000000000000cae       0x1a /Users/jkwang/Desktop/nacl_sdk/pepper_canary/toolchain/mac_pnacl/bin/../arm-nacl/lib/libnacl.a(_exit.o)
 .debug_pubtypes
                0x0000000000000cc8       0x6b /Users/jkwang/Desktop/nacl_sdk/pepper_canary/toolchain/mac_pnacl/bin/../arm-nacl/lib/libnacl.a(mmap.o)
 .debug_pubtypes
                0x0000000000000d33       0x36 /Users/jkwang/Desktop/nacl_sdk/pepper_canary/toolchain/mac_pnacl/bin/../arm-nacl/lib/libnacl.a(munmap.o)
 .debug_pubtypes
                0x0000000000000d69       0x37 /Users/jkwang/Desktop/nacl_sdk/pepper_canary/toolchain/mac_pnacl/bin/../arm-nacl/lib/libnacl.a(nacl_interface_query.o)
 .debug_pubtypes
                0x0000000000000da0       0x36 /Users/jkwang/Desktop/nacl_sdk/pepper_canary/toolchain/mac_pnacl/bin/../arm-nacl/lib/libnacl.a(write.o)
 .debug_pubtypes
                0x0000000000000dd6       0x1b /Users/jkwang/Desktop/nacl_sdk/pepper_canary/toolchain/mac_pnacl/bin/../arm-nacl/lib/libnacl.a(environ.o)
 .debug_pubtypes
                0x0000000000000df1      0x2b5 /Users/jkwang/Desktop/nacl_sdk/pepper_canary/toolchain/mac_pnacl/bin/../arm-nacl/lib/libnacl.a(malloc.o)
 .debug_pubtypes
                0x00000000000010a6       0xa6 /Users/jkwang/Desktop/nacl_sdk/pepper_canary/toolchain/mac_pnacl/bin/../arm-nacl/lib/libnacl.a(start.o)
 .debug_pubtypes
                0x000000000000114c       0x2e /Users/jkwang/Desktop/nacl_sdk/pepper_canary/toolchain/mac_pnacl/bin/../arm-nacl/lib/libnacl.a(pthread_initialize_minimal.o)
 .debug_pubtypes
                0x000000000000117a       0xcf /Users/jkwang/Desktop/nacl_sdk/pepper_canary/toolchain/mac_pnacl/bin/../arm-nacl/lib/libnacl.a(tls.o)
 .debug_pubtypes
                0x0000000000001249       0xeb /Users/jkwang/Desktop/nacl_sdk/pepper_canary/toolchain/mac_pnacl/bin/../arm-nacl/lib/libnacl.a(nacl_irt_init.o)
 .debug_pubtypes
                0x0000000000001334       0x1a /Users/jkwang/Desktop/nacl_sdk/pepper_canary/toolchain/mac_pnacl/bin/../arm-nacl/lib/libnacl.a(nacl_tls_init.o)
 .debug_pubtypes
                0x000000000000134e       0x1b /Users/jkwang/Desktop/nacl_sdk/pepper_canary/toolchain/mac_pnacl/bin/../arm-nacl/lib/libnacl.a(abort.o)
 .debug_pubtypes
                0x0000000000001369       0x1a /Users/jkwang/Desktop/nacl_sdk/pepper_canary/toolchain/mac_pnacl/bin/../arm-nacl/lib/libnacl.a(sched_yield.o)
 .debug_pubtypes
                0x0000000000001383       0x27 /Users/jkwang/Desktop/nacl_sdk/pepper_canary/toolchain/mac_pnacl/bin/../arm-nacl/lib/libnacl.a(sysconf.o)
 .debug_pubtypes
                0x00000000000013aa       0x2d /Users/jkwang/Desktop/nacl_sdk/pepper_canary/toolchain/mac_pnacl/bin/../arm-nacl/lib/libcrt_common.a(lib_a-atexit.o)
 .debug_pubtypes
                0x00000000000013d7       0x1a /Users/jkwang/Desktop/nacl_sdk/pepper_canary/toolchain/mac_pnacl/bin/../arm-nacl/lib/libcrt_common.a(lib_a-errno.o)
 .debug_pubtypes
                0x00000000000013f1       0x1a /Users/jkwang/Desktop/nacl_sdk/pepper_canary/toolchain/mac_pnacl/bin/../arm-nacl/lib/libcrt_common.a(lib_a-exit.o)
 .debug_pubtypes
                0x000000000000140b      0x1c8 /Users/jkwang/Desktop/nacl_sdk/pepper_canary/toolchain/mac_pnacl/bin/../arm-nacl/lib/libcrt_common.a(lib_a-fflush.o)
 .debug_pubtypes
                0x00000000000015d3      0x1db /Users/jkwang/Desktop/nacl_sdk/pepper_canary/toolchain/mac_pnacl/bin/../arm-nacl/lib/libcrt_common.a(lib_a-findfp.o)
 .debug_pubtypes
                0x00000000000017ae       0x2e /Users/jkwang/Desktop/nacl_sdk/pepper_canary/toolchain/mac_pnacl/bin/../arm-nacl/lib/libcrt_common.a(lib_a-fini.o)
 .debug_pubtypes
                0x00000000000017dc      0x1f8 /Users/jkwang/Desktop/nacl_sdk/pepper_canary/toolchain/mac_pnacl/bin/../arm-nacl/lib/libcrt_common.a(lib_a-fprintf.o)
 .debug_pubtypes
                0x00000000000019d4      0x1c8 /Users/jkwang/Desktop/nacl_sdk/pepper_canary/toolchain/mac_pnacl/bin/../arm-nacl/lib/libcrt_common.a(lib_a-fwalk.o)
 .debug_pubtypes
                0x0000000000001b9c      0x1e9 /Users/jkwang/Desktop/nacl_sdk/pepper_canary/toolchain/mac_pnacl/bin/../arm-nacl/lib/libcrt_common.a(lib_a-fwrite.o)
 .debug_pubtypes
                0x0000000000001d85       0x23 /Users/jkwang/Desktop/nacl_sdk/pepper_canary/toolchain/mac_pnacl/bin/../arm-nacl/lib/libcrt_common.a(lib_a-getenv.o)
 .debug_pubtypes
                0x0000000000001da8      0x1bf /Users/jkwang/Desktop/nacl_sdk/pepper_canary/toolchain/mac_pnacl/bin/../arm-nacl/lib/libcrt_common.a(lib_a-getenv_r.o)
 .debug_pubtypes
                0x0000000000001f67      0x1bf /Users/jkwang/Desktop/nacl_sdk/pepper_canary/toolchain/mac_pnacl/bin/../arm-nacl/lib/libcrt_common.a(lib_a-impure.o)
 .debug_pubtypes
                0x0000000000002126       0x2e /Users/jkwang/Desktop/nacl_sdk/pepper_canary/toolchain/mac_pnacl/bin/../arm-nacl/lib/libcrt_common.a(lib_a-init.o)
 .debug_pubtypes
                0x0000000000002154       0x62 /Users/jkwang/Desktop/nacl_sdk/pepper_canary/toolchain/mac_pnacl/bin/../arm-nacl/lib/libcrt_common.a(lib_a-memset.o)
 .debug_pubtypes
                0x00000000000021b6       0x75 /Users/jkwang/Desktop/nacl_sdk/pepper_canary/toolchain/mac_pnacl/bin/../arm-nacl/lib/libcrt_common.a(lib_a-sleep.o)
 .debug_pubtypes
                0x000000000000222b      0x1e1 /Users/jkwang/Desktop/nacl_sdk/pepper_canary/toolchain/mac_pnacl/bin/../arm-nacl/lib/libcrt_common.a(lib_a-stdio.o)
 .debug_pubtypes
                0x000000000000240c       0x3e /Users/jkwang/Desktop/nacl_sdk/pepper_canary/toolchain/mac_pnacl/bin/../arm-nacl/lib/libcrt_common.a(lib_a-strcat.o)
 .debug_pubtypes
                0x000000000000244a       0x1b /Users/jkwang/Desktop/nacl_sdk/pepper_canary/toolchain/mac_pnacl/bin/../arm-nacl/lib/libcrt_common.a(lib_a-strcpy.o)
 .debug_pubtypes
                0x0000000000002465       0x74 /Users/jkwang/Desktop/nacl_sdk/pepper_canary/toolchain/mac_pnacl/bin/../arm-nacl/lib/libcrt_common.a(lib_a-strncmp.o)
 .debug_pubtypes
                0x00000000000024d9      0x2a3 /Users/jkwang/Desktop/nacl_sdk/pepper_canary/toolchain/mac_pnacl/bin/../arm-nacl/lib/libcrt_common.a(lib_a-vfprintf.o)
 .debug_pubtypes
                0x000000000000277c      0x203 /Users/jkwang/Desktop/nacl_sdk/pepper_canary/toolchain/mac_pnacl/bin/../arm-nacl/lib/libcrt_common.a(lib_a-vsnprintf.o)
 .debug_pubtypes
                0x000000000000297f      0x1f8 /Users/jkwang/Desktop/nacl_sdk/pepper_canary/toolchain/mac_pnacl/bin/../arm-nacl/lib/libcrt_common.a(lib_a-vsprintf.o)
 .debug_pubtypes
                0x0000000000002b77      0x1e4 /Users/jkwang/Desktop/nacl_sdk/pepper_canary/toolchain/mac_pnacl/bin/../arm-nacl/lib/libcrt_common.a(lib_a-wcrtomb.o)
 .debug_pubtypes
                0x0000000000002d5b      0x1e4 /Users/jkwang/Desktop/nacl_sdk/pepper_canary/toolchain/mac_pnacl/bin/../arm-nacl/lib/libcrt_common.a(lib_a-wcsrtombs.o)
 .debug_pubtypes
                0x0000000000002f3f      0x1e4 /Users/jkwang/Desktop/nacl_sdk/pepper_canary/toolchain/mac_pnacl/bin/../arm-nacl/lib/libcrt_common.a(lib_a-wctomb_r.o)
 .debug_pubtypes
                0x0000000000003123      0x1c8 /Users/jkwang/Desktop/nacl_sdk/pepper_canary/toolchain/mac_pnacl/bin/../arm-nacl/lib/libcrt_common.a(lib_a-wsetup.o)
 .debug_pubtypes
                0x00000000000032eb       0x6d /Users/jkwang/Desktop/nacl_sdk/pepper_canary/toolchain/mac_pnacl/bin/../arm-nacl/lib/libcrt_common.a(lib_a-__atexit.o)
 .debug_pubtypes
                0x0000000000003358       0x98 /Users/jkwang/Desktop/nacl_sdk/pepper_canary/toolchain/mac_pnacl/bin/../arm-nacl/lib/libcrt_common.a(lib_a-__call_atexit.o)
 .debug_pubtypes
                0x00000000000033f0      0x1ea /Users/jkwang/Desktop/nacl_sdk/pepper_canary/toolchain/mac_pnacl/bin/../arm-nacl/lib/libcrt_common.a(lib_a-dtoa.o)
 .debug_pubtypes
                0x00000000000035da      0x1bf /Users/jkwang/Desktop/nacl_sdk/pepper_canary/toolchain/mac_pnacl/bin/../arm-nacl/lib/libcrt_common.a(lib_a-envlock.o)
 .debug_pubtypes
                0x0000000000003799      0x1c8 /Users/jkwang/Desktop/nacl_sdk/pepper_canary/toolchain/mac_pnacl/bin/../arm-nacl/lib/libcrt_common.a(lib_a-fclose.o)
 .debug_pubtypes
                0x0000000000003961      0x1e9 /Users/jkwang/Desktop/nacl_sdk/pepper_canary/toolchain/mac_pnacl/bin/../arm-nacl/lib/libcrt_common.a(lib_a-fvwrite.o)
 .debug_pubtypes
                0x0000000000003b4a      0x1ee /Users/jkwang/Desktop/nacl_sdk/pepper_canary/toolchain/mac_pnacl/bin/../arm-nacl/lib/libcrt_common.a(lib_a-locale.o)
 .debug_pubtypes
                0x0000000000003d38      0x2ed /Users/jkwang/Desktop/nacl_sdk/pepper_canary/toolchain/mac_pnacl/bin/../arm-nacl/lib/libcrt_common.a(lib_a-makebuf.o)
 .debug_pubtypes
                0x0000000000004025      0x213 /Users/jkwang/Desktop/nacl_sdk/pepper_canary/toolchain/mac_pnacl/bin/../arm-nacl/lib/libcrt_common.a(lib_a-mbtowc_r.o)
 .debug_pubtypes
                0x0000000000004238       0x44 /Users/jkwang/Desktop/nacl_sdk/pepper_canary/toolchain/mac_pnacl/bin/../arm-nacl/lib/libcrt_common.a(lib_a-memmove.o)
 .debug_pubtypes
                0x000000000000427c      0x1ea /Users/jkwang/Desktop/nacl_sdk/pepper_canary/toolchain/mac_pnacl/bin/../arm-nacl/lib/libcrt_common.a(lib_a-mprec.o)
 .debug_pubtypes
                0x0000000000004466       0x60 /Users/jkwang/Desktop/nacl_sdk/pepper_canary/toolchain/mac_pnacl/bin/../arm-nacl/lib/libcrt_common.a(lib_a-s_fpclassify.o)
 .debug_pubtypes
                0x00000000000044c6       0x6e /Users/jkwang/Desktop/nacl_sdk/pepper_canary/toolchain/mac_pnacl/bin/../arm-nacl/lib/libcrt_common.a(lib_a-s_frexp.o)
 .debug_pubtypes
                0x0000000000004534       0x35 /Users/jkwang/Desktop/nacl_sdk/pepper_canary/toolchain/mac_pnacl/bin/../arm-nacl/lib/libcrt_common.a(lib_a-strcasecmp.o)
 .debug_pubtypes
                0x0000000000004569       0x58 /Users/jkwang/Desktop/nacl_sdk/pepper_canary/toolchain/mac_pnacl/bin/../arm-nacl/lib/libcrt_common.a(lib_a-strchr.o)
 .debug_pubtypes
                0x00000000000045c1       0x37 /Users/jkwang/Desktop/nacl_sdk/pepper_canary/toolchain/mac_pnacl/bin/../arm-nacl/lib/libcrt_common.a(lib_a-strlcpy.o)
 .debug_pubtypes
                0x00000000000045f8       0x51 /Users/jkwang/Desktop/nacl_sdk/pepper_canary/toolchain/mac_pnacl/bin/../arm-nacl/lib/libcrt_common.a(lib_a-strncasecmp.o)
 .debug_pubtypes
                0x0000000000004649       0x44 /Users/jkwang/Desktop/nacl_sdk/pepper_canary/toolchain/mac_pnacl/bin/../arm-nacl/lib/libcrt_common.a(lib_a-strncpy.o)
 .debug_pubtypes
                0x000000000000468d      0x1bf /Users/jkwang/Desktop/nacl_sdk/pepper_canary/toolchain/mac_pnacl/bin/../arm-nacl/lib/libcrt_common.a(lib_a-strtol.o)
 .debug_pubtypes
                0x000000000000484c      0x2a3 /Users/jkwang/Desktop/nacl_sdk/pepper_canary/toolchain/mac_pnacl/bin/../arm-nacl/lib/libcrt_common.a(lib_a-svfprintf.o)
 .debug_pubtypes
                0x0000000000004aef      0x278 /Users/jkwang/Desktop/nacl_sdk/pepper_canary/toolchain/mac_pnacl/bin/../arm-nacl/lib/libcrt_common.a(lib_a-vfiprintf.o)
 .debug_pubtypes
                0x0000000000004d67      0x1e4 /Users/jkwang/Desktop/nacl_sdk/pepper_canary/toolchain/mac_pnacl/bin/../arm-nacl/lib/libcrt_common.a(lib_a-wcsnrtombs.o)
 .debug_pubtypes
                0x0000000000004f4b       0x1b /Users/jkwang/Desktop/nacl_sdk/pepper_canary/toolchain/mac_pnacl/bin/../arm-nacl/lib/libcrt_common.a(lib_a-ctype_.o)
 .debug_pubtypes
                0x0000000000004f66      0x1df /Users/jkwang/Desktop/nacl_sdk/pepper_canary/toolchain/mac_pnacl/bin/../arm-nacl/lib/libcrt_common.a(lib_a-fputwc.o)
 .debug_pubtypes
                0x0000000000005145      0x278 /Users/jkwang/Desktop/nacl_sdk/pepper_canary/toolchain/mac_pnacl/bin/../arm-nacl/lib/libcrt_common.a(lib_a-svfiprintf.o)
 .debug_pubtypes
                0x00000000000053bd      0x1c8 /Users/jkwang/Desktop/nacl_sdk/pepper_canary/toolchain/mac_pnacl/bin/../arm-nacl/lib/libcrt_common.a(lib_a-wbuf.o)
 .debug_pubtypes
                0x0000000000005585       0x1a /Users/jkwang/Desktop/nacl_sdk/pepper_canary/toolchain/mac_pnacl/bin/../arm-nacl/lib/libnacl.a(close.o)
 .debug_pubtypes
                0x000000000000559f      0x18b /Users/jkwang/Desktop/nacl_sdk/pepper_canary/toolchain/mac_pnacl/bin/../arm-nacl/lib/libnacl.a(fstat.o)
 .debug_pubtypes
                0x000000000000572a       0x1a /Users/jkwang/Desktop/nacl_sdk/pepper_canary/toolchain/mac_pnacl/bin/../arm-nacl/lib/libnacl.a(isatty.o)
 .debug_pubtypes
                0x0000000000005744       0x4f /Users/jkwang/Desktop/nacl_sdk/pepper_canary/toolchain/mac_pnacl/bin/../arm-nacl/lib/libnacl.a(lseek.o)
 .debug_pubtypes
                0x0000000000005793       0x6c /Users/jkwang/Desktop/nacl_sdk/pepper_canary/toolchain/mac_pnacl/bin/../arm-nacl/lib/libnacl.a(nanosleep.o)
 .debug_pubtypes
                0x00000000000057ff       0x36 /Users/jkwang/Desktop/nacl_sdk/pepper_canary/toolchain/mac_pnacl/bin/../arm-nacl/lib/libnacl.a(read.o)
 .debug_pubtypes
                0x0000000000005835      0x1ba /Users/jkwang/Desktop/nacl_sdk/pepper_canary/toolchain/mac_pnacl/bin/../lib/clang/3.7.0/lib/arm-nacl/libgcc_eh.a(unwind-dw2-fde-glibc.o)

.debug_ranges   0x0000000000000000     0x2d00
 *(.debug_ranges)
 .debug_ranges  0x0000000000000000       0x90 clang-newlib/Release/debugging_arm.o
 .debug_ranges  0x0000000000000090       0xf0 /Users/jkwang/Desktop/nacl_sdk/pepper_canary/lib/clang-newlib_arm/Release/liberror_handling.a(error_handling_arm.o)
 .debug_ranges  0x0000000000000180        0x0 /Users/jkwang/Desktop/nacl_sdk/pepper_canary/lib/clang-newlib_arm/Release/liberror_handling.a(string_stream_arm.o)
 .debug_ranges  0x0000000000000180      0x1f0 /Users/jkwang/Desktop/nacl_sdk/pepper_canary/toolchain/mac_pnacl/bin/../arm-nacl/lib/libpthread.a(nc_thread.o)
 .debug_ranges  0x0000000000000370       0xd8 /Users/jkwang/Desktop/nacl_sdk/pepper_canary/toolchain/mac_pnacl/bin/../arm-nacl/lib/libpthread.a(nc_mutex.o)
 .debug_ranges  0x0000000000000448        0x0 /Users/jkwang/Desktop/nacl_sdk/pepper_canary/toolchain/mac_pnacl/bin/../arm-nacl/lib/libpthread.a(nc_condvar.o)
 .debug_ranges  0x0000000000000448        0x0 /Users/jkwang/Desktop/nacl_sdk/pepper_canary/toolchain/mac_pnacl/bin/../arm-nacl/lib/libpthread.a(valgrind_annotations.o)
 .debug_ranges  0x0000000000000448        0x0 /Users/jkwang/Desktop/nacl_sdk/pepper_canary/toolchain/mac_pnacl/bin/../arm-nacl/lib/libpthread.a(nc_init_irt.o)
 .debug_ranges  0x0000000000000448       0x18 /Users/jkwang/Desktop/nacl_sdk/pepper_canary/toolchain/mac_pnacl/bin/../arm-nacl/lib/libnacl.a(nacl_irt.o)
 .debug_ranges  0x0000000000000460        0x0 /Users/jkwang/Desktop/nacl_sdk/pepper_canary/toolchain/mac_pnacl/bin/../arm-nacl/lib/libnacl.a(_exit.o)
 .debug_ranges  0x0000000000000460        0x0 /Users/jkwang/Desktop/nacl_sdk/pepper_canary/toolchain/mac_pnacl/bin/../arm-nacl/lib/libnacl.a(mmap.o)
 .debug_ranges  0x0000000000000460        0x0 /Users/jkwang/Desktop/nacl_sdk/pepper_canary/toolchain/mac_pnacl/bin/../arm-nacl/lib/libnacl.a(munmap.o)
 .debug_ranges  0x0000000000000460        0x0 /Users/jkwang/Desktop/nacl_sdk/pepper_canary/toolchain/mac_pnacl/bin/../arm-nacl/lib/libnacl.a(nacl_interface_query.o)
 .debug_ranges  0x0000000000000460        0x0 /Users/jkwang/Desktop/nacl_sdk/pepper_canary/toolchain/mac_pnacl/bin/../arm-nacl/lib/libnacl.a(write.o)
 .debug_ranges  0x0000000000000460        0x0 /Users/jkwang/Desktop/nacl_sdk/pepper_canary/toolchain/mac_pnacl/bin/../arm-nacl/lib/libnacl.a(environ.o)
 .debug_ranges  0x0000000000000460     0x1448 /Users/jkwang/Desktop/nacl_sdk/pepper_canary/toolchain/mac_pnacl/bin/../arm-nacl/lib/libnacl.a(malloc.o)
 .debug_ranges  0x00000000000018a8       0x18 /Users/jkwang/Desktop/nacl_sdk/pepper_canary/toolchain/mac_pnacl/bin/../arm-nacl/lib/libnacl.a(start.o)
 .debug_ranges  0x00000000000018c0        0x0 /Users/jkwang/Desktop/nacl_sdk/pepper_canary/toolchain/mac_pnacl/bin/../arm-nacl/lib/libnacl.a(nacl_read_tp.o)
 .debug_ranges  0x00000000000018c0        0x0 /Users/jkwang/Desktop/nacl_sdk/pepper_canary/toolchain/mac_pnacl/bin/../arm-nacl/lib/libnacl.a(pthread_initialize_minimal.o)
 .debug_ranges  0x00000000000018c0       0xf0 /Users/jkwang/Desktop/nacl_sdk/pepper_canary/toolchain/mac_pnacl/bin/../arm-nacl/lib/libnacl.a(tls.o)
 .debug_ranges  0x00000000000019b0        0x0 /Users/jkwang/Desktop/nacl_sdk/pepper_canary/toolchain/mac_pnacl/bin/../arm-nacl/lib/libnacl.a(nacl_irt_init.o)
 .debug_ranges  0x00000000000019b0        0x0 /Users/jkwang/Desktop/nacl_sdk/pepper_canary/toolchain/mac_pnacl/bin/../arm-nacl/lib/libnacl.a(nacl_tls_get.o)
 .debug_ranges  0x00000000000019b0        0x0 /Users/jkwang/Desktop/nacl_sdk/pepper_canary/toolchain/mac_pnacl/bin/../arm-nacl/lib/libnacl.a(nacl_tls_init.o)
 .debug_ranges  0x00000000000019b0        0x0 /Users/jkwang/Desktop/nacl_sdk/pepper_canary/toolchain/mac_pnacl/bin/../arm-nacl/lib/libnacl.a(abort.o)
 .debug_ranges  0x00000000000019b0        0x0 /Users/jkwang/Desktop/nacl_sdk/pepper_canary/toolchain/mac_pnacl/bin/../arm-nacl/lib/libnacl.a(sched_yield.o)
 .debug_ranges  0x00000000000019b0        0x0 /Users/jkwang/Desktop/nacl_sdk/pepper_canary/toolchain/mac_pnacl/bin/../arm-nacl/lib/libnacl.a(sysconf.o)
 .debug_ranges  0x00000000000019b0        0x0 /Users/jkwang/Desktop/nacl_sdk/pepper_canary/toolchain/mac_pnacl/bin/../arm-nacl/lib/libcrt_common.a(lib_a-atexit.o)
 .debug_ranges  0x00000000000019b0        0x0 /Users/jkwang/Desktop/nacl_sdk/pepper_canary/toolchain/mac_pnacl/bin/../arm-nacl/lib/libcrt_common.a(lib_a-errno.o)
 .debug_ranges  0x00000000000019b0        0x0 /Users/jkwang/Desktop/nacl_sdk/pepper_canary/toolchain/mac_pnacl/bin/../arm-nacl/lib/libcrt_common.a(lib_a-exit.o)
 .debug_ranges  0x00000000000019b0       0x50 /Users/jkwang/Desktop/nacl_sdk/pepper_canary/toolchain/mac_pnacl/bin/../arm-nacl/lib/libcrt_common.a(lib_a-fflush.o)
 .debug_ranges  0x0000000000001a00      0x120 /Users/jkwang/Desktop/nacl_sdk/pepper_canary/toolchain/mac_pnacl/bin/../arm-nacl/lib/libcrt_common.a(lib_a-findfp.o)
 .debug_ranges  0x0000000000001b20        0x0 /Users/jkwang/Desktop/nacl_sdk/pepper_canary/toolchain/mac_pnacl/bin/../arm-nacl/lib/libcrt_common.a(lib_a-fini.o)
 .debug_ranges  0x0000000000001b20       0x18 /Users/jkwang/Desktop/nacl_sdk/pepper_canary/toolchain/mac_pnacl/bin/../arm-nacl/lib/libcrt_common.a(lib_a-fprintf.o)
 .debug_ranges  0x0000000000001b38       0x30 /Users/jkwang/Desktop/nacl_sdk/pepper_canary/toolchain/mac_pnacl/bin/../arm-nacl/lib/libcrt_common.a(lib_a-fwalk.o)
 .debug_ranges  0x0000000000001b68       0x30 /Users/jkwang/Desktop/nacl_sdk/pepper_canary/toolchain/mac_pnacl/bin/../arm-nacl/lib/libcrt_common.a(lib_a-fwrite.o)
 .debug_ranges  0x0000000000001b98       0x18 /Users/jkwang/Desktop/nacl_sdk/pepper_canary/toolchain/mac_pnacl/bin/../arm-nacl/lib/libcrt_common.a(lib_a-getenv.o)
 .debug_ranges  0x0000000000001bb0       0x18 /Users/jkwang/Desktop/nacl_sdk/pepper_canary/toolchain/mac_pnacl/bin/../arm-nacl/lib/libcrt_common.a(lib_a-getenv_r.o)
 .debug_ranges  0x0000000000001bc8       0x18 /Users/jkwang/Desktop/nacl_sdk/pepper_canary/toolchain/mac_pnacl/bin/../arm-nacl/lib/libcrt_common.a(lib_a-impure.o)
 .debug_ranges  0x0000000000001be0        0x0 /Users/jkwang/Desktop/nacl_sdk/pepper_canary/toolchain/mac_pnacl/bin/../arm-nacl/lib/libcrt_common.a(lib_a-init.o)
 .debug_ranges  0x0000000000001be0        0x0 /Users/jkwang/Desktop/nacl_sdk/pepper_canary/toolchain/mac_pnacl/bin/../arm-nacl/lib/libcrt_common.a(lib_a-memset.o)
 .debug_ranges  0x0000000000001be0        0x0 /Users/jkwang/Desktop/nacl_sdk/pepper_canary/toolchain/mac_pnacl/bin/../arm-nacl/lib/libcrt_common.a(lib_a-sleep.o)
 .debug_ranges  0x0000000000001be0       0x30 /Users/jkwang/Desktop/nacl_sdk/pepper_canary/toolchain/mac_pnacl/bin/../arm-nacl/lib/libcrt_common.a(lib_a-stdio.o)
 .debug_ranges  0x0000000000001c10        0x0 /Users/jkwang/Desktop/nacl_sdk/pepper_canary/toolchain/mac_pnacl/bin/../arm-nacl/lib/libcrt_common.a(lib_a-strcat.o)
 .debug_ranges  0x0000000000001c10        0x0 /Users/jkwang/Desktop/nacl_sdk/pepper_canary/toolchain/mac_pnacl/bin/../arm-nacl/lib/libcrt_common.a(lib_a-strcpy.o)
 .debug_ranges  0x0000000000001c10        0x0 /Users/jkwang/Desktop/nacl_sdk/pepper_canary/toolchain/mac_pnacl/bin/../arm-nacl/lib/libcrt_common.a(lib_a-strncmp.o)
 .debug_ranges  0x0000000000001c10      0x1e0 /Users/jkwang/Desktop/nacl_sdk/pepper_canary/toolchain/mac_pnacl/bin/../arm-nacl/lib/libcrt_common.a(lib_a-vfprintf.o)
 .debug_ranges  0x0000000000001df0       0x30 /Users/jkwang/Desktop/nacl_sdk/pepper_canary/toolchain/mac_pnacl/bin/../arm-nacl/lib/libcrt_common.a(lib_a-vsnprintf.o)
 .debug_ranges  0x0000000000001e20       0x30 /Users/jkwang/Desktop/nacl_sdk/pepper_canary/toolchain/mac_pnacl/bin/../arm-nacl/lib/libcrt_common.a(lib_a-vsprintf.o)
 .debug_ranges  0x0000000000001e50       0x18 /Users/jkwang/Desktop/nacl_sdk/pepper_canary/toolchain/mac_pnacl/bin/../arm-nacl/lib/libcrt_common.a(lib_a-wcrtomb.o)
 .debug_ranges  0x0000000000001e68       0x18 /Users/jkwang/Desktop/nacl_sdk/pepper_canary/toolchain/mac_pnacl/bin/../arm-nacl/lib/libcrt_common.a(lib_a-wcsrtombs.o)
 .debug_ranges  0x0000000000001e80       0x38 /Users/jkwang/Desktop/nacl_sdk/pepper_canary/toolchain/mac_pnacl/bin/../arm-nacl/lib/libcrt_common.a(lib_a-wctomb_r.o)
 .debug_ranges  0x0000000000001eb8        0x0 /Users/jkwang/Desktop/nacl_sdk/pepper_canary/toolchain/mac_pnacl/bin/../arm-nacl/lib/libcrt_common.a(lib_a-wsetup.o)
 .debug_ranges  0x0000000000001eb8        0x0 /Users/jkwang/Desktop/nacl_sdk/pepper_canary/toolchain/mac_pnacl/bin/../arm-nacl/lib/libcrt_common.a(lib_a-__atexit.o)
 .debug_ranges  0x0000000000001eb8       0x18 /Users/jkwang/Desktop/nacl_sdk/pepper_canary/toolchain/mac_pnacl/bin/../arm-nacl/lib/libcrt_common.a(lib_a-__call_atexit.o)
 .debug_ranges  0x0000000000001ed0       0x18 /Users/jkwang/Desktop/nacl_sdk/pepper_canary/toolchain/mac_pnacl/bin/../arm-nacl/lib/libcrt_common.a(lib_a-dtoa.o)
 .debug_ranges  0x0000000000001ee8       0x18 /Users/jkwang/Desktop/nacl_sdk/pepper_canary/toolchain/mac_pnacl/bin/../arm-nacl/lib/libcrt_common.a(lib_a-envlock.o)
 .debug_ranges  0x0000000000001f00       0x18 /Users/jkwang/Desktop/nacl_sdk/pepper_canary/toolchain/mac_pnacl/bin/../arm-nacl/lib/libcrt_common.a(lib_a-fclose.o)
 .debug_ranges  0x0000000000001f18       0x28 /Users/jkwang/Desktop/nacl_sdk/pepper_canary/toolchain/mac_pnacl/bin/../arm-nacl/lib/libcrt_common.a(lib_a-fvwrite.o)
 .debug_ranges  0x0000000000001f40       0x70 /Users/jkwang/Desktop/nacl_sdk/pepper_canary/toolchain/mac_pnacl/bin/../arm-nacl/lib/libcrt_common.a(lib_a-locale.o)
 .debug_ranges  0x0000000000001fb0        0x0 /Users/jkwang/Desktop/nacl_sdk/pepper_canary/toolchain/mac_pnacl/bin/../arm-nacl/lib/libcrt_common.a(lib_a-makebuf.o)
 .debug_ranges  0x0000000000001fb0       0x78 /Users/jkwang/Desktop/nacl_sdk/pepper_canary/toolchain/mac_pnacl/bin/../arm-nacl/lib/libcrt_common.a(lib_a-mbtowc_r.o)
 .debug_ranges  0x0000000000002028        0x0 /Users/jkwang/Desktop/nacl_sdk/pepper_canary/toolchain/mac_pnacl/bin/../arm-nacl/lib/libcrt_common.a(lib_a-memmove.o)
 .debug_ranges  0x0000000000002028      0x218 /Users/jkwang/Desktop/nacl_sdk/pepper_canary/toolchain/mac_pnacl/bin/../arm-nacl/lib/libcrt_common.a(lib_a-mprec.o)
 .debug_ranges  0x0000000000002240        0x0 /Users/jkwang/Desktop/nacl_sdk/pepper_canary/toolchain/mac_pnacl/bin/../arm-nacl/lib/libcrt_common.a(lib_a-s_fpclassify.o)
 .debug_ranges  0x0000000000002240       0x18 /Users/jkwang/Desktop/nacl_sdk/pepper_canary/toolchain/mac_pnacl/bin/../arm-nacl/lib/libcrt_common.a(lib_a-s_frexp.o)
 .debug_ranges  0x0000000000002258       0x68 /Users/jkwang/Desktop/nacl_sdk/pepper_canary/toolchain/mac_pnacl/bin/../arm-nacl/lib/libcrt_common.a(lib_a-strcasecmp.o)
 .debug_ranges  0x00000000000022c0        0x0 /Users/jkwang/Desktop/nacl_sdk/pepper_canary/toolchain/mac_pnacl/bin/../arm-nacl/lib/libcrt_common.a(lib_a-strchr.o)
 .debug_ranges  0x00000000000022c0        0x0 /Users/jkwang/Desktop/nacl_sdk/pepper_canary/toolchain/mac_pnacl/bin/../arm-nacl/lib/libcrt_common.a(lib_a-strlcpy.o)
 .debug_ranges  0x00000000000022c0       0x80 /Users/jkwang/Desktop/nacl_sdk/pepper_canary/toolchain/mac_pnacl/bin/../arm-nacl/lib/libcrt_common.a(lib_a-strncasecmp.o)
 .debug_ranges  0x0000000000002340        0x0 /Users/jkwang/Desktop/nacl_sdk/pepper_canary/toolchain/mac_pnacl/bin/../arm-nacl/lib/libcrt_common.a(lib_a-strncpy.o)
 .debug_ranges  0x0000000000002340       0x18 /Users/jkwang/Desktop/nacl_sdk/pepper_canary/toolchain/mac_pnacl/bin/../arm-nacl/lib/libcrt_common.a(lib_a-strtol.o)
 .debug_ranges  0x0000000000002358      0x1d0 /Users/jkwang/Desktop/nacl_sdk/pepper_canary/toolchain/mac_pnacl/bin/../arm-nacl/lib/libcrt_common.a(lib_a-svfprintf.o)
 .debug_ranges  0x0000000000002528      0x2a0 /Users/jkwang/Desktop/nacl_sdk/pepper_canary/toolchain/mac_pnacl/bin/../arm-nacl/lib/libcrt_common.a(lib_a-vfiprintf.o)
 .debug_ranges  0x00000000000027c8       0x30 /Users/jkwang/Desktop/nacl_sdk/pepper_canary/toolchain/mac_pnacl/bin/../arm-nacl/lib/libcrt_common.a(lib_a-wcsnrtombs.o)
 .debug_ranges  0x00000000000027f8        0x0 /Users/jkwang/Desktop/nacl_sdk/pepper_canary/toolchain/mac_pnacl/bin/../arm-nacl/lib/libcrt_common.a(lib_a-ctype_.o)
 .debug_ranges  0x00000000000027f8       0x30 /Users/jkwang/Desktop/nacl_sdk/pepper_canary/toolchain/mac_pnacl/bin/../arm-nacl/lib/libcrt_common.a(lib_a-fputwc.o)
 .debug_ranges  0x0000000000002828       0x68 /Users/jkwang/Desktop/nacl_sdk/pepper_canary/toolchain/mac_pnacl/bin/../arm-nacl/lib/libcrt_common.a(lib_a-svfiprintf.o)
 .debug_ranges  0x0000000000002890       0x18 /Users/jkwang/Desktop/nacl_sdk/pepper_canary/toolchain/mac_pnacl/bin/../arm-nacl/lib/libcrt_common.a(lib_a-wbuf.o)
 .debug_ranges  0x00000000000028a8        0x0 /Users/jkwang/Desktop/nacl_sdk/pepper_canary/toolchain/mac_pnacl/bin/../arm-nacl/lib/libnacl.a(close.o)
 .debug_ranges  0x00000000000028a8        0x0 /Users/jkwang/Desktop/nacl_sdk/pepper_canary/toolchain/mac_pnacl/bin/../arm-nacl/lib/libnacl.a(fstat.o)
 .debug_ranges  0x00000000000028a8        0x0 /Users/jkwang/Desktop/nacl_sdk/pepper_canary/toolchain/mac_pnacl/bin/../arm-nacl/lib/libnacl.a(isatty.o)
 .debug_ranges  0x00000000000028a8        0x0 /Users/jkwang/Desktop/nacl_sdk/pepper_canary/toolchain/mac_pnacl/bin/../arm-nacl/lib/libnacl.a(lseek.o)
 .debug_ranges  0x00000000000028a8        0x0 /Users/jkwang/Desktop/nacl_sdk/pepper_canary/toolchain/mac_pnacl/bin/../arm-nacl/lib/libnacl.a(nanosleep.o)
 .debug_ranges  0x00000000000028a8        0x0 /Users/jkwang/Desktop/nacl_sdk/pepper_canary/toolchain/mac_pnacl/bin/../arm-nacl/lib/libnacl.a(nacl_irt_fdio.o)
 .debug_ranges  0x00000000000028a8        0x0 /Users/jkwang/Desktop/nacl_sdk/pepper_canary/toolchain/mac_pnacl/bin/../arm-nacl/lib/libnacl.a(read.o)
 .debug_ranges  0x00000000000028a8      0x458 /Users/jkwang/Desktop/nacl_sdk/pepper_canary/toolchain/mac_pnacl/bin/../lib/clang/3.7.0/lib/arm-nacl/libgcc_eh.a(unwind-dw2-fde-glibc.o)

.debug_macro
 *(.debug_macro)

.gnu.attributes
 *(.gnu.attributes)

.note.gnu.arm.ident
 *(.note.gnu.arm.ident)

/DISCARD/
 *(.note.GNU-stack)
 *(.gnu_debuglink)
 *(.gnu.lto_*)
OUTPUT(clang-newlib/Release/debugging_unstripped_arm.nexe elf32-littlearm-nacl)
