Archive member included because of file (symbol)

/Users/jkwang/Desktop/nacl_sdk/pepper_canary/lib/clang-newlib_x86_32/Release/liberror_handling.a(error_handling_x86_32.o)
                              clang-newlib/Release/debugging_x86_32.o (EHRequestExceptionsJson)
/Users/jkwang/Desktop/nacl_sdk/pepper_canary/lib/clang-newlib_x86_32/Release/liberror_handling.a(string_stream_x86_32.o)
                              /Users/jkwang/Desktop/nacl_sdk/pepper_canary/lib/clang-newlib_x86_32/Release/liberror_handling.a(error_handling_x86_32.o) (ssinit)
/Users/jkwang/Desktop/nacl_sdk/pepper_canary/toolchain/mac_pnacl/bin/../x86_64-nacl/lib32/libppapi_stub.a(plugin_main_irt.o)
                              (main)
/Users/jkwang/Desktop/nacl_sdk/pepper_canary/toolchain/mac_pnacl/bin/../x86_64-nacl/lib32/libppapi_stub.a(ppapi_plugin_main.o)
                              /Users/jkwang/Desktop/nacl_sdk/pepper_canary/toolchain/mac_pnacl/bin/../x86_64-nacl/lib32/libppapi_stub.a(plugin_main_irt.o) (PpapiPluginMain)
/Users/jkwang/Desktop/nacl_sdk/pepper_canary/toolchain/mac_pnacl/bin/../x86_64-nacl/lib32/libppapi_stub.a(ppapi_plugin_start.o)
                              /Users/jkwang/Desktop/nacl_sdk/pepper_canary/toolchain/mac_pnacl/bin/../x86_64-nacl/lib32/libppapi_stub.a(ppapi_plugin_main.o) (PpapiPluginStart)
/Users/jkwang/Desktop/nacl_sdk/pepper_canary/toolchain/mac_pnacl/bin/../x86_64-nacl/lib32/libppapi_stub.a(thread_creator.o)
                              /Users/jkwang/Desktop/nacl_sdk/pepper_canary/toolchain/mac_pnacl/bin/../x86_64-nacl/lib32/libppapi_stub.a(ppapi_plugin_start.o) (__nacl_register_thread_creator)
/Users/jkwang/Desktop/nacl_sdk/pepper_canary/toolchain/mac_pnacl/bin/../x86_64-nacl/lib32/libpthread.a(nc_thread.o)
                              clang-newlib/Release/debugging_x86_32.o (pthread_create)
/Users/jkwang/Desktop/nacl_sdk/pepper_canary/toolchain/mac_pnacl/bin/../x86_64-nacl/lib32/libpthread.a(nc_mutex.o)
                              /Users/jkwang/Desktop/nacl_sdk/pepper_canary/toolchain/mac_pnacl/bin/../x86_64-nacl/lib32/libpthread.a(nc_thread.o) (pthread_mutex_destroy)
/Users/jkwang/Desktop/nacl_sdk/pepper_canary/toolchain/mac_pnacl/bin/../x86_64-nacl/lib32/libpthread.a(nc_condvar.o)
                              /Users/jkwang/Desktop/nacl_sdk/pepper_canary/toolchain/mac_pnacl/bin/../x86_64-nacl/lib32/libpthread.a(nc_thread.o) (pthread_cond_destroy)
/Users/jkwang/Desktop/nacl_sdk/pepper_canary/toolchain/mac_pnacl/bin/../x86_64-nacl/lib32/libpthread.a(valgrind_annotations.o)
                              /Users/jkwang/Desktop/nacl_sdk/pepper_canary/toolchain/mac_pnacl/bin/../x86_64-nacl/lib32/libpthread.a(nc_thread.o) (NACL_AnnotateCondVarWait)
/Users/jkwang/Desktop/nacl_sdk/pepper_canary/toolchain/mac_pnacl/bin/../x86_64-nacl/lib32/libpthread.a(nc_init_irt.o)
                              /Users/jkwang/Desktop/nacl_sdk/pepper_canary/toolchain/mac_pnacl/bin/../x86_64-nacl/lib32/libpthread.a(nc_mutex.o) (__libnacl_irt_futex)
/Users/jkwang/Desktop/nacl_sdk/pepper_canary/toolchain/mac_pnacl/bin/../x86_64-nacl/lib32/libnacl.a(nacl_irt.o)
                              /Users/jkwang/Desktop/nacl_sdk/pepper_canary/toolchain/mac_pnacl/bin/../x86_64-nacl/lib32/libpthread.a(nc_init_irt.o) (__libnacl_mandatory_irt_query)
/Users/jkwang/Desktop/nacl_sdk/pepper_canary/toolchain/mac_pnacl/bin/../x86_64-nacl/lib32/libnacl.a(_exit.o)
                              (_exit)
/Users/jkwang/Desktop/nacl_sdk/pepper_canary/toolchain/mac_pnacl/bin/../x86_64-nacl/lib32/libnacl.a(mmap.o)
                              /Users/jkwang/Desktop/nacl_sdk/pepper_canary/lib/clang-newlib_x86_32/Release/liberror_handling.a(error_handling_x86_32.o) (mmap)
/Users/jkwang/Desktop/nacl_sdk/pepper_canary/toolchain/mac_pnacl/bin/../x86_64-nacl/lib32/libnacl.a(munmap.o)
                              /Users/jkwang/Desktop/nacl_sdk/pepper_canary/lib/clang-newlib_x86_32/Release/liberror_handling.a(error_handling_x86_32.o) (munmap)
/Users/jkwang/Desktop/nacl_sdk/pepper_canary/toolchain/mac_pnacl/bin/../x86_64-nacl/lib32/libnacl.a(nacl_interface_query.o)
                              /Users/jkwang/Desktop/nacl_sdk/pepper_canary/lib/clang-newlib_x86_32/Release/liberror_handling.a(error_handling_x86_32.o) (nacl_interface_query)
/Users/jkwang/Desktop/nacl_sdk/pepper_canary/toolchain/mac_pnacl/bin/../x86_64-nacl/lib32/libnacl.a(write.o)
                              /Users/jkwang/Desktop/nacl_sdk/pepper_canary/toolchain/mac_pnacl/bin/../x86_64-nacl/lib32/libppapi_stub.a(ppapi_plugin_start.o) (write)
/Users/jkwang/Desktop/nacl_sdk/pepper_canary/toolchain/mac_pnacl/bin/../x86_64-nacl/lib32/libnacl.a(environ.o)
                              /Users/jkwang/Desktop/nacl_sdk/pepper_canary/toolchain/mac_pnacl/bin/../x86_64-nacl/lib32/libppapi_stub.a(ppapi_plugin_start.o) (environ)
/Users/jkwang/Desktop/nacl_sdk/pepper_canary/toolchain/mac_pnacl/bin/../x86_64-nacl/lib32/libnacl.a(malloc.o)
                              /Users/jkwang/Desktop/nacl_sdk/pepper_canary/toolchain/mac_pnacl/bin/../x86_64-nacl/lib32/libpthread.a(nc_thread.o) (calloc)
/Users/jkwang/Desktop/nacl_sdk/pepper_canary/toolchain/mac_pnacl/bin/../x86_64-nacl/lib32/libnacl.a(start.o)
                              (_start)
/Users/jkwang/Desktop/nacl_sdk/pepper_canary/toolchain/mac_pnacl/bin/../x86_64-nacl/lib32/libnacl.a(nacl_read_tp.o)
                              /Users/jkwang/Desktop/nacl_sdk/pepper_canary/toolchain/mac_pnacl/bin/../x86_64-nacl/lib32/libpthread.a(nc_thread.o) (__nacl_read_tp)
/Users/jkwang/Desktop/nacl_sdk/pepper_canary/toolchain/mac_pnacl/bin/../x86_64-nacl/lib32/libnacl.a(pthread_initialize_minimal.o)
                              /Users/jkwang/Desktop/nacl_sdk/pepper_canary/toolchain/mac_pnacl/bin/../x86_64-nacl/lib32/libpthread.a(nc_thread.o) (__pthread_initialize_minimal)
/Users/jkwang/Desktop/nacl_sdk/pepper_canary/toolchain/mac_pnacl/bin/../x86_64-nacl/lib32/libnacl.a(tls.o)
                              /Users/jkwang/Desktop/nacl_sdk/pepper_canary/toolchain/mac_pnacl/bin/../x86_64-nacl/lib32/libpthread.a(nc_thread.o) (__nacl_tls_combined_size)
/Users/jkwang/Desktop/nacl_sdk/pepper_canary/toolchain/mac_pnacl/bin/../x86_64-nacl/lib32/libnacl.a(nacl_irt_init.o)
                              /Users/jkwang/Desktop/nacl_sdk/pepper_canary/toolchain/mac_pnacl/bin/../x86_64-nacl/lib32/libnacl.a(start.o) (__libnacl_irt_init)
/Users/jkwang/Desktop/nacl_sdk/pepper_canary/toolchain/mac_pnacl/bin/../x86_64-nacl/lib32/libnacl.a(nacl_tls_get.o)
                              /Users/jkwang/Desktop/nacl_sdk/pepper_canary/toolchain/mac_pnacl/bin/../x86_64-nacl/lib32/libnacl.a(nacl_read_tp.o) (nacl_tls_get)
/Users/jkwang/Desktop/nacl_sdk/pepper_canary/toolchain/mac_pnacl/bin/../x86_64-nacl/lib32/libnacl.a(nacl_tls_init.o)
                              /Users/jkwang/Desktop/nacl_sdk/pepper_canary/toolchain/mac_pnacl/bin/../x86_64-nacl/lib32/libnacl.a(pthread_initialize_minimal.o) (nacl_tls_init)
/Users/jkwang/Desktop/nacl_sdk/pepper_canary/toolchain/mac_pnacl/bin/../x86_64-nacl/lib32/libnacl.a(abort.o)
                              /Users/jkwang/Desktop/nacl_sdk/pepper_canary/toolchain/mac_pnacl/bin/../x86_64-nacl/lib32/libnacl.a(malloc.o) (abort)
/Users/jkwang/Desktop/nacl_sdk/pepper_canary/toolchain/mac_pnacl/bin/../x86_64-nacl/lib32/libnacl.a(sched_yield.o)
                              /Users/jkwang/Desktop/nacl_sdk/pepper_canary/toolchain/mac_pnacl/bin/../x86_64-nacl/lib32/libnacl.a(malloc.o) (sched_yield)
/Users/jkwang/Desktop/nacl_sdk/pepper_canary/toolchain/mac_pnacl/bin/../x86_64-nacl/lib32/libnacl.a(sysconf.o)
                              /Users/jkwang/Desktop/nacl_sdk/pepper_canary/toolchain/mac_pnacl/bin/../x86_64-nacl/lib32/libnacl.a(malloc.o) (sysconf)
/Users/jkwang/Desktop/nacl_sdk/pepper_canary/toolchain/mac_pnacl/bin/../x86_64-nacl/lib32/libcrt_common.a(lib_a-atexit.o)
                              /Users/jkwang/Desktop/nacl_sdk/pepper_canary/toolchain/mac_pnacl/bin/../x86_64-nacl/lib32/libnacl.a(start.o) (atexit)
/Users/jkwang/Desktop/nacl_sdk/pepper_canary/toolchain/mac_pnacl/bin/../x86_64-nacl/lib32/libcrt_common.a(lib_a-errno.o)
                              /Users/jkwang/Desktop/nacl_sdk/pepper_canary/toolchain/mac_pnacl/bin/../x86_64-nacl/lib32/libnacl.a(nacl_irt.o) (__errno)
/Users/jkwang/Desktop/nacl_sdk/pepper_canary/toolchain/mac_pnacl/bin/../x86_64-nacl/lib32/libcrt_common.a(lib_a-exit.o)
                              (exit)
/Users/jkwang/Desktop/nacl_sdk/pepper_canary/toolchain/mac_pnacl/bin/../x86_64-nacl/lib32/libcrt_common.a(lib_a-fflush.o)
                              clang-newlib/Release/debugging_x86_32.o (fflush)
/Users/jkwang/Desktop/nacl_sdk/pepper_canary/toolchain/mac_pnacl/bin/../x86_64-nacl/lib32/libcrt_common.a(lib_a-findfp.o)
                              /Users/jkwang/Desktop/nacl_sdk/pepper_canary/toolchain/mac_pnacl/bin/../x86_64-nacl/lib32/libcrt_common.a(lib_a-fflush.o) (__sinit)
/Users/jkwang/Desktop/nacl_sdk/pepper_canary/toolchain/mac_pnacl/bin/../x86_64-nacl/lib32/libcrt_common.a(lib_a-fini.o)
                              /Users/jkwang/Desktop/nacl_sdk/pepper_canary/toolchain/mac_pnacl/bin/../x86_64-nacl/lib32/libnacl.a(start.o) (__libc_fini_array)
/Users/jkwang/Desktop/nacl_sdk/pepper_canary/toolchain/mac_pnacl/bin/../x86_64-nacl/lib32/libcrt_common.a(lib_a-fprintf.o)
                              clang-newlib/Release/debugging_x86_32.o (fprintf)
/Users/jkwang/Desktop/nacl_sdk/pepper_canary/toolchain/mac_pnacl/bin/../x86_64-nacl/lib32/libcrt_common.a(lib_a-fwalk.o)
                              /Users/jkwang/Desktop/nacl_sdk/pepper_canary/toolchain/mac_pnacl/bin/../x86_64-nacl/lib32/libcrt_common.a(lib_a-findfp.o) (_fwalk)
/Users/jkwang/Desktop/nacl_sdk/pepper_canary/toolchain/mac_pnacl/bin/../x86_64-nacl/lib32/libcrt_common.a(lib_a-fwrite.o)
                              /Users/jkwang/Desktop/nacl_sdk/pepper_canary/lib/clang-newlib_x86_32/Release/liberror_handling.a(error_handling_x86_32.o) (fwrite)
/Users/jkwang/Desktop/nacl_sdk/pepper_canary/toolchain/mac_pnacl/bin/../x86_64-nacl/lib32/libcrt_common.a(lib_a-getenv.o)
                              /Users/jkwang/Desktop/nacl_sdk/pepper_canary/toolchain/mac_pnacl/bin/../x86_64-nacl/lib32/libpthread.a(valgrind_annotations.o) (getenv)
/Users/jkwang/Desktop/nacl_sdk/pepper_canary/toolchain/mac_pnacl/bin/../x86_64-nacl/lib32/libcrt_common.a(lib_a-getenv_r.o)
                              /Users/jkwang/Desktop/nacl_sdk/pepper_canary/toolchain/mac_pnacl/bin/../x86_64-nacl/lib32/libcrt_common.a(lib_a-getenv.o) (_findenv_r)
/Users/jkwang/Desktop/nacl_sdk/pepper_canary/toolchain/mac_pnacl/bin/../x86_64-nacl/lib32/libcrt_common.a(lib_a-impure.o)
                              /Users/jkwang/Desktop/nacl_sdk/pepper_canary/toolchain/mac_pnacl/bin/../x86_64-nacl/lib32/libpthread.a(nc_thread.o) (__newlib_thread_exit)
/Users/jkwang/Desktop/nacl_sdk/pepper_canary/toolchain/mac_pnacl/bin/../x86_64-nacl/lib32/libcrt_common.a(lib_a-init.o)
                              /Users/jkwang/Desktop/nacl_sdk/pepper_canary/toolchain/mac_pnacl/bin/../x86_64-nacl/lib32/libnacl.a(start.o) (__libc_init_array)
/Users/jkwang/Desktop/nacl_sdk/pepper_canary/toolchain/mac_pnacl/bin/../x86_64-nacl/lib32/libcrt_common.a(lib_a-memcpy.o)
                              /Users/jkwang/Desktop/nacl_sdk/pepper_canary/lib/clang-newlib_x86_32/Release/liberror_handling.a(string_stream_x86_32.o) (memcpy)
/Users/jkwang/Desktop/nacl_sdk/pepper_canary/toolchain/mac_pnacl/bin/../x86_64-nacl/lib32/libcrt_common.a(lib_a-memset.o)
                              /Users/jkwang/Desktop/nacl_sdk/pepper_canary/toolchain/mac_pnacl/bin/../x86_64-nacl/lib32/libnacl.a(malloc.o) (memset)
/Users/jkwang/Desktop/nacl_sdk/pepper_canary/toolchain/mac_pnacl/bin/../x86_64-nacl/lib32/libcrt_common.a(lib_a-sleep.o)
                              /Users/jkwang/Desktop/nacl_sdk/pepper_canary/lib/clang-newlib_x86_32/Release/liberror_handling.a(error_handling_x86_32.o) (sleep)
/Users/jkwang/Desktop/nacl_sdk/pepper_canary/toolchain/mac_pnacl/bin/../x86_64-nacl/lib32/libcrt_common.a(lib_a-stdio.o)
                              /Users/jkwang/Desktop/nacl_sdk/pepper_canary/toolchain/mac_pnacl/bin/../x86_64-nacl/lib32/libcrt_common.a(lib_a-findfp.o) (__sclose)
/Users/jkwang/Desktop/nacl_sdk/pepper_canary/toolchain/mac_pnacl/bin/../x86_64-nacl/lib32/libcrt_common.a(lib_a-strcat.o)
                              clang-newlib/Release/debugging_x86_32.o (strcat)
/Users/jkwang/Desktop/nacl_sdk/pepper_canary/toolchain/mac_pnacl/bin/../x86_64-nacl/lib32/libcrt_common.a(lib_a-strcmp.o)
                              clang-newlib/Release/debugging_x86_32.o (strcmp)
/Users/jkwang/Desktop/nacl_sdk/pepper_canary/toolchain/mac_pnacl/bin/../x86_64-nacl/lib32/libcrt_common.a(lib_a-strcpy.o)
                              /Users/jkwang/Desktop/nacl_sdk/pepper_canary/toolchain/mac_pnacl/bin/../x86_64-nacl/lib32/libcrt_common.a(lib_a-strcat.o) (strcpy)
/Users/jkwang/Desktop/nacl_sdk/pepper_canary/toolchain/mac_pnacl/bin/../x86_64-nacl/lib32/libcrt_common.a(lib_a-strlen.o)
                              clang-newlib/Release/debugging_x86_32.o (strlen)
/Users/jkwang/Desktop/nacl_sdk/pepper_canary/toolchain/mac_pnacl/bin/../x86_64-nacl/lib32/libcrt_common.a(lib_a-strncmp.o)
                              /Users/jkwang/Desktop/nacl_sdk/pepper_canary/toolchain/mac_pnacl/bin/../x86_64-nacl/lib32/libcrt_common.a(lib_a-getenv_r.o) (strncmp)
/Users/jkwang/Desktop/nacl_sdk/pepper_canary/toolchain/mac_pnacl/bin/../x86_64-nacl/lib32/libcrt_common.a(lib_a-vfprintf.o)
                              /Users/jkwang/Desktop/nacl_sdk/pepper_canary/toolchain/mac_pnacl/bin/../x86_64-nacl/lib32/libcrt_common.a(lib_a-fprintf.o) (_vfprintf_r)
/Users/jkwang/Desktop/nacl_sdk/pepper_canary/toolchain/mac_pnacl/bin/../x86_64-nacl/lib32/libcrt_common.a(lib_a-vsnprintf.o)
                              /Users/jkwang/Desktop/nacl_sdk/pepper_canary/lib/clang-newlib_x86_32/Release/liberror_handling.a(string_stream_x86_32.o) (vsnprintf)
/Users/jkwang/Desktop/nacl_sdk/pepper_canary/toolchain/mac_pnacl/bin/../x86_64-nacl/lib32/libcrt_common.a(lib_a-vsprintf.o)
                              /Users/jkwang/Desktop/nacl_sdk/pepper_canary/lib/clang-newlib_x86_32/Release/liberror_handling.a(string_stream_x86_32.o) (vsprintf)
/Users/jkwang/Desktop/nacl_sdk/pepper_canary/toolchain/mac_pnacl/bin/../x86_64-nacl/lib32/libcrt_common.a(lib_a-wcrtomb.o)
                              /Users/jkwang/Desktop/nacl_sdk/pepper_canary/toolchain/mac_pnacl/bin/../x86_64-nacl/lib32/libcrt_common.a(lib_a-vfprintf.o) (_wcrtomb_r)
/Users/jkwang/Desktop/nacl_sdk/pepper_canary/toolchain/mac_pnacl/bin/../x86_64-nacl/lib32/libcrt_common.a(lib_a-wcsrtombs.o)
                              /Users/jkwang/Desktop/nacl_sdk/pepper_canary/toolchain/mac_pnacl/bin/../x86_64-nacl/lib32/libcrt_common.a(lib_a-vfprintf.o) (_wcsrtombs_r)
/Users/jkwang/Desktop/nacl_sdk/pepper_canary/toolchain/mac_pnacl/bin/../x86_64-nacl/lib32/libcrt_common.a(lib_a-wctomb_r.o)
                              /Users/jkwang/Desktop/nacl_sdk/pepper_canary/toolchain/mac_pnacl/bin/../x86_64-nacl/lib32/libcrt_common.a(lib_a-wcrtomb.o) (__wctomb)
/Users/jkwang/Desktop/nacl_sdk/pepper_canary/toolchain/mac_pnacl/bin/../x86_64-nacl/lib32/libcrt_common.a(lib_a-wsetup.o)
                              /Users/jkwang/Desktop/nacl_sdk/pepper_canary/toolchain/mac_pnacl/bin/../x86_64-nacl/lib32/libcrt_common.a(lib_a-vfprintf.o) (__swsetup_r)
/Users/jkwang/Desktop/nacl_sdk/pepper_canary/toolchain/mac_pnacl/bin/../x86_64-nacl/lib32/libcrt_common.a(lib_a-__atexit.o)
                              /Users/jkwang/Desktop/nacl_sdk/pepper_canary/toolchain/mac_pnacl/bin/../x86_64-nacl/lib32/libcrt_common.a(lib_a-atexit.o) (__register_exitproc)
/Users/jkwang/Desktop/nacl_sdk/pepper_canary/toolchain/mac_pnacl/bin/../x86_64-nacl/lib32/libcrt_common.a(lib_a-__call_atexit.o)
                              /Users/jkwang/Desktop/nacl_sdk/pepper_canary/toolchain/mac_pnacl/bin/../x86_64-nacl/lib32/libcrt_common.a(lib_a-__atexit.o) (__atexit_lock)
/Users/jkwang/Desktop/nacl_sdk/pepper_canary/toolchain/mac_pnacl/bin/../x86_64-nacl/lib32/libcrt_common.a(lib_a-dtoa.o)
                              /Users/jkwang/Desktop/nacl_sdk/pepper_canary/toolchain/mac_pnacl/bin/../x86_64-nacl/lib32/libcrt_common.a(lib_a-vfprintf.o) (_dtoa_r)
/Users/jkwang/Desktop/nacl_sdk/pepper_canary/toolchain/mac_pnacl/bin/../x86_64-nacl/lib32/libcrt_common.a(lib_a-envlock.o)
                              /Users/jkwang/Desktop/nacl_sdk/pepper_canary/toolchain/mac_pnacl/bin/../x86_64-nacl/lib32/libcrt_common.a(lib_a-getenv_r.o) (__env_lock)
/Users/jkwang/Desktop/nacl_sdk/pepper_canary/toolchain/mac_pnacl/bin/../x86_64-nacl/lib32/libcrt_common.a(lib_a-fclose.o)
                              /Users/jkwang/Desktop/nacl_sdk/pepper_canary/toolchain/mac_pnacl/bin/../x86_64-nacl/lib32/libcrt_common.a(lib_a-findfp.o) (_fclose_r)
/Users/jkwang/Desktop/nacl_sdk/pepper_canary/toolchain/mac_pnacl/bin/../x86_64-nacl/lib32/libcrt_common.a(lib_a-fvwrite.o)
                              /Users/jkwang/Desktop/nacl_sdk/pepper_canary/toolchain/mac_pnacl/bin/../x86_64-nacl/lib32/libcrt_common.a(lib_a-fwrite.o) (__sfvwrite_r)
/Users/jkwang/Desktop/nacl_sdk/pepper_canary/toolchain/mac_pnacl/bin/../x86_64-nacl/lib32/libcrt_common.a(lib_a-locale.o)
                              /Users/jkwang/Desktop/nacl_sdk/pepper_canary/toolchain/mac_pnacl/bin/../x86_64-nacl/lib32/libcrt_common.a(lib_a-vfprintf.o) (__locale_charset)
/Users/jkwang/Desktop/nacl_sdk/pepper_canary/toolchain/mac_pnacl/bin/../x86_64-nacl/lib32/libcrt_common.a(lib_a-makebuf.o)
                              /Users/jkwang/Desktop/nacl_sdk/pepper_canary/toolchain/mac_pnacl/bin/../x86_64-nacl/lib32/libcrt_common.a(lib_a-wsetup.o) (__smakebuf_r)
/Users/jkwang/Desktop/nacl_sdk/pepper_canary/toolchain/mac_pnacl/bin/../x86_64-nacl/lib32/libcrt_common.a(lib_a-mbtowc_r.o)
                              /Users/jkwang/Desktop/nacl_sdk/pepper_canary/toolchain/mac_pnacl/bin/../x86_64-nacl/lib32/libcrt_common.a(lib_a-locale.o) (__ascii_mbtowc)
/Users/jkwang/Desktop/nacl_sdk/pepper_canary/toolchain/mac_pnacl/bin/../x86_64-nacl/lib32/libcrt_common.a(lib_a-memchr.o)
                              /Users/jkwang/Desktop/nacl_sdk/pepper_canary/toolchain/mac_pnacl/bin/../x86_64-nacl/lib32/libcrt_common.a(lib_a-vfprintf.o) (memchr)
/Users/jkwang/Desktop/nacl_sdk/pepper_canary/toolchain/mac_pnacl/bin/../x86_64-nacl/lib32/libcrt_common.a(lib_a-memmove.o)
                              /Users/jkwang/Desktop/nacl_sdk/pepper_canary/toolchain/mac_pnacl/bin/../x86_64-nacl/lib32/libcrt_common.a(lib_a-fvwrite.o) (memmove)
/Users/jkwang/Desktop/nacl_sdk/pepper_canary/toolchain/mac_pnacl/bin/../x86_64-nacl/lib32/libcrt_common.a(lib_a-mprec.o)
                              /Users/jkwang/Desktop/nacl_sdk/pepper_canary/toolchain/mac_pnacl/bin/../x86_64-nacl/lib32/libcrt_common.a(lib_a-dtoa.o) (_Balloc)
/Users/jkwang/Desktop/nacl_sdk/pepper_canary/toolchain/mac_pnacl/bin/../x86_64-nacl/lib32/libcrt_common.a(lib_a-s_fpclassify.o)
                              /Users/jkwang/Desktop/nacl_sdk/pepper_canary/toolchain/mac_pnacl/bin/../x86_64-nacl/lib32/libcrt_common.a(lib_a-vfprintf.o) (__fpclassifyd)
/Users/jkwang/Desktop/nacl_sdk/pepper_canary/toolchain/mac_pnacl/bin/../x86_64-nacl/lib32/libcrt_common.a(lib_a-s_frexp.o)
                              /Users/jkwang/Desktop/nacl_sdk/pepper_canary/toolchain/mac_pnacl/bin/../x86_64-nacl/lib32/libcrt_common.a(lib_a-vfprintf.o) (frexp)
/Users/jkwang/Desktop/nacl_sdk/pepper_canary/toolchain/mac_pnacl/bin/../x86_64-nacl/lib32/libcrt_common.a(lib_a-strcasecmp.o)
                              /Users/jkwang/Desktop/nacl_sdk/pepper_canary/toolchain/mac_pnacl/bin/../x86_64-nacl/lib32/libcrt_common.a(lib_a-locale.o) (strcasecmp)
/Users/jkwang/Desktop/nacl_sdk/pepper_canary/toolchain/mac_pnacl/bin/../x86_64-nacl/lib32/libcrt_common.a(lib_a-strchr.o)
                              /Users/jkwang/Desktop/nacl_sdk/pepper_canary/toolchain/mac_pnacl/bin/../x86_64-nacl/lib32/libcrt_common.a(lib_a-locale.o) (strchr)
/Users/jkwang/Desktop/nacl_sdk/pepper_canary/toolchain/mac_pnacl/bin/../x86_64-nacl/lib32/libcrt_common.a(lib_a-strlcpy.o)
                              /Users/jkwang/Desktop/nacl_sdk/pepper_canary/toolchain/mac_pnacl/bin/../x86_64-nacl/lib32/libcrt_common.a(lib_a-locale.o) (strlcpy)
/Users/jkwang/Desktop/nacl_sdk/pepper_canary/toolchain/mac_pnacl/bin/../x86_64-nacl/lib32/libcrt_common.a(lib_a-strncasecmp.o)
                              /Users/jkwang/Desktop/nacl_sdk/pepper_canary/toolchain/mac_pnacl/bin/../x86_64-nacl/lib32/libcrt_common.a(lib_a-locale.o) (strncasecmp)
/Users/jkwang/Desktop/nacl_sdk/pepper_canary/toolchain/mac_pnacl/bin/../x86_64-nacl/lib32/libcrt_common.a(lib_a-strncpy.o)
                              /Users/jkwang/Desktop/nacl_sdk/pepper_canary/toolchain/mac_pnacl/bin/../x86_64-nacl/lib32/libcrt_common.a(lib_a-vfprintf.o) (strncpy)
/Users/jkwang/Desktop/nacl_sdk/pepper_canary/toolchain/mac_pnacl/bin/../x86_64-nacl/lib32/libcrt_common.a(lib_a-strtol.o)
                              /Users/jkwang/Desktop/nacl_sdk/pepper_canary/toolchain/mac_pnacl/bin/../x86_64-nacl/lib32/libcrt_common.a(lib_a-locale.o) (_strtol_r)
/Users/jkwang/Desktop/nacl_sdk/pepper_canary/toolchain/mac_pnacl/bin/../x86_64-nacl/lib32/libcrt_common.a(lib_a-svfprintf.o)
                              /Users/jkwang/Desktop/nacl_sdk/pepper_canary/toolchain/mac_pnacl/bin/../x86_64-nacl/lib32/libcrt_common.a(lib_a-vsnprintf.o) (_svfprintf_r)
/Users/jkwang/Desktop/nacl_sdk/pepper_canary/toolchain/mac_pnacl/bin/../x86_64-nacl/lib32/libcrt_common.a(lib_a-vfiprintf.o)
                              /Users/jkwang/Desktop/nacl_sdk/pepper_canary/toolchain/mac_pnacl/bin/../x86_64-nacl/lib32/libcrt_common.a(lib_a-vfprintf.o) (__sprint_r)
/Users/jkwang/Desktop/nacl_sdk/pepper_canary/toolchain/mac_pnacl/bin/../x86_64-nacl/lib32/libcrt_common.a(lib_a-wcsnrtombs.o)
                              /Users/jkwang/Desktop/nacl_sdk/pepper_canary/toolchain/mac_pnacl/bin/../x86_64-nacl/lib32/libcrt_common.a(lib_a-wcsrtombs.o) (_wcsnrtombs_r)
/Users/jkwang/Desktop/nacl_sdk/pepper_canary/toolchain/mac_pnacl/bin/../x86_64-nacl/lib32/libcrt_common.a(lib_a-ctype_.o)
                              /Users/jkwang/Desktop/nacl_sdk/pepper_canary/toolchain/mac_pnacl/bin/../x86_64-nacl/lib32/libcrt_common.a(lib_a-strcasecmp.o) (__ctype_ptr__)
/Users/jkwang/Desktop/nacl_sdk/pepper_canary/toolchain/mac_pnacl/bin/../x86_64-nacl/lib32/libcrt_common.a(lib_a-fputwc.o)
                              /Users/jkwang/Desktop/nacl_sdk/pepper_canary/toolchain/mac_pnacl/bin/../x86_64-nacl/lib32/libcrt_common.a(lib_a-vfiprintf.o) (_fputwc_r)
/Users/jkwang/Desktop/nacl_sdk/pepper_canary/toolchain/mac_pnacl/bin/../x86_64-nacl/lib32/libcrt_common.a(lib_a-svfiprintf.o)
                              /Users/jkwang/Desktop/nacl_sdk/pepper_canary/toolchain/mac_pnacl/bin/../x86_64-nacl/lib32/libcrt_common.a(lib_a-svfprintf.o) (__ssprint_r)
/Users/jkwang/Desktop/nacl_sdk/pepper_canary/toolchain/mac_pnacl/bin/../x86_64-nacl/lib32/libcrt_common.a(lib_a-wbuf.o)
                              /Users/jkwang/Desktop/nacl_sdk/pepper_canary/toolchain/mac_pnacl/bin/../x86_64-nacl/lib32/libcrt_common.a(lib_a-fputwc.o) (__swbuf_r)
/Users/jkwang/Desktop/nacl_sdk/pepper_canary/toolchain/mac_pnacl/bin/../x86_64-nacl/lib32/libnacl.a(close.o)
                              /Users/jkwang/Desktop/nacl_sdk/pepper_canary/toolchain/mac_pnacl/bin/../x86_64-nacl/lib32/libcrt_common.a(lib_a-stdio.o) (close)
/Users/jkwang/Desktop/nacl_sdk/pepper_canary/toolchain/mac_pnacl/bin/../x86_64-nacl/lib32/libnacl.a(fstat.o)
                              /Users/jkwang/Desktop/nacl_sdk/pepper_canary/toolchain/mac_pnacl/bin/../x86_64-nacl/lib32/libcrt_common.a(lib_a-makebuf.o) (fstat)
/Users/jkwang/Desktop/nacl_sdk/pepper_canary/toolchain/mac_pnacl/bin/../x86_64-nacl/lib32/libnacl.a(isatty.o)
                              /Users/jkwang/Desktop/nacl_sdk/pepper_canary/toolchain/mac_pnacl/bin/../x86_64-nacl/lib32/libcrt_common.a(lib_a-makebuf.o) (isatty)
/Users/jkwang/Desktop/nacl_sdk/pepper_canary/toolchain/mac_pnacl/bin/../x86_64-nacl/lib32/libnacl.a(lseek.o)
                              /Users/jkwang/Desktop/nacl_sdk/pepper_canary/toolchain/mac_pnacl/bin/../x86_64-nacl/lib32/libcrt_common.a(lib_a-stdio.o) (lseek)
/Users/jkwang/Desktop/nacl_sdk/pepper_canary/toolchain/mac_pnacl/bin/../x86_64-nacl/lib32/libnacl.a(nanosleep.o)
                              /Users/jkwang/Desktop/nacl_sdk/pepper_canary/toolchain/mac_pnacl/bin/../x86_64-nacl/lib32/libcrt_common.a(lib_a-sleep.o) (nanosleep)
/Users/jkwang/Desktop/nacl_sdk/pepper_canary/toolchain/mac_pnacl/bin/../x86_64-nacl/lib32/libnacl.a(nacl_irt_fdio.o)
                              /Users/jkwang/Desktop/nacl_sdk/pepper_canary/toolchain/mac_pnacl/bin/../x86_64-nacl/lib32/libnacl.a(isatty.o) (__libnacl_irt_dev_fdio_init)
/Users/jkwang/Desktop/nacl_sdk/pepper_canary/toolchain/mac_pnacl/bin/../x86_64-nacl/lib32/libnacl.a(read.o)
                              /Users/jkwang/Desktop/nacl_sdk/pepper_canary/toolchain/mac_pnacl/bin/../x86_64-nacl/lib32/libcrt_common.a(lib_a-stdio.o) (read)
/Users/jkwang/Desktop/nacl_sdk/pepper_canary/toolchain/mac_pnacl/bin/../lib/clang/3.7.0/lib/i686-nacl/libgcc.a(udivdi3.o)
                              /Users/jkwang/Desktop/nacl_sdk/pepper_canary/toolchain/mac_pnacl/bin/../x86_64-nacl/lib32/libcrt_common.a(lib_a-vfprintf.o) (__udivdi3)
/Users/jkwang/Desktop/nacl_sdk/pepper_canary/toolchain/mac_pnacl/bin/../lib/clang/3.7.0/lib/i686-nacl/libgcc.a(udivmoddi4.o)
                              /Users/jkwang/Desktop/nacl_sdk/pepper_canary/toolchain/mac_pnacl/bin/../lib/clang/3.7.0/lib/i686-nacl/libgcc.a(udivdi3.o) (__udivmoddi4)
/Users/jkwang/Desktop/nacl_sdk/pepper_canary/toolchain/mac_pnacl/bin/../lib/clang/3.7.0/lib/i686-nacl/libgcc.a(umoddi3.o)
                              /Users/jkwang/Desktop/nacl_sdk/pepper_canary/toolchain/mac_pnacl/bin/../x86_64-nacl/lib32/libcrt_common.a(lib_a-vfprintf.o) (__umoddi3)
/Users/jkwang/Desktop/nacl_sdk/pepper_canary/toolchain/mac_pnacl/bin/../lib/clang/3.7.0/lib/i686-nacl/libgcc_eh.a(unwind-dw2-fde-glibc.o)
                              /Users/jkwang/Desktop/nacl_sdk/pepper_canary/toolchain/mac_pnacl/bin/../lib/clang/3.7.0/lib/i686-nacl/crtbeginT.o (__register_frame_info)

Allocating common symbols
Common symbol       size              file

__nacl_irt_query    0x4               /Users/jkwang/Desktop/nacl_sdk/pepper_canary/toolchain/mac_pnacl/bin/../x86_64-nacl/lib32/libnacl.a(nacl_irt.o)
__libnacl_irt_dev_filename
                    0x40              /Users/jkwang/Desktop/nacl_sdk/pepper_canary/toolchain/mac_pnacl/bin/../x86_64-nacl/lib32/libnacl.a(nacl_irt.o)
__nc_thread_initialized
                    0x4               /Users/jkwang/Desktop/nacl_sdk/pepper_canary/toolchain/mac_pnacl/bin/../x86_64-nacl/lib32/libpthread.a(nc_thread.o)
g_PPAPIThread       0x4               clang-newlib/Release/debugging_x86_32.o
__libnacl_irt_clock
                    0x8               /Users/jkwang/Desktop/nacl_sdk/pepper_canary/toolchain/mac_pnacl/bin/../x86_64-nacl/lib32/libnacl.a(nacl_irt.o)
__libnacl_irt_futex
                    0x8               /Users/jkwang/Desktop/nacl_sdk/pepper_canary/toolchain/mac_pnacl/bin/../x86_64-nacl/lib32/libpthread.a(nc_init_irt.o)
g_Instance          0x4               clang-newlib/Release/debugging_x86_32.o
__nacl_initial_thread_stack_end
                    0x4               /Users/jkwang/Desktop/nacl_sdk/pepper_canary/toolchain/mac_pnacl/bin/../x86_64-nacl/lib32/libnacl.a(start.o)
__libnacl_irt_memory
                    0xc               /Users/jkwang/Desktop/nacl_sdk/pepper_canary/toolchain/mac_pnacl/bin/../x86_64-nacl/lib32/libnacl.a(nacl_irt.o)
__nc_initial_thread_id
                    0x4               /Users/jkwang/Desktop/nacl_sdk/pepper_canary/toolchain/mac_pnacl/bin/../x86_64-nacl/lib32/libpthread.a(nc_thread.o)
__libnacl_irt_dev_fdio
                    0x38              /Users/jkwang/Desktop/nacl_sdk/pepper_canary/toolchain/mac_pnacl/bin/../x86_64-nacl/lib32/libnacl.a(nacl_irt.o)
g_NexeThread        0x4               clang-newlib/Release/debugging_x86_32.o
__libnacl_irt_basic
                    0x18              /Users/jkwang/Desktop/nacl_sdk/pepper_canary/toolchain/mac_pnacl/bin/../x86_64-nacl/lib32/libnacl.a(nacl_irt.o)
__libnacl_irt_thread
                    0xc               /Users/jkwang/Desktop/nacl_sdk/pepper_canary/toolchain/mac_pnacl/bin/../x86_64-nacl/lib32/libpthread.a(nc_thread.o)
__libnacl_irt_tls   0x8               /Users/jkwang/Desktop/nacl_sdk/pepper_canary/toolchain/mac_pnacl/bin/../x86_64-nacl/lib32/libnacl.a(nacl_irt.o)
__libnacl_irt_dev_getpid
                    0x4               /Users/jkwang/Desktop/nacl_sdk/pepper_canary/toolchain/mac_pnacl/bin/../x86_64-nacl/lib32/libnacl.a(nacl_irt.o)

Discarded input sections

 .group         0x0000000000000000        0x8 /Users/jkwang/Desktop/nacl_sdk/pepper_canary/toolchain/mac_pnacl/bin/../lib/clang/3.7.0/lib/i686-nacl/crtbeginT.o
 .note.GNU-stack
                0x0000000000000000        0x0 /Users/jkwang/Desktop/nacl_sdk/pepper_canary/toolchain/mac_pnacl/bin/../lib/clang/3.7.0/lib/i686-nacl/crtbeginT.o
 .group         0x0000000000000000        0x8 clang-newlib/Release/debugging_x86_32.o
 .note.NaCl.ABI.x86-32
                0x0000000000000000       0x1c clang-newlib/Release/debugging_x86_32.o
 .note.GNU-stack
                0x0000000000000000        0x0 clang-newlib/Release/debugging_x86_32.o
 .group         0x0000000000000000        0x8 /Users/jkwang/Desktop/nacl_sdk/pepper_canary/lib/clang-newlib_x86_32/Release/liberror_handling.a(error_handling_x86_32.o)
 .note.NaCl.ABI.x86-32
                0x0000000000000000       0x1c /Users/jkwang/Desktop/nacl_sdk/pepper_canary/lib/clang-newlib_x86_32/Release/liberror_handling.a(error_handling_x86_32.o)
 .note.GNU-stack
                0x0000000000000000        0x0 /Users/jkwang/Desktop/nacl_sdk/pepper_canary/lib/clang-newlib_x86_32/Release/liberror_handling.a(error_handling_x86_32.o)
 .group         0x0000000000000000        0x8 /Users/jkwang/Desktop/nacl_sdk/pepper_canary/lib/clang-newlib_x86_32/Release/liberror_handling.a(string_stream_x86_32.o)
 .note.NaCl.ABI.x86-32
                0x0000000000000000       0x1c /Users/jkwang/Desktop/nacl_sdk/pepper_canary/lib/clang-newlib_x86_32/Release/liberror_handling.a(string_stream_x86_32.o)
 .note.GNU-stack
                0x0000000000000000        0x0 /Users/jkwang/Desktop/nacl_sdk/pepper_canary/lib/clang-newlib_x86_32/Release/liberror_handling.a(string_stream_x86_32.o)
 .group         0x0000000000000000        0x8 /Users/jkwang/Desktop/nacl_sdk/pepper_canary/toolchain/mac_pnacl/bin/../x86_64-nacl/lib32/libppapi_stub.a(plugin_main_irt.o)
 .note.NaCl.ABI.x86-32
                0x0000000000000000       0x1c /Users/jkwang/Desktop/nacl_sdk/pepper_canary/toolchain/mac_pnacl/bin/../x86_64-nacl/lib32/libppapi_stub.a(plugin_main_irt.o)
 .note.GNU-stack
                0x0000000000000000        0x0 /Users/jkwang/Desktop/nacl_sdk/pepper_canary/toolchain/mac_pnacl/bin/../x86_64-nacl/lib32/libppapi_stub.a(plugin_main_irt.o)
 .group         0x0000000000000000        0x8 /Users/jkwang/Desktop/nacl_sdk/pepper_canary/toolchain/mac_pnacl/bin/../x86_64-nacl/lib32/libppapi_stub.a(ppapi_plugin_main.o)
 .note.NaCl.ABI.x86-32
                0x0000000000000000       0x1c /Users/jkwang/Desktop/nacl_sdk/pepper_canary/toolchain/mac_pnacl/bin/../x86_64-nacl/lib32/libppapi_stub.a(ppapi_plugin_main.o)
 .note.GNU-stack
                0x0000000000000000        0x0 /Users/jkwang/Desktop/nacl_sdk/pepper_canary/toolchain/mac_pnacl/bin/../x86_64-nacl/lib32/libppapi_stub.a(ppapi_plugin_main.o)
 .group         0x0000000000000000        0x8 /Users/jkwang/Desktop/nacl_sdk/pepper_canary/toolchain/mac_pnacl/bin/../x86_64-nacl/lib32/libppapi_stub.a(ppapi_plugin_start.o)
 .note.NaCl.ABI.x86-32
                0x0000000000000000       0x1c /Users/jkwang/Desktop/nacl_sdk/pepper_canary/toolchain/mac_pnacl/bin/../x86_64-nacl/lib32/libppapi_stub.a(ppapi_plugin_start.o)
 .note.GNU-stack
                0x0000000000000000        0x0 /Users/jkwang/Desktop/nacl_sdk/pepper_canary/toolchain/mac_pnacl/bin/../x86_64-nacl/lib32/libppapi_stub.a(ppapi_plugin_start.o)
 .group         0x0000000000000000        0x8 /Users/jkwang/Desktop/nacl_sdk/pepper_canary/toolchain/mac_pnacl/bin/../x86_64-nacl/lib32/libppapi_stub.a(thread_creator.o)
 .note.NaCl.ABI.x86-32
                0x0000000000000000       0x1c /Users/jkwang/Desktop/nacl_sdk/pepper_canary/toolchain/mac_pnacl/bin/../x86_64-nacl/lib32/libppapi_stub.a(thread_creator.o)
 .note.GNU-stack
                0x0000000000000000        0x0 /Users/jkwang/Desktop/nacl_sdk/pepper_canary/toolchain/mac_pnacl/bin/../x86_64-nacl/lib32/libppapi_stub.a(thread_creator.o)
 .group         0x0000000000000000        0x8 /Users/jkwang/Desktop/nacl_sdk/pepper_canary/toolchain/mac_pnacl/bin/../x86_64-nacl/lib32/libpthread.a(nc_thread.o)
 .note.NaCl.ABI.x86-32
                0x0000000000000000       0x1c /Users/jkwang/Desktop/nacl_sdk/pepper_canary/toolchain/mac_pnacl/bin/../x86_64-nacl/lib32/libpthread.a(nc_thread.o)
 .note.GNU-stack
                0x0000000000000000        0x0 /Users/jkwang/Desktop/nacl_sdk/pepper_canary/toolchain/mac_pnacl/bin/../x86_64-nacl/lib32/libpthread.a(nc_thread.o)
 .group         0x0000000000000000        0x8 /Users/jkwang/Desktop/nacl_sdk/pepper_canary/toolchain/mac_pnacl/bin/../x86_64-nacl/lib32/libpthread.a(nc_mutex.o)
 .note.NaCl.ABI.x86-32
                0x0000000000000000       0x1c /Users/jkwang/Desktop/nacl_sdk/pepper_canary/toolchain/mac_pnacl/bin/../x86_64-nacl/lib32/libpthread.a(nc_mutex.o)
 .note.GNU-stack
                0x0000000000000000        0x0 /Users/jkwang/Desktop/nacl_sdk/pepper_canary/toolchain/mac_pnacl/bin/../x86_64-nacl/lib32/libpthread.a(nc_mutex.o)
 .group         0x0000000000000000        0x8 /Users/jkwang/Desktop/nacl_sdk/pepper_canary/toolchain/mac_pnacl/bin/../x86_64-nacl/lib32/libpthread.a(nc_condvar.o)
 .note.NaCl.ABI.x86-32
                0x0000000000000000       0x1c /Users/jkwang/Desktop/nacl_sdk/pepper_canary/toolchain/mac_pnacl/bin/../x86_64-nacl/lib32/libpthread.a(nc_condvar.o)
 .note.GNU-stack
                0x0000000000000000        0x0 /Users/jkwang/Desktop/nacl_sdk/pepper_canary/toolchain/mac_pnacl/bin/../x86_64-nacl/lib32/libpthread.a(nc_condvar.o)
 .group         0x0000000000000000        0x8 /Users/jkwang/Desktop/nacl_sdk/pepper_canary/toolchain/mac_pnacl/bin/../x86_64-nacl/lib32/libpthread.a(valgrind_annotations.o)
 .note.NaCl.ABI.x86-32
                0x0000000000000000       0x1c /Users/jkwang/Desktop/nacl_sdk/pepper_canary/toolchain/mac_pnacl/bin/../x86_64-nacl/lib32/libpthread.a(valgrind_annotations.o)
 .note.GNU-stack
                0x0000000000000000        0x0 /Users/jkwang/Desktop/nacl_sdk/pepper_canary/toolchain/mac_pnacl/bin/../x86_64-nacl/lib32/libpthread.a(valgrind_annotations.o)
 .group         0x0000000000000000        0x8 /Users/jkwang/Desktop/nacl_sdk/pepper_canary/toolchain/mac_pnacl/bin/../x86_64-nacl/lib32/libpthread.a(nc_init_irt.o)
 .note.NaCl.ABI.x86-32
                0x0000000000000000       0x1c /Users/jkwang/Desktop/nacl_sdk/pepper_canary/toolchain/mac_pnacl/bin/../x86_64-nacl/lib32/libpthread.a(nc_init_irt.o)
 .note.GNU-stack
                0x0000000000000000        0x0 /Users/jkwang/Desktop/nacl_sdk/pepper_canary/toolchain/mac_pnacl/bin/../x86_64-nacl/lib32/libpthread.a(nc_init_irt.o)
 .group         0x0000000000000000        0x8 /Users/jkwang/Desktop/nacl_sdk/pepper_canary/toolchain/mac_pnacl/bin/../x86_64-nacl/lib32/libnacl.a(nacl_irt.o)
 .note.NaCl.ABI.x86-32
                0x0000000000000000       0x1c /Users/jkwang/Desktop/nacl_sdk/pepper_canary/toolchain/mac_pnacl/bin/../x86_64-nacl/lib32/libnacl.a(nacl_irt.o)
 .note.GNU-stack
                0x0000000000000000        0x0 /Users/jkwang/Desktop/nacl_sdk/pepper_canary/toolchain/mac_pnacl/bin/../x86_64-nacl/lib32/libnacl.a(nacl_irt.o)
 .group         0x0000000000000000        0x8 /Users/jkwang/Desktop/nacl_sdk/pepper_canary/toolchain/mac_pnacl/bin/../x86_64-nacl/lib32/libnacl.a(_exit.o)
 .note.NaCl.ABI.x86-32
                0x0000000000000000       0x1c /Users/jkwang/Desktop/nacl_sdk/pepper_canary/toolchain/mac_pnacl/bin/../x86_64-nacl/lib32/libnacl.a(_exit.o)
 .note.GNU-stack
                0x0000000000000000        0x0 /Users/jkwang/Desktop/nacl_sdk/pepper_canary/toolchain/mac_pnacl/bin/../x86_64-nacl/lib32/libnacl.a(_exit.o)
 .group         0x0000000000000000        0x8 /Users/jkwang/Desktop/nacl_sdk/pepper_canary/toolchain/mac_pnacl/bin/../x86_64-nacl/lib32/libnacl.a(mmap.o)
 .note.NaCl.ABI.x86-32
                0x0000000000000000       0x1c /Users/jkwang/Desktop/nacl_sdk/pepper_canary/toolchain/mac_pnacl/bin/../x86_64-nacl/lib32/libnacl.a(mmap.o)
 .note.GNU-stack
                0x0000000000000000        0x0 /Users/jkwang/Desktop/nacl_sdk/pepper_canary/toolchain/mac_pnacl/bin/../x86_64-nacl/lib32/libnacl.a(mmap.o)
 .group         0x0000000000000000        0x8 /Users/jkwang/Desktop/nacl_sdk/pepper_canary/toolchain/mac_pnacl/bin/../x86_64-nacl/lib32/libnacl.a(munmap.o)
 .note.NaCl.ABI.x86-32
                0x0000000000000000       0x1c /Users/jkwang/Desktop/nacl_sdk/pepper_canary/toolchain/mac_pnacl/bin/../x86_64-nacl/lib32/libnacl.a(munmap.o)
 .note.GNU-stack
                0x0000000000000000        0x0 /Users/jkwang/Desktop/nacl_sdk/pepper_canary/toolchain/mac_pnacl/bin/../x86_64-nacl/lib32/libnacl.a(munmap.o)
 .group         0x0000000000000000        0x8 /Users/jkwang/Desktop/nacl_sdk/pepper_canary/toolchain/mac_pnacl/bin/../x86_64-nacl/lib32/libnacl.a(nacl_interface_query.o)
 .note.NaCl.ABI.x86-32
                0x0000000000000000       0x1c /Users/jkwang/Desktop/nacl_sdk/pepper_canary/toolchain/mac_pnacl/bin/../x86_64-nacl/lib32/libnacl.a(nacl_interface_query.o)
 .note.GNU-stack
                0x0000000000000000        0x0 /Users/jkwang/Desktop/nacl_sdk/pepper_canary/toolchain/mac_pnacl/bin/../x86_64-nacl/lib32/libnacl.a(nacl_interface_query.o)
 .group         0x0000000000000000        0x8 /Users/jkwang/Desktop/nacl_sdk/pepper_canary/toolchain/mac_pnacl/bin/../x86_64-nacl/lib32/libnacl.a(write.o)
 .note.NaCl.ABI.x86-32
                0x0000000000000000       0x1c /Users/jkwang/Desktop/nacl_sdk/pepper_canary/toolchain/mac_pnacl/bin/../x86_64-nacl/lib32/libnacl.a(write.o)
 .note.GNU-stack
                0x0000000000000000        0x0 /Users/jkwang/Desktop/nacl_sdk/pepper_canary/toolchain/mac_pnacl/bin/../x86_64-nacl/lib32/libnacl.a(write.o)
 .group         0x0000000000000000        0x8 /Users/jkwang/Desktop/nacl_sdk/pepper_canary/toolchain/mac_pnacl/bin/../x86_64-nacl/lib32/libnacl.a(environ.o)
 .note.NaCl.ABI.x86-32
                0x0000000000000000       0x1c /Users/jkwang/Desktop/nacl_sdk/pepper_canary/toolchain/mac_pnacl/bin/../x86_64-nacl/lib32/libnacl.a(environ.o)
 .note.GNU-stack
                0x0000000000000000        0x0 /Users/jkwang/Desktop/nacl_sdk/pepper_canary/toolchain/mac_pnacl/bin/../x86_64-nacl/lib32/libnacl.a(environ.o)
 .group         0x0000000000000000        0x8 /Users/jkwang/Desktop/nacl_sdk/pepper_canary/toolchain/mac_pnacl/bin/../x86_64-nacl/lib32/libnacl.a(malloc.o)
 .note.NaCl.ABI.x86-32
                0x0000000000000000       0x1c /Users/jkwang/Desktop/nacl_sdk/pepper_canary/toolchain/mac_pnacl/bin/../x86_64-nacl/lib32/libnacl.a(malloc.o)
 .note.GNU-stack
                0x0000000000000000        0x0 /Users/jkwang/Desktop/nacl_sdk/pepper_canary/toolchain/mac_pnacl/bin/../x86_64-nacl/lib32/libnacl.a(malloc.o)
 .group         0x0000000000000000        0x8 /Users/jkwang/Desktop/nacl_sdk/pepper_canary/toolchain/mac_pnacl/bin/../x86_64-nacl/lib32/libnacl.a(start.o)
 .note.NaCl.ABI.x86-32
                0x0000000000000000       0x1c /Users/jkwang/Desktop/nacl_sdk/pepper_canary/toolchain/mac_pnacl/bin/../x86_64-nacl/lib32/libnacl.a(start.o)
 .note.GNU-stack
                0x0000000000000000        0x0 /Users/jkwang/Desktop/nacl_sdk/pepper_canary/toolchain/mac_pnacl/bin/../x86_64-nacl/lib32/libnacl.a(start.o)
 .group         0x0000000000000000        0x8 /Users/jkwang/Desktop/nacl_sdk/pepper_canary/toolchain/mac_pnacl/bin/../x86_64-nacl/lib32/libnacl.a(nacl_read_tp.o)
 .note.NaCl.ABI.x86-32
                0x0000000000000000       0x1c /Users/jkwang/Desktop/nacl_sdk/pepper_canary/toolchain/mac_pnacl/bin/../x86_64-nacl/lib32/libnacl.a(nacl_read_tp.o)
 .note.GNU-stack
                0x0000000000000000        0x0 /Users/jkwang/Desktop/nacl_sdk/pepper_canary/toolchain/mac_pnacl/bin/../x86_64-nacl/lib32/libnacl.a(nacl_read_tp.o)
 .group         0x0000000000000000        0x8 /Users/jkwang/Desktop/nacl_sdk/pepper_canary/toolchain/mac_pnacl/bin/../x86_64-nacl/lib32/libnacl.a(pthread_initialize_minimal.o)
 .note.NaCl.ABI.x86-32
                0x0000000000000000       0x1c /Users/jkwang/Desktop/nacl_sdk/pepper_canary/toolchain/mac_pnacl/bin/../x86_64-nacl/lib32/libnacl.a(pthread_initialize_minimal.o)
 .note.GNU-stack
                0x0000000000000000        0x0 /Users/jkwang/Desktop/nacl_sdk/pepper_canary/toolchain/mac_pnacl/bin/../x86_64-nacl/lib32/libnacl.a(pthread_initialize_minimal.o)
 .group         0x0000000000000000        0x8 /Users/jkwang/Desktop/nacl_sdk/pepper_canary/toolchain/mac_pnacl/bin/../x86_64-nacl/lib32/libnacl.a(tls.o)
 .note.NaCl.ABI.x86-32
                0x0000000000000000       0x1c /Users/jkwang/Desktop/nacl_sdk/pepper_canary/toolchain/mac_pnacl/bin/../x86_64-nacl/lib32/libnacl.a(tls.o)
 .note.GNU-stack
                0x0000000000000000        0x0 /Users/jkwang/Desktop/nacl_sdk/pepper_canary/toolchain/mac_pnacl/bin/../x86_64-nacl/lib32/libnacl.a(tls.o)
 .group         0x0000000000000000        0x8 /Users/jkwang/Desktop/nacl_sdk/pepper_canary/toolchain/mac_pnacl/bin/../x86_64-nacl/lib32/libnacl.a(nacl_irt_init.o)
 .note.NaCl.ABI.x86-32
                0x0000000000000000       0x1c /Users/jkwang/Desktop/nacl_sdk/pepper_canary/toolchain/mac_pnacl/bin/../x86_64-nacl/lib32/libnacl.a(nacl_irt_init.o)
 .note.GNU-stack
                0x0000000000000000        0x0 /Users/jkwang/Desktop/nacl_sdk/pepper_canary/toolchain/mac_pnacl/bin/../x86_64-nacl/lib32/libnacl.a(nacl_irt_init.o)
 .group         0x0000000000000000        0x8 /Users/jkwang/Desktop/nacl_sdk/pepper_canary/toolchain/mac_pnacl/bin/../x86_64-nacl/lib32/libnacl.a(nacl_tls_get.o)
 .note.NaCl.ABI.x86-32
                0x0000000000000000       0x1c /Users/jkwang/Desktop/nacl_sdk/pepper_canary/toolchain/mac_pnacl/bin/../x86_64-nacl/lib32/libnacl.a(nacl_tls_get.o)
 .note.GNU-stack
                0x0000000000000000        0x0 /Users/jkwang/Desktop/nacl_sdk/pepper_canary/toolchain/mac_pnacl/bin/../x86_64-nacl/lib32/libnacl.a(nacl_tls_get.o)
 .group         0x0000000000000000        0x8 /Users/jkwang/Desktop/nacl_sdk/pepper_canary/toolchain/mac_pnacl/bin/../x86_64-nacl/lib32/libnacl.a(nacl_tls_init.o)
 .note.NaCl.ABI.x86-32
                0x0000000000000000       0x1c /Users/jkwang/Desktop/nacl_sdk/pepper_canary/toolchain/mac_pnacl/bin/../x86_64-nacl/lib32/libnacl.a(nacl_tls_init.o)
 .note.GNU-stack
                0x0000000000000000        0x0 /Users/jkwang/Desktop/nacl_sdk/pepper_canary/toolchain/mac_pnacl/bin/../x86_64-nacl/lib32/libnacl.a(nacl_tls_init.o)
 .group         0x0000000000000000        0x8 /Users/jkwang/Desktop/nacl_sdk/pepper_canary/toolchain/mac_pnacl/bin/../x86_64-nacl/lib32/libnacl.a(abort.o)
 .note.NaCl.ABI.x86-32
                0x0000000000000000       0x1c /Users/jkwang/Desktop/nacl_sdk/pepper_canary/toolchain/mac_pnacl/bin/../x86_64-nacl/lib32/libnacl.a(abort.o)
 .note.GNU-stack
                0x0000000000000000        0x0 /Users/jkwang/Desktop/nacl_sdk/pepper_canary/toolchain/mac_pnacl/bin/../x86_64-nacl/lib32/libnacl.a(abort.o)
 .group         0x0000000000000000        0x8 /Users/jkwang/Desktop/nacl_sdk/pepper_canary/toolchain/mac_pnacl/bin/../x86_64-nacl/lib32/libnacl.a(sched_yield.o)
 .note.NaCl.ABI.x86-32
                0x0000000000000000       0x1c /Users/jkwang/Desktop/nacl_sdk/pepper_canary/toolchain/mac_pnacl/bin/../x86_64-nacl/lib32/libnacl.a(sched_yield.o)
 .note.GNU-stack
                0x0000000000000000        0x0 /Users/jkwang/Desktop/nacl_sdk/pepper_canary/toolchain/mac_pnacl/bin/../x86_64-nacl/lib32/libnacl.a(sched_yield.o)
 .group         0x0000000000000000        0x8 /Users/jkwang/Desktop/nacl_sdk/pepper_canary/toolchain/mac_pnacl/bin/../x86_64-nacl/lib32/libnacl.a(sysconf.o)
 .note.NaCl.ABI.x86-32
                0x0000000000000000       0x1c /Users/jkwang/Desktop/nacl_sdk/pepper_canary/toolchain/mac_pnacl/bin/../x86_64-nacl/lib32/libnacl.a(sysconf.o)
 .note.GNU-stack
                0x0000000000000000        0x0 /Users/jkwang/Desktop/nacl_sdk/pepper_canary/toolchain/mac_pnacl/bin/../x86_64-nacl/lib32/libnacl.a(sysconf.o)
 .group         0x0000000000000000        0x8 /Users/jkwang/Desktop/nacl_sdk/pepper_canary/toolchain/mac_pnacl/bin/../x86_64-nacl/lib32/libcrt_common.a(lib_a-atexit.o)
 .note.NaCl.ABI.x86-32
                0x0000000000000000       0x1c /Users/jkwang/Desktop/nacl_sdk/pepper_canary/toolchain/mac_pnacl/bin/../x86_64-nacl/lib32/libcrt_common.a(lib_a-atexit.o)
 .note.GNU-stack
                0x0000000000000000        0x0 /Users/jkwang/Desktop/nacl_sdk/pepper_canary/toolchain/mac_pnacl/bin/../x86_64-nacl/lib32/libcrt_common.a(lib_a-atexit.o)
 .group         0x0000000000000000        0x8 /Users/jkwang/Desktop/nacl_sdk/pepper_canary/toolchain/mac_pnacl/bin/../x86_64-nacl/lib32/libcrt_common.a(lib_a-errno.o)
 .note.NaCl.ABI.x86-32
                0x0000000000000000       0x1c /Users/jkwang/Desktop/nacl_sdk/pepper_canary/toolchain/mac_pnacl/bin/../x86_64-nacl/lib32/libcrt_common.a(lib_a-errno.o)
 .note.GNU-stack
                0x0000000000000000        0x0 /Users/jkwang/Desktop/nacl_sdk/pepper_canary/toolchain/mac_pnacl/bin/../x86_64-nacl/lib32/libcrt_common.a(lib_a-errno.o)
 .group         0x0000000000000000        0x8 /Users/jkwang/Desktop/nacl_sdk/pepper_canary/toolchain/mac_pnacl/bin/../x86_64-nacl/lib32/libcrt_common.a(lib_a-exit.o)
 .note.NaCl.ABI.x86-32
                0x0000000000000000       0x1c /Users/jkwang/Desktop/nacl_sdk/pepper_canary/toolchain/mac_pnacl/bin/../x86_64-nacl/lib32/libcrt_common.a(lib_a-exit.o)
 .note.GNU-stack
                0x0000000000000000        0x0 /Users/jkwang/Desktop/nacl_sdk/pepper_canary/toolchain/mac_pnacl/bin/../x86_64-nacl/lib32/libcrt_common.a(lib_a-exit.o)
 .group         0x0000000000000000        0x8 /Users/jkwang/Desktop/nacl_sdk/pepper_canary/toolchain/mac_pnacl/bin/../x86_64-nacl/lib32/libcrt_common.a(lib_a-fflush.o)
 .note.NaCl.ABI.x86-32
                0x0000000000000000       0x1c /Users/jkwang/Desktop/nacl_sdk/pepper_canary/toolchain/mac_pnacl/bin/../x86_64-nacl/lib32/libcrt_common.a(lib_a-fflush.o)
 .note.GNU-stack
                0x0000000000000000        0x0 /Users/jkwang/Desktop/nacl_sdk/pepper_canary/toolchain/mac_pnacl/bin/../x86_64-nacl/lib32/libcrt_common.a(lib_a-fflush.o)
 .group         0x0000000000000000        0x8 /Users/jkwang/Desktop/nacl_sdk/pepper_canary/toolchain/mac_pnacl/bin/../x86_64-nacl/lib32/libcrt_common.a(lib_a-findfp.o)
 .note.NaCl.ABI.x86-32
                0x0000000000000000       0x1c /Users/jkwang/Desktop/nacl_sdk/pepper_canary/toolchain/mac_pnacl/bin/../x86_64-nacl/lib32/libcrt_common.a(lib_a-findfp.o)
 .note.GNU-stack
                0x0000000000000000        0x0 /Users/jkwang/Desktop/nacl_sdk/pepper_canary/toolchain/mac_pnacl/bin/../x86_64-nacl/lib32/libcrt_common.a(lib_a-findfp.o)
 .group         0x0000000000000000        0x8 /Users/jkwang/Desktop/nacl_sdk/pepper_canary/toolchain/mac_pnacl/bin/../x86_64-nacl/lib32/libcrt_common.a(lib_a-fini.o)
 .note.NaCl.ABI.x86-32
                0x0000000000000000       0x1c /Users/jkwang/Desktop/nacl_sdk/pepper_canary/toolchain/mac_pnacl/bin/../x86_64-nacl/lib32/libcrt_common.a(lib_a-fini.o)
 .note.GNU-stack
                0x0000000000000000        0x0 /Users/jkwang/Desktop/nacl_sdk/pepper_canary/toolchain/mac_pnacl/bin/../x86_64-nacl/lib32/libcrt_common.a(lib_a-fini.o)
 .group         0x0000000000000000        0x8 /Users/jkwang/Desktop/nacl_sdk/pepper_canary/toolchain/mac_pnacl/bin/../x86_64-nacl/lib32/libcrt_common.a(lib_a-fprintf.o)
 .note.NaCl.ABI.x86-32
                0x0000000000000000       0x1c /Users/jkwang/Desktop/nacl_sdk/pepper_canary/toolchain/mac_pnacl/bin/../x86_64-nacl/lib32/libcrt_common.a(lib_a-fprintf.o)
 .note.GNU-stack
                0x0000000000000000        0x0 /Users/jkwang/Desktop/nacl_sdk/pepper_canary/toolchain/mac_pnacl/bin/../x86_64-nacl/lib32/libcrt_common.a(lib_a-fprintf.o)
 .group         0x0000000000000000        0x8 /Users/jkwang/Desktop/nacl_sdk/pepper_canary/toolchain/mac_pnacl/bin/../x86_64-nacl/lib32/libcrt_common.a(lib_a-fwalk.o)
 .note.NaCl.ABI.x86-32
                0x0000000000000000       0x1c /Users/jkwang/Desktop/nacl_sdk/pepper_canary/toolchain/mac_pnacl/bin/../x86_64-nacl/lib32/libcrt_common.a(lib_a-fwalk.o)
 .note.GNU-stack
                0x0000000000000000        0x0 /Users/jkwang/Desktop/nacl_sdk/pepper_canary/toolchain/mac_pnacl/bin/../x86_64-nacl/lib32/libcrt_common.a(lib_a-fwalk.o)
 .group         0x0000000000000000        0x8 /Users/jkwang/Desktop/nacl_sdk/pepper_canary/toolchain/mac_pnacl/bin/../x86_64-nacl/lib32/libcrt_common.a(lib_a-fwrite.o)
 .note.NaCl.ABI.x86-32
                0x0000000000000000       0x1c /Users/jkwang/Desktop/nacl_sdk/pepper_canary/toolchain/mac_pnacl/bin/../x86_64-nacl/lib32/libcrt_common.a(lib_a-fwrite.o)
 .note.GNU-stack
                0x0000000000000000        0x0 /Users/jkwang/Desktop/nacl_sdk/pepper_canary/toolchain/mac_pnacl/bin/../x86_64-nacl/lib32/libcrt_common.a(lib_a-fwrite.o)
 .group         0x0000000000000000        0x8 /Users/jkwang/Desktop/nacl_sdk/pepper_canary/toolchain/mac_pnacl/bin/../x86_64-nacl/lib32/libcrt_common.a(lib_a-getenv.o)
 .note.NaCl.ABI.x86-32
                0x0000000000000000       0x1c /Users/jkwang/Desktop/nacl_sdk/pepper_canary/toolchain/mac_pnacl/bin/../x86_64-nacl/lib32/libcrt_common.a(lib_a-getenv.o)
 .note.GNU-stack
                0x0000000000000000        0x0 /Users/jkwang/Desktop/nacl_sdk/pepper_canary/toolchain/mac_pnacl/bin/../x86_64-nacl/lib32/libcrt_common.a(lib_a-getenv.o)
 .group         0x0000000000000000        0x8 /Users/jkwang/Desktop/nacl_sdk/pepper_canary/toolchain/mac_pnacl/bin/../x86_64-nacl/lib32/libcrt_common.a(lib_a-getenv_r.o)
 .note.NaCl.ABI.x86-32
                0x0000000000000000       0x1c /Users/jkwang/Desktop/nacl_sdk/pepper_canary/toolchain/mac_pnacl/bin/../x86_64-nacl/lib32/libcrt_common.a(lib_a-getenv_r.o)
 .note.GNU-stack
                0x0000000000000000        0x0 /Users/jkwang/Desktop/nacl_sdk/pepper_canary/toolchain/mac_pnacl/bin/../x86_64-nacl/lib32/libcrt_common.a(lib_a-getenv_r.o)
 .group         0x0000000000000000        0x8 /Users/jkwang/Desktop/nacl_sdk/pepper_canary/toolchain/mac_pnacl/bin/../x86_64-nacl/lib32/libcrt_common.a(lib_a-impure.o)
 .note.NaCl.ABI.x86-32
                0x0000000000000000       0x1c /Users/jkwang/Desktop/nacl_sdk/pepper_canary/toolchain/mac_pnacl/bin/../x86_64-nacl/lib32/libcrt_common.a(lib_a-impure.o)
 .note.GNU-stack
                0x0000000000000000        0x0 /Users/jkwang/Desktop/nacl_sdk/pepper_canary/toolchain/mac_pnacl/bin/../x86_64-nacl/lib32/libcrt_common.a(lib_a-impure.o)
 .group         0x0000000000000000        0x8 /Users/jkwang/Desktop/nacl_sdk/pepper_canary/toolchain/mac_pnacl/bin/../x86_64-nacl/lib32/libcrt_common.a(lib_a-init.o)
 .note.NaCl.ABI.x86-32
                0x0000000000000000       0x1c /Users/jkwang/Desktop/nacl_sdk/pepper_canary/toolchain/mac_pnacl/bin/../x86_64-nacl/lib32/libcrt_common.a(lib_a-init.o)
 .note.GNU-stack
                0x0000000000000000        0x0 /Users/jkwang/Desktop/nacl_sdk/pepper_canary/toolchain/mac_pnacl/bin/../x86_64-nacl/lib32/libcrt_common.a(lib_a-init.o)
 .group         0x0000000000000000        0x8 /Users/jkwang/Desktop/nacl_sdk/pepper_canary/toolchain/mac_pnacl/bin/../x86_64-nacl/lib32/libcrt_common.a(lib_a-memcpy.o)
 .note.NaCl.ABI.x86-32
                0x0000000000000000       0x1c /Users/jkwang/Desktop/nacl_sdk/pepper_canary/toolchain/mac_pnacl/bin/../x86_64-nacl/lib32/libcrt_common.a(lib_a-memcpy.o)
 .group         0x0000000000000000        0x8 /Users/jkwang/Desktop/nacl_sdk/pepper_canary/toolchain/mac_pnacl/bin/../x86_64-nacl/lib32/libcrt_common.a(lib_a-memset.o)
 .note.NaCl.ABI.x86-32
                0x0000000000000000       0x1c /Users/jkwang/Desktop/nacl_sdk/pepper_canary/toolchain/mac_pnacl/bin/../x86_64-nacl/lib32/libcrt_common.a(lib_a-memset.o)
 .group         0x0000000000000000        0x8 /Users/jkwang/Desktop/nacl_sdk/pepper_canary/toolchain/mac_pnacl/bin/../x86_64-nacl/lib32/libcrt_common.a(lib_a-sleep.o)
 .note.NaCl.ABI.x86-32
                0x0000000000000000       0x1c /Users/jkwang/Desktop/nacl_sdk/pepper_canary/toolchain/mac_pnacl/bin/../x86_64-nacl/lib32/libcrt_common.a(lib_a-sleep.o)
 .note.GNU-stack
                0x0000000000000000        0x0 /Users/jkwang/Desktop/nacl_sdk/pepper_canary/toolchain/mac_pnacl/bin/../x86_64-nacl/lib32/libcrt_common.a(lib_a-sleep.o)
 .group         0x0000000000000000        0x8 /Users/jkwang/Desktop/nacl_sdk/pepper_canary/toolchain/mac_pnacl/bin/../x86_64-nacl/lib32/libcrt_common.a(lib_a-stdio.o)
 .note.NaCl.ABI.x86-32
                0x0000000000000000       0x1c /Users/jkwang/Desktop/nacl_sdk/pepper_canary/toolchain/mac_pnacl/bin/../x86_64-nacl/lib32/libcrt_common.a(lib_a-stdio.o)
 .note.GNU-stack
                0x0000000000000000        0x0 /Users/jkwang/Desktop/nacl_sdk/pepper_canary/toolchain/mac_pnacl/bin/../x86_64-nacl/lib32/libcrt_common.a(lib_a-stdio.o)
 .group         0x0000000000000000        0x8 /Users/jkwang/Desktop/nacl_sdk/pepper_canary/toolchain/mac_pnacl/bin/../x86_64-nacl/lib32/libcrt_common.a(lib_a-strcat.o)
 .note.NaCl.ABI.x86-32
                0x0000000000000000       0x1c /Users/jkwang/Desktop/nacl_sdk/pepper_canary/toolchain/mac_pnacl/bin/../x86_64-nacl/lib32/libcrt_common.a(lib_a-strcat.o)
 .note.GNU-stack
                0x0000000000000000        0x0 /Users/jkwang/Desktop/nacl_sdk/pepper_canary/toolchain/mac_pnacl/bin/../x86_64-nacl/lib32/libcrt_common.a(lib_a-strcat.o)
 .group         0x0000000000000000        0x8 /Users/jkwang/Desktop/nacl_sdk/pepper_canary/toolchain/mac_pnacl/bin/../x86_64-nacl/lib32/libcrt_common.a(lib_a-strcmp.o)
 .note.NaCl.ABI.x86-32
                0x0000000000000000       0x1c /Users/jkwang/Desktop/nacl_sdk/pepper_canary/toolchain/mac_pnacl/bin/../x86_64-nacl/lib32/libcrt_common.a(lib_a-strcmp.o)
 .note.GNU-stack
                0x0000000000000000        0x0 /Users/jkwang/Desktop/nacl_sdk/pepper_canary/toolchain/mac_pnacl/bin/../x86_64-nacl/lib32/libcrt_common.a(lib_a-strcmp.o)
 .group         0x0000000000000000        0x8 /Users/jkwang/Desktop/nacl_sdk/pepper_canary/toolchain/mac_pnacl/bin/../x86_64-nacl/lib32/libcrt_common.a(lib_a-strcpy.o)
 .note.NaCl.ABI.x86-32
                0x0000000000000000       0x1c /Users/jkwang/Desktop/nacl_sdk/pepper_canary/toolchain/mac_pnacl/bin/../x86_64-nacl/lib32/libcrt_common.a(lib_a-strcpy.o)
 .note.GNU-stack
                0x0000000000000000        0x0 /Users/jkwang/Desktop/nacl_sdk/pepper_canary/toolchain/mac_pnacl/bin/../x86_64-nacl/lib32/libcrt_common.a(lib_a-strcpy.o)
 .group         0x0000000000000000        0x8 /Users/jkwang/Desktop/nacl_sdk/pepper_canary/toolchain/mac_pnacl/bin/../x86_64-nacl/lib32/libcrt_common.a(lib_a-strlen.o)
 .note.NaCl.ABI.x86-32
                0x0000000000000000       0x1c /Users/jkwang/Desktop/nacl_sdk/pepper_canary/toolchain/mac_pnacl/bin/../x86_64-nacl/lib32/libcrt_common.a(lib_a-strlen.o)
 .group         0x0000000000000000        0x8 /Users/jkwang/Desktop/nacl_sdk/pepper_canary/toolchain/mac_pnacl/bin/../x86_64-nacl/lib32/libcrt_common.a(lib_a-strncmp.o)
 .note.NaCl.ABI.x86-32
                0x0000000000000000       0x1c /Users/jkwang/Desktop/nacl_sdk/pepper_canary/toolchain/mac_pnacl/bin/../x86_64-nacl/lib32/libcrt_common.a(lib_a-strncmp.o)
 .note.GNU-stack
                0x0000000000000000        0x0 /Users/jkwang/Desktop/nacl_sdk/pepper_canary/toolchain/mac_pnacl/bin/../x86_64-nacl/lib32/libcrt_common.a(lib_a-strncmp.o)
 .group         0x0000000000000000        0x8 /Users/jkwang/Desktop/nacl_sdk/pepper_canary/toolchain/mac_pnacl/bin/../x86_64-nacl/lib32/libcrt_common.a(lib_a-vfprintf.o)
 .note.NaCl.ABI.x86-32
                0x0000000000000000       0x1c /Users/jkwang/Desktop/nacl_sdk/pepper_canary/toolchain/mac_pnacl/bin/../x86_64-nacl/lib32/libcrt_common.a(lib_a-vfprintf.o)
 .note.GNU-stack
                0x0000000000000000        0x0 /Users/jkwang/Desktop/nacl_sdk/pepper_canary/toolchain/mac_pnacl/bin/../x86_64-nacl/lib32/libcrt_common.a(lib_a-vfprintf.o)
 .group         0x0000000000000000        0x8 /Users/jkwang/Desktop/nacl_sdk/pepper_canary/toolchain/mac_pnacl/bin/../x86_64-nacl/lib32/libcrt_common.a(lib_a-vsnprintf.o)
 .note.NaCl.ABI.x86-32
                0x0000000000000000       0x1c /Users/jkwang/Desktop/nacl_sdk/pepper_canary/toolchain/mac_pnacl/bin/../x86_64-nacl/lib32/libcrt_common.a(lib_a-vsnprintf.o)
 .note.GNU-stack
                0x0000000000000000        0x0 /Users/jkwang/Desktop/nacl_sdk/pepper_canary/toolchain/mac_pnacl/bin/../x86_64-nacl/lib32/libcrt_common.a(lib_a-vsnprintf.o)
 .group         0x0000000000000000        0x8 /Users/jkwang/Desktop/nacl_sdk/pepper_canary/toolchain/mac_pnacl/bin/../x86_64-nacl/lib32/libcrt_common.a(lib_a-vsprintf.o)
 .note.NaCl.ABI.x86-32
                0x0000000000000000       0x1c /Users/jkwang/Desktop/nacl_sdk/pepper_canary/toolchain/mac_pnacl/bin/../x86_64-nacl/lib32/libcrt_common.a(lib_a-vsprintf.o)
 .note.GNU-stack
                0x0000000000000000        0x0 /Users/jkwang/Desktop/nacl_sdk/pepper_canary/toolchain/mac_pnacl/bin/../x86_64-nacl/lib32/libcrt_common.a(lib_a-vsprintf.o)
 .group         0x0000000000000000        0x8 /Users/jkwang/Desktop/nacl_sdk/pepper_canary/toolchain/mac_pnacl/bin/../x86_64-nacl/lib32/libcrt_common.a(lib_a-wcrtomb.o)
 .note.NaCl.ABI.x86-32
                0x0000000000000000       0x1c /Users/jkwang/Desktop/nacl_sdk/pepper_canary/toolchain/mac_pnacl/bin/../x86_64-nacl/lib32/libcrt_common.a(lib_a-wcrtomb.o)
 .note.GNU-stack
                0x0000000000000000        0x0 /Users/jkwang/Desktop/nacl_sdk/pepper_canary/toolchain/mac_pnacl/bin/../x86_64-nacl/lib32/libcrt_common.a(lib_a-wcrtomb.o)
 .group         0x0000000000000000        0x8 /Users/jkwang/Desktop/nacl_sdk/pepper_canary/toolchain/mac_pnacl/bin/../x86_64-nacl/lib32/libcrt_common.a(lib_a-wcsrtombs.o)
 .note.NaCl.ABI.x86-32
                0x0000000000000000       0x1c /Users/jkwang/Desktop/nacl_sdk/pepper_canary/toolchain/mac_pnacl/bin/../x86_64-nacl/lib32/libcrt_common.a(lib_a-wcsrtombs.o)
 .note.GNU-stack
                0x0000000000000000        0x0 /Users/jkwang/Desktop/nacl_sdk/pepper_canary/toolchain/mac_pnacl/bin/../x86_64-nacl/lib32/libcrt_common.a(lib_a-wcsrtombs.o)
 .group         0x0000000000000000        0x8 /Users/jkwang/Desktop/nacl_sdk/pepper_canary/toolchain/mac_pnacl/bin/../x86_64-nacl/lib32/libcrt_common.a(lib_a-wctomb_r.o)
 .note.NaCl.ABI.x86-32
                0x0000000000000000       0x1c /Users/jkwang/Desktop/nacl_sdk/pepper_canary/toolchain/mac_pnacl/bin/../x86_64-nacl/lib32/libcrt_common.a(lib_a-wctomb_r.o)
 .note.GNU-stack
                0x0000000000000000        0x0 /Users/jkwang/Desktop/nacl_sdk/pepper_canary/toolchain/mac_pnacl/bin/../x86_64-nacl/lib32/libcrt_common.a(lib_a-wctomb_r.o)
 .group         0x0000000000000000        0x8 /Users/jkwang/Desktop/nacl_sdk/pepper_canary/toolchain/mac_pnacl/bin/../x86_64-nacl/lib32/libcrt_common.a(lib_a-wsetup.o)
 .note.NaCl.ABI.x86-32
                0x0000000000000000       0x1c /Users/jkwang/Desktop/nacl_sdk/pepper_canary/toolchain/mac_pnacl/bin/../x86_64-nacl/lib32/libcrt_common.a(lib_a-wsetup.o)
 .note.GNU-stack
                0x0000000000000000        0x0 /Users/jkwang/Desktop/nacl_sdk/pepper_canary/toolchain/mac_pnacl/bin/../x86_64-nacl/lib32/libcrt_common.a(lib_a-wsetup.o)
 .group         0x0000000000000000        0x8 /Users/jkwang/Desktop/nacl_sdk/pepper_canary/toolchain/mac_pnacl/bin/../x86_64-nacl/lib32/libcrt_common.a(lib_a-__atexit.o)
 .note.NaCl.ABI.x86-32
                0x0000000000000000       0x1c /Users/jkwang/Desktop/nacl_sdk/pepper_canary/toolchain/mac_pnacl/bin/../x86_64-nacl/lib32/libcrt_common.a(lib_a-__atexit.o)
 .note.GNU-stack
                0x0000000000000000        0x0 /Users/jkwang/Desktop/nacl_sdk/pepper_canary/toolchain/mac_pnacl/bin/../x86_64-nacl/lib32/libcrt_common.a(lib_a-__atexit.o)
 .group         0x0000000000000000        0x8 /Users/jkwang/Desktop/nacl_sdk/pepper_canary/toolchain/mac_pnacl/bin/../x86_64-nacl/lib32/libcrt_common.a(lib_a-__call_atexit.o)
 .note.NaCl.ABI.x86-32
                0x0000000000000000       0x1c /Users/jkwang/Desktop/nacl_sdk/pepper_canary/toolchain/mac_pnacl/bin/../x86_64-nacl/lib32/libcrt_common.a(lib_a-__call_atexit.o)
 .note.GNU-stack
                0x0000000000000000        0x0 /Users/jkwang/Desktop/nacl_sdk/pepper_canary/toolchain/mac_pnacl/bin/../x86_64-nacl/lib32/libcrt_common.a(lib_a-__call_atexit.o)
 .group         0x0000000000000000        0x8 /Users/jkwang/Desktop/nacl_sdk/pepper_canary/toolchain/mac_pnacl/bin/../x86_64-nacl/lib32/libcrt_common.a(lib_a-dtoa.o)
 .note.NaCl.ABI.x86-32
                0x0000000000000000       0x1c /Users/jkwang/Desktop/nacl_sdk/pepper_canary/toolchain/mac_pnacl/bin/../x86_64-nacl/lib32/libcrt_common.a(lib_a-dtoa.o)
 .note.GNU-stack
                0x0000000000000000        0x0 /Users/jkwang/Desktop/nacl_sdk/pepper_canary/toolchain/mac_pnacl/bin/../x86_64-nacl/lib32/libcrt_common.a(lib_a-dtoa.o)
 .group         0x0000000000000000        0x8 /Users/jkwang/Desktop/nacl_sdk/pepper_canary/toolchain/mac_pnacl/bin/../x86_64-nacl/lib32/libcrt_common.a(lib_a-envlock.o)
 .note.NaCl.ABI.x86-32
                0x0000000000000000       0x1c /Users/jkwang/Desktop/nacl_sdk/pepper_canary/toolchain/mac_pnacl/bin/../x86_64-nacl/lib32/libcrt_common.a(lib_a-envlock.o)
 .note.GNU-stack
                0x0000000000000000        0x0 /Users/jkwang/Desktop/nacl_sdk/pepper_canary/toolchain/mac_pnacl/bin/../x86_64-nacl/lib32/libcrt_common.a(lib_a-envlock.o)
 .group         0x0000000000000000        0x8 /Users/jkwang/Desktop/nacl_sdk/pepper_canary/toolchain/mac_pnacl/bin/../x86_64-nacl/lib32/libcrt_common.a(lib_a-fclose.o)
 .note.NaCl.ABI.x86-32
                0x0000000000000000       0x1c /Users/jkwang/Desktop/nacl_sdk/pepper_canary/toolchain/mac_pnacl/bin/../x86_64-nacl/lib32/libcrt_common.a(lib_a-fclose.o)
 .note.GNU-stack
                0x0000000000000000        0x0 /Users/jkwang/Desktop/nacl_sdk/pepper_canary/toolchain/mac_pnacl/bin/../x86_64-nacl/lib32/libcrt_common.a(lib_a-fclose.o)
 .group         0x0000000000000000        0x8 /Users/jkwang/Desktop/nacl_sdk/pepper_canary/toolchain/mac_pnacl/bin/../x86_64-nacl/lib32/libcrt_common.a(lib_a-fvwrite.o)
 .note.NaCl.ABI.x86-32
                0x0000000000000000       0x1c /Users/jkwang/Desktop/nacl_sdk/pepper_canary/toolchain/mac_pnacl/bin/../x86_64-nacl/lib32/libcrt_common.a(lib_a-fvwrite.o)
 .note.GNU-stack
                0x0000000000000000        0x0 /Users/jkwang/Desktop/nacl_sdk/pepper_canary/toolchain/mac_pnacl/bin/../x86_64-nacl/lib32/libcrt_common.a(lib_a-fvwrite.o)
 .group         0x0000000000000000        0x8 /Users/jkwang/Desktop/nacl_sdk/pepper_canary/toolchain/mac_pnacl/bin/../x86_64-nacl/lib32/libcrt_common.a(lib_a-locale.o)
 .note.NaCl.ABI.x86-32
                0x0000000000000000       0x1c /Users/jkwang/Desktop/nacl_sdk/pepper_canary/toolchain/mac_pnacl/bin/../x86_64-nacl/lib32/libcrt_common.a(lib_a-locale.o)
 .note.GNU-stack
                0x0000000000000000        0x0 /Users/jkwang/Desktop/nacl_sdk/pepper_canary/toolchain/mac_pnacl/bin/../x86_64-nacl/lib32/libcrt_common.a(lib_a-locale.o)
 .group         0x0000000000000000        0x8 /Users/jkwang/Desktop/nacl_sdk/pepper_canary/toolchain/mac_pnacl/bin/../x86_64-nacl/lib32/libcrt_common.a(lib_a-makebuf.o)
 .note.NaCl.ABI.x86-32
                0x0000000000000000       0x1c /Users/jkwang/Desktop/nacl_sdk/pepper_canary/toolchain/mac_pnacl/bin/../x86_64-nacl/lib32/libcrt_common.a(lib_a-makebuf.o)
 .note.GNU-stack
                0x0000000000000000        0x0 /Users/jkwang/Desktop/nacl_sdk/pepper_canary/toolchain/mac_pnacl/bin/../x86_64-nacl/lib32/libcrt_common.a(lib_a-makebuf.o)
 .group         0x0000000000000000        0x8 /Users/jkwang/Desktop/nacl_sdk/pepper_canary/toolchain/mac_pnacl/bin/../x86_64-nacl/lib32/libcrt_common.a(lib_a-mbtowc_r.o)
 .note.NaCl.ABI.x86-32
                0x0000000000000000       0x1c /Users/jkwang/Desktop/nacl_sdk/pepper_canary/toolchain/mac_pnacl/bin/../x86_64-nacl/lib32/libcrt_common.a(lib_a-mbtowc_r.o)
 .note.GNU-stack
                0x0000000000000000        0x0 /Users/jkwang/Desktop/nacl_sdk/pepper_canary/toolchain/mac_pnacl/bin/../x86_64-nacl/lib32/libcrt_common.a(lib_a-mbtowc_r.o)
 .group         0x0000000000000000        0x8 /Users/jkwang/Desktop/nacl_sdk/pepper_canary/toolchain/mac_pnacl/bin/../x86_64-nacl/lib32/libcrt_common.a(lib_a-memchr.o)
 .note.NaCl.ABI.x86-32
                0x0000000000000000       0x1c /Users/jkwang/Desktop/nacl_sdk/pepper_canary/toolchain/mac_pnacl/bin/../x86_64-nacl/lib32/libcrt_common.a(lib_a-memchr.o)
 .group         0x0000000000000000        0x8 /Users/jkwang/Desktop/nacl_sdk/pepper_canary/toolchain/mac_pnacl/bin/../x86_64-nacl/lib32/libcrt_common.a(lib_a-memmove.o)
 .note.NaCl.ABI.x86-32
                0x0000000000000000       0x1c /Users/jkwang/Desktop/nacl_sdk/pepper_canary/toolchain/mac_pnacl/bin/../x86_64-nacl/lib32/libcrt_common.a(lib_a-memmove.o)
 .group         0x0000000000000000        0x8 /Users/jkwang/Desktop/nacl_sdk/pepper_canary/toolchain/mac_pnacl/bin/../x86_64-nacl/lib32/libcrt_common.a(lib_a-mprec.o)
 .note.NaCl.ABI.x86-32
                0x0000000000000000       0x1c /Users/jkwang/Desktop/nacl_sdk/pepper_canary/toolchain/mac_pnacl/bin/../x86_64-nacl/lib32/libcrt_common.a(lib_a-mprec.o)
 .note.GNU-stack
                0x0000000000000000        0x0 /Users/jkwang/Desktop/nacl_sdk/pepper_canary/toolchain/mac_pnacl/bin/../x86_64-nacl/lib32/libcrt_common.a(lib_a-mprec.o)
 .group         0x0000000000000000        0x8 /Users/jkwang/Desktop/nacl_sdk/pepper_canary/toolchain/mac_pnacl/bin/../x86_64-nacl/lib32/libcrt_common.a(lib_a-s_fpclassify.o)
 .note.NaCl.ABI.x86-32
                0x0000000000000000       0x1c /Users/jkwang/Desktop/nacl_sdk/pepper_canary/toolchain/mac_pnacl/bin/../x86_64-nacl/lib32/libcrt_common.a(lib_a-s_fpclassify.o)
 .note.GNU-stack
                0x0000000000000000        0x0 /Users/jkwang/Desktop/nacl_sdk/pepper_canary/toolchain/mac_pnacl/bin/../x86_64-nacl/lib32/libcrt_common.a(lib_a-s_fpclassify.o)
 .group         0x0000000000000000        0x8 /Users/jkwang/Desktop/nacl_sdk/pepper_canary/toolchain/mac_pnacl/bin/../x86_64-nacl/lib32/libcrt_common.a(lib_a-s_frexp.o)
 .note.NaCl.ABI.x86-32
                0x0000000000000000       0x1c /Users/jkwang/Desktop/nacl_sdk/pepper_canary/toolchain/mac_pnacl/bin/../x86_64-nacl/lib32/libcrt_common.a(lib_a-s_frexp.o)
 .note.GNU-stack
                0x0000000000000000        0x0 /Users/jkwang/Desktop/nacl_sdk/pepper_canary/toolchain/mac_pnacl/bin/../x86_64-nacl/lib32/libcrt_common.a(lib_a-s_frexp.o)
 .group         0x0000000000000000        0x8 /Users/jkwang/Desktop/nacl_sdk/pepper_canary/toolchain/mac_pnacl/bin/../x86_64-nacl/lib32/libcrt_common.a(lib_a-strcasecmp.o)
 .note.NaCl.ABI.x86-32
                0x0000000000000000       0x1c /Users/jkwang/Desktop/nacl_sdk/pepper_canary/toolchain/mac_pnacl/bin/../x86_64-nacl/lib32/libcrt_common.a(lib_a-strcasecmp.o)
 .note.GNU-stack
                0x0000000000000000        0x0 /Users/jkwang/Desktop/nacl_sdk/pepper_canary/toolchain/mac_pnacl/bin/../x86_64-nacl/lib32/libcrt_common.a(lib_a-strcasecmp.o)
 .group         0x0000000000000000        0x8 /Users/jkwang/Desktop/nacl_sdk/pepper_canary/toolchain/mac_pnacl/bin/../x86_64-nacl/lib32/libcrt_common.a(lib_a-strchr.o)
 .note.NaCl.ABI.x86-32
                0x0000000000000000       0x1c /Users/jkwang/Desktop/nacl_sdk/pepper_canary/toolchain/mac_pnacl/bin/../x86_64-nacl/lib32/libcrt_common.a(lib_a-strchr.o)
 .group         0x0000000000000000        0x8 /Users/jkwang/Desktop/nacl_sdk/pepper_canary/toolchain/mac_pnacl/bin/../x86_64-nacl/lib32/libcrt_common.a(lib_a-strlcpy.o)
 .note.NaCl.ABI.x86-32
                0x0000000000000000       0x1c /Users/jkwang/Desktop/nacl_sdk/pepper_canary/toolchain/mac_pnacl/bin/../x86_64-nacl/lib32/libcrt_common.a(lib_a-strlcpy.o)
 .note.GNU-stack
                0x0000000000000000        0x0 /Users/jkwang/Desktop/nacl_sdk/pepper_canary/toolchain/mac_pnacl/bin/../x86_64-nacl/lib32/libcrt_common.a(lib_a-strlcpy.o)
 .group         0x0000000000000000        0x8 /Users/jkwang/Desktop/nacl_sdk/pepper_canary/toolchain/mac_pnacl/bin/../x86_64-nacl/lib32/libcrt_common.a(lib_a-strncasecmp.o)
 .note.NaCl.ABI.x86-32
                0x0000000000000000       0x1c /Users/jkwang/Desktop/nacl_sdk/pepper_canary/toolchain/mac_pnacl/bin/../x86_64-nacl/lib32/libcrt_common.a(lib_a-strncasecmp.o)
 .note.GNU-stack
                0x0000000000000000        0x0 /Users/jkwang/Desktop/nacl_sdk/pepper_canary/toolchain/mac_pnacl/bin/../x86_64-nacl/lib32/libcrt_common.a(lib_a-strncasecmp.o)
 .group         0x0000000000000000        0x8 /Users/jkwang/Desktop/nacl_sdk/pepper_canary/toolchain/mac_pnacl/bin/../x86_64-nacl/lib32/libcrt_common.a(lib_a-strncpy.o)
 .note.NaCl.ABI.x86-32
                0x0000000000000000       0x1c /Users/jkwang/Desktop/nacl_sdk/pepper_canary/toolchain/mac_pnacl/bin/../x86_64-nacl/lib32/libcrt_common.a(lib_a-strncpy.o)
 .note.GNU-stack
                0x0000000000000000        0x0 /Users/jkwang/Desktop/nacl_sdk/pepper_canary/toolchain/mac_pnacl/bin/../x86_64-nacl/lib32/libcrt_common.a(lib_a-strncpy.o)
 .group         0x0000000000000000        0x8 /Users/jkwang/Desktop/nacl_sdk/pepper_canary/toolchain/mac_pnacl/bin/../x86_64-nacl/lib32/libcrt_common.a(lib_a-strtol.o)
 .note.NaCl.ABI.x86-32
                0x0000000000000000       0x1c /Users/jkwang/Desktop/nacl_sdk/pepper_canary/toolchain/mac_pnacl/bin/../x86_64-nacl/lib32/libcrt_common.a(lib_a-strtol.o)
 .note.GNU-stack
                0x0000000000000000        0x0 /Users/jkwang/Desktop/nacl_sdk/pepper_canary/toolchain/mac_pnacl/bin/../x86_64-nacl/lib32/libcrt_common.a(lib_a-strtol.o)
 .group         0x0000000000000000        0x8 /Users/jkwang/Desktop/nacl_sdk/pepper_canary/toolchain/mac_pnacl/bin/../x86_64-nacl/lib32/libcrt_common.a(lib_a-svfprintf.o)
 .note.NaCl.ABI.x86-32
                0x0000000000000000       0x1c /Users/jkwang/Desktop/nacl_sdk/pepper_canary/toolchain/mac_pnacl/bin/../x86_64-nacl/lib32/libcrt_common.a(lib_a-svfprintf.o)
 .note.GNU-stack
                0x0000000000000000        0x0 /Users/jkwang/Desktop/nacl_sdk/pepper_canary/toolchain/mac_pnacl/bin/../x86_64-nacl/lib32/libcrt_common.a(lib_a-svfprintf.o)
 .group         0x0000000000000000        0x8 /Users/jkwang/Desktop/nacl_sdk/pepper_canary/toolchain/mac_pnacl/bin/../x86_64-nacl/lib32/libcrt_common.a(lib_a-vfiprintf.o)
 .note.NaCl.ABI.x86-32
                0x0000000000000000       0x1c /Users/jkwang/Desktop/nacl_sdk/pepper_canary/toolchain/mac_pnacl/bin/../x86_64-nacl/lib32/libcrt_common.a(lib_a-vfiprintf.o)
 .note.GNU-stack
                0x0000000000000000        0x0 /Users/jkwang/Desktop/nacl_sdk/pepper_canary/toolchain/mac_pnacl/bin/../x86_64-nacl/lib32/libcrt_common.a(lib_a-vfiprintf.o)
 .group         0x0000000000000000        0x8 /Users/jkwang/Desktop/nacl_sdk/pepper_canary/toolchain/mac_pnacl/bin/../x86_64-nacl/lib32/libcrt_common.a(lib_a-wcsnrtombs.o)
 .note.NaCl.ABI.x86-32
                0x0000000000000000       0x1c /Users/jkwang/Desktop/nacl_sdk/pepper_canary/toolchain/mac_pnacl/bin/../x86_64-nacl/lib32/libcrt_common.a(lib_a-wcsnrtombs.o)
 .note.GNU-stack
                0x0000000000000000        0x0 /Users/jkwang/Desktop/nacl_sdk/pepper_canary/toolchain/mac_pnacl/bin/../x86_64-nacl/lib32/libcrt_common.a(lib_a-wcsnrtombs.o)
 .group         0x0000000000000000        0x8 /Users/jkwang/Desktop/nacl_sdk/pepper_canary/toolchain/mac_pnacl/bin/../x86_64-nacl/lib32/libcrt_common.a(lib_a-ctype_.o)
 .note.NaCl.ABI.x86-32
                0x0000000000000000       0x1c /Users/jkwang/Desktop/nacl_sdk/pepper_canary/toolchain/mac_pnacl/bin/../x86_64-nacl/lib32/libcrt_common.a(lib_a-ctype_.o)
 .note.GNU-stack
                0x0000000000000000        0x0 /Users/jkwang/Desktop/nacl_sdk/pepper_canary/toolchain/mac_pnacl/bin/../x86_64-nacl/lib32/libcrt_common.a(lib_a-ctype_.o)
 .group         0x0000000000000000        0x8 /Users/jkwang/Desktop/nacl_sdk/pepper_canary/toolchain/mac_pnacl/bin/../x86_64-nacl/lib32/libcrt_common.a(lib_a-fputwc.o)
 .note.NaCl.ABI.x86-32
                0x0000000000000000       0x1c /Users/jkwang/Desktop/nacl_sdk/pepper_canary/toolchain/mac_pnacl/bin/../x86_64-nacl/lib32/libcrt_common.a(lib_a-fputwc.o)
 .note.GNU-stack
                0x0000000000000000        0x0 /Users/jkwang/Desktop/nacl_sdk/pepper_canary/toolchain/mac_pnacl/bin/../x86_64-nacl/lib32/libcrt_common.a(lib_a-fputwc.o)
 .group         0x0000000000000000        0x8 /Users/jkwang/Desktop/nacl_sdk/pepper_canary/toolchain/mac_pnacl/bin/../x86_64-nacl/lib32/libcrt_common.a(lib_a-svfiprintf.o)
 .note.NaCl.ABI.x86-32
                0x0000000000000000       0x1c /Users/jkwang/Desktop/nacl_sdk/pepper_canary/toolchain/mac_pnacl/bin/../x86_64-nacl/lib32/libcrt_common.a(lib_a-svfiprintf.o)
 .note.GNU-stack
                0x0000000000000000        0x0 /Users/jkwang/Desktop/nacl_sdk/pepper_canary/toolchain/mac_pnacl/bin/../x86_64-nacl/lib32/libcrt_common.a(lib_a-svfiprintf.o)
 .group         0x0000000000000000        0x8 /Users/jkwang/Desktop/nacl_sdk/pepper_canary/toolchain/mac_pnacl/bin/../x86_64-nacl/lib32/libcrt_common.a(lib_a-wbuf.o)
 .note.NaCl.ABI.x86-32
                0x0000000000000000       0x1c /Users/jkwang/Desktop/nacl_sdk/pepper_canary/toolchain/mac_pnacl/bin/../x86_64-nacl/lib32/libcrt_common.a(lib_a-wbuf.o)
 .note.GNU-stack
                0x0000000000000000        0x0 /Users/jkwang/Desktop/nacl_sdk/pepper_canary/toolchain/mac_pnacl/bin/../x86_64-nacl/lib32/libcrt_common.a(lib_a-wbuf.o)
 .group         0x0000000000000000        0x8 /Users/jkwang/Desktop/nacl_sdk/pepper_canary/toolchain/mac_pnacl/bin/../x86_64-nacl/lib32/libnacl.a(close.o)
 .note.NaCl.ABI.x86-32
                0x0000000000000000       0x1c /Users/jkwang/Desktop/nacl_sdk/pepper_canary/toolchain/mac_pnacl/bin/../x86_64-nacl/lib32/libnacl.a(close.o)
 .note.GNU-stack
                0x0000000000000000        0x0 /Users/jkwang/Desktop/nacl_sdk/pepper_canary/toolchain/mac_pnacl/bin/../x86_64-nacl/lib32/libnacl.a(close.o)
 .group         0x0000000000000000        0x8 /Users/jkwang/Desktop/nacl_sdk/pepper_canary/toolchain/mac_pnacl/bin/../x86_64-nacl/lib32/libnacl.a(fstat.o)
 .note.NaCl.ABI.x86-32
                0x0000000000000000       0x1c /Users/jkwang/Desktop/nacl_sdk/pepper_canary/toolchain/mac_pnacl/bin/../x86_64-nacl/lib32/libnacl.a(fstat.o)
 .note.GNU-stack
                0x0000000000000000        0x0 /Users/jkwang/Desktop/nacl_sdk/pepper_canary/toolchain/mac_pnacl/bin/../x86_64-nacl/lib32/libnacl.a(fstat.o)
 .group         0x0000000000000000        0x8 /Users/jkwang/Desktop/nacl_sdk/pepper_canary/toolchain/mac_pnacl/bin/../x86_64-nacl/lib32/libnacl.a(isatty.o)
 .note.NaCl.ABI.x86-32
                0x0000000000000000       0x1c /Users/jkwang/Desktop/nacl_sdk/pepper_canary/toolchain/mac_pnacl/bin/../x86_64-nacl/lib32/libnacl.a(isatty.o)
 .note.GNU-stack
                0x0000000000000000        0x0 /Users/jkwang/Desktop/nacl_sdk/pepper_canary/toolchain/mac_pnacl/bin/../x86_64-nacl/lib32/libnacl.a(isatty.o)
 .group         0x0000000000000000        0x8 /Users/jkwang/Desktop/nacl_sdk/pepper_canary/toolchain/mac_pnacl/bin/../x86_64-nacl/lib32/libnacl.a(lseek.o)
 .note.NaCl.ABI.x86-32
                0x0000000000000000       0x1c /Users/jkwang/Desktop/nacl_sdk/pepper_canary/toolchain/mac_pnacl/bin/../x86_64-nacl/lib32/libnacl.a(lseek.o)
 .note.GNU-stack
                0x0000000000000000        0x0 /Users/jkwang/Desktop/nacl_sdk/pepper_canary/toolchain/mac_pnacl/bin/../x86_64-nacl/lib32/libnacl.a(lseek.o)
 .group         0x0000000000000000        0x8 /Users/jkwang/Desktop/nacl_sdk/pepper_canary/toolchain/mac_pnacl/bin/../x86_64-nacl/lib32/libnacl.a(nanosleep.o)
 .note.NaCl.ABI.x86-32
                0x0000000000000000       0x1c /Users/jkwang/Desktop/nacl_sdk/pepper_canary/toolchain/mac_pnacl/bin/../x86_64-nacl/lib32/libnacl.a(nanosleep.o)
 .note.GNU-stack
                0x0000000000000000        0x0 /Users/jkwang/Desktop/nacl_sdk/pepper_canary/toolchain/mac_pnacl/bin/../x86_64-nacl/lib32/libnacl.a(nanosleep.o)
 .group         0x0000000000000000        0x8 /Users/jkwang/Desktop/nacl_sdk/pepper_canary/toolchain/mac_pnacl/bin/../x86_64-nacl/lib32/libnacl.a(nacl_irt_fdio.o)
 .note.NaCl.ABI.x86-32
                0x0000000000000000       0x1c /Users/jkwang/Desktop/nacl_sdk/pepper_canary/toolchain/mac_pnacl/bin/../x86_64-nacl/lib32/libnacl.a(nacl_irt_fdio.o)
 .note.GNU-stack
                0x0000000000000000        0x0 /Users/jkwang/Desktop/nacl_sdk/pepper_canary/toolchain/mac_pnacl/bin/../x86_64-nacl/lib32/libnacl.a(nacl_irt_fdio.o)
 .group         0x0000000000000000        0x8 /Users/jkwang/Desktop/nacl_sdk/pepper_canary/toolchain/mac_pnacl/bin/../x86_64-nacl/lib32/libnacl.a(read.o)
 .note.NaCl.ABI.x86-32
                0x0000000000000000       0x1c /Users/jkwang/Desktop/nacl_sdk/pepper_canary/toolchain/mac_pnacl/bin/../x86_64-nacl/lib32/libnacl.a(read.o)
 .note.GNU-stack
                0x0000000000000000        0x0 /Users/jkwang/Desktop/nacl_sdk/pepper_canary/toolchain/mac_pnacl/bin/../x86_64-nacl/lib32/libnacl.a(read.o)
 .group         0x0000000000000000        0x8 /Users/jkwang/Desktop/nacl_sdk/pepper_canary/toolchain/mac_pnacl/bin/../lib/clang/3.7.0/lib/i686-nacl/libgcc.a(udivdi3.o)
 .note.NaCl.ABI.x86-32
                0x0000000000000000       0x1c /Users/jkwang/Desktop/nacl_sdk/pepper_canary/toolchain/mac_pnacl/bin/../lib/clang/3.7.0/lib/i686-nacl/libgcc.a(udivdi3.o)
 .note.GNU-stack
                0x0000000000000000        0x0 /Users/jkwang/Desktop/nacl_sdk/pepper_canary/toolchain/mac_pnacl/bin/../lib/clang/3.7.0/lib/i686-nacl/libgcc.a(udivdi3.o)
 .group         0x0000000000000000        0x8 /Users/jkwang/Desktop/nacl_sdk/pepper_canary/toolchain/mac_pnacl/bin/../lib/clang/3.7.0/lib/i686-nacl/libgcc.a(udivmoddi4.o)
 .note.NaCl.ABI.x86-32
                0x0000000000000000       0x1c /Users/jkwang/Desktop/nacl_sdk/pepper_canary/toolchain/mac_pnacl/bin/../lib/clang/3.7.0/lib/i686-nacl/libgcc.a(udivmoddi4.o)
 .note.GNU-stack
                0x0000000000000000        0x0 /Users/jkwang/Desktop/nacl_sdk/pepper_canary/toolchain/mac_pnacl/bin/../lib/clang/3.7.0/lib/i686-nacl/libgcc.a(udivmoddi4.o)
 .group         0x0000000000000000        0x8 /Users/jkwang/Desktop/nacl_sdk/pepper_canary/toolchain/mac_pnacl/bin/../lib/clang/3.7.0/lib/i686-nacl/libgcc.a(umoddi3.o)
 .note.NaCl.ABI.x86-32
                0x0000000000000000       0x1c /Users/jkwang/Desktop/nacl_sdk/pepper_canary/toolchain/mac_pnacl/bin/../lib/clang/3.7.0/lib/i686-nacl/libgcc.a(umoddi3.o)
 .note.GNU-stack
                0x0000000000000000        0x0 /Users/jkwang/Desktop/nacl_sdk/pepper_canary/toolchain/mac_pnacl/bin/../lib/clang/3.7.0/lib/i686-nacl/libgcc.a(umoddi3.o)
 .note.GNU-stack
                0x0000000000000000        0x0 /Users/jkwang/Desktop/nacl_sdk/pepper_canary/toolchain/mac_pnacl/bin/../lib/clang/3.7.0/lib/i686-nacl/libgcc_eh.a(unwind-dw2-fde-glibc.o)
 .group         0x0000000000000000        0x8 /Users/jkwang/Desktop/nacl_sdk/pepper_canary/toolchain/mac_pnacl/bin/../lib/clang/3.7.0/lib/i686-nacl/crtend.o
 .note.NaCl.ABI.x86-32
                0x0000000000000000       0x1c /Users/jkwang/Desktop/nacl_sdk/pepper_canary/toolchain/mac_pnacl/bin/../lib/clang/3.7.0/lib/i686-nacl/crtend.o
 .note.GNU-stack
                0x0000000000000000        0x0 /Users/jkwang/Desktop/nacl_sdk/pepper_canary/toolchain/mac_pnacl/bin/../lib/clang/3.7.0/lib/i686-nacl/crtend.o

Memory Configuration

Name             Origin             Length             Attributes
*default*        0x0000000000000000 0xffffffffffffffff

Linker script and memory map

LOAD /Users/jkwang/Desktop/nacl_sdk/pepper_canary/toolchain/mac_pnacl/bin/../x86_64-nacl/lib32/crt1.o
LOAD /Users/jkwang/Desktop/nacl_sdk/pepper_canary/toolchain/mac_pnacl/bin/../x86_64-nacl/lib32/crti.o
LOAD /Users/jkwang/Desktop/nacl_sdk/pepper_canary/toolchain/mac_pnacl/bin/../lib/clang/3.7.0/lib/i686-nacl/crtbeginT.o
LOAD clang-newlib/Release/debugging_x86_32.o
LOAD /Users/jkwang/Desktop/nacl_sdk/pepper_canary/lib/clang-newlib_x86_32/Release/liberror_handling.a
LOAD /Users/jkwang/Desktop/nacl_sdk/pepper_canary/toolchain/mac_pnacl/bin/../x86_64-nacl/lib32/libppapi.a
LOAD /Users/jkwang/Desktop/nacl_sdk/pepper_canary/toolchain/mac_pnacl/bin/../x86_64-nacl/lib32/libppapi_stub.a
LOAD /Users/jkwang/Desktop/nacl_sdk/pepper_canary/toolchain/mac_pnacl/bin/../x86_64-nacl/lib32/libpthread.a
LOAD /Users/jkwang/Desktop/nacl_sdk/pepper_canary/toolchain/mac_pnacl/bin/../x86_64-nacl/lib32/libc++.a
LOAD /Users/jkwang/Desktop/nacl_sdk/pepper_canary/toolchain/mac_pnacl/bin/../x86_64-nacl/lib32/libm.a
START GROUP
LOAD /Users/jkwang/Desktop/nacl_sdk/pepper_canary/toolchain/mac_pnacl/bin/../x86_64-nacl/lib32/libc.a
START GROUP
LOAD /Users/jkwang/Desktop/nacl_sdk/pepper_canary/toolchain/mac_pnacl/bin/../x86_64-nacl/lib32/libnacl.a
LOAD /Users/jkwang/Desktop/nacl_sdk/pepper_canary/toolchain/mac_pnacl/bin/../x86_64-nacl/lib32/libcrt_common.a
END GROUP
LOAD /Users/jkwang/Desktop/nacl_sdk/pepper_canary/toolchain/mac_pnacl/bin/../x86_64-nacl/lib32/libpthread.a
LOAD /Users/jkwang/Desktop/nacl_sdk/pepper_canary/toolchain/mac_pnacl/bin/../lib/clang/3.7.0/lib/i686-nacl/libgcc.a
LOAD /Users/jkwang/Desktop/nacl_sdk/pepper_canary/toolchain/mac_pnacl/bin/../lib/clang/3.7.0/lib/i686-nacl/libgcc_eh.a
END GROUP
LOAD /Users/jkwang/Desktop/nacl_sdk/pepper_canary/toolchain/mac_pnacl/bin/../lib/clang/3.7.0/lib/i686-nacl/crtend.o
LOAD /Users/jkwang/Desktop/nacl_sdk/pepper_canary/toolchain/mac_pnacl/bin/../x86_64-nacl/lib32/crtn.o
                0x0000000000020000                PROVIDE (__executable_start, 0x20000)
                0x0000000000020000                . = 0x20000

.init
 *(SORT(.init))

.plt            0x0000000000020000        0x0
 *(.plt)
 *(.iplt)
 .iplt          0x0000000000000000        0x0 /Users/jkwang/Desktop/nacl_sdk/pepper_canary/toolchain/mac_pnacl/bin/../lib/clang/3.7.0/lib/i686-nacl/crtbeginT.o

.text           0x0000000000020000    0x205c0
 *(.text.unlikely .text.*_unlikely .text.unlikely.*)
 *(.text.exit .text.exit.*)
 .text.exit     0x0000000000020000       0x60 /Users/jkwang/Desktop/nacl_sdk/pepper_canary/toolchain/mac_pnacl/bin/../x86_64-nacl/lib32/libcrt_common.a(lib_a-exit.o)
                0x0000000000020000                exit
 *(.text.startup .text.startup.*)
 *(.text.hot .text.hot.*)
 *(.text .stub .text.* .gnu.linkonce.t.*)
 .text          0x0000000000020060       0x40 /Users/jkwang/Desktop/nacl_sdk/pepper_canary/toolchain/mac_pnacl/bin/../x86_64-nacl/lib32/crti.o
                0x0000000000020060                _init
                0x0000000000020080                _fini
 .text          0x00000000000200a0       0x80 /Users/jkwang/Desktop/nacl_sdk/pepper_canary/toolchain/mac_pnacl/bin/../lib/clang/3.7.0/lib/i686-nacl/crtbeginT.o
 .text          0x0000000000020120      0x640 clang-newlib/Release/debugging_x86_32.o
                0x0000000000020120                layer5
                0x0000000000020140                layer4
                0x0000000000020160                layer3
                0x00000000000201a0                layer2
                0x00000000000201e0                layer1
                0x0000000000020220                NexeMain
                0x0000000000020280                PostMessage
                0x00000000000203e0                DumpJson
                0x00000000000204a0                PPP_InitializeModule
                0x0000000000020520                PPP_GetInterface
                0x0000000000020740                PPP_ShutdownModule
 .text          0x0000000000020760      0x880 /Users/jkwang/Desktop/nacl_sdk/pepper_canary/lib/clang-newlib_x86_32/Release/liberror_handling.a(error_handling_x86_32.o)
                0x0000000000020760                EHGetTopFrame
                0x00000000000207a0                EHUnwindFrame
                0x0000000000020800                EHDefaultJsonHandler
                0x0000000000020ba0                EHRequestExceptionsRaw
                0x0000000000020da0                EHRequestExceptionStackOnThread
                0x0000000000020f80                EHRequestExceptionsJson
                0x0000000000020fc0                EHHanderInstalled
 .text          0x0000000000020fe0      0x1c0 /Users/jkwang/Desktop/nacl_sdk/pepper_canary/lib/clang-newlib_x86_32/Release/liberror_handling.a(string_stream_x86_32.o)
                0x0000000000020fe0                ssinit
                0x0000000000021000                ssfree
                0x0000000000021040                ssvprintf
                0x0000000000021140                ssprintf
 .text          0x00000000000211a0        0x0 /Users/jkwang/Desktop/nacl_sdk/pepper_canary/toolchain/mac_pnacl/bin/../x86_64-nacl/lib32/libppapi_stub.a(plugin_main_irt.o)
 .text.main     0x00000000000211a0       0x40 /Users/jkwang/Desktop/nacl_sdk/pepper_canary/toolchain/mac_pnacl/bin/../x86_64-nacl/lib32/libppapi_stub.a(plugin_main_irt.o)
                0x00000000000211a0                main
 .text          0x00000000000211e0        0x0 /Users/jkwang/Desktop/nacl_sdk/pepper_canary/toolchain/mac_pnacl/bin/../x86_64-nacl/lib32/libppapi_stub.a(ppapi_plugin_main.o)
 .text.PpapiPluginMain
                0x00000000000211e0       0x60 /Users/jkwang/Desktop/nacl_sdk/pepper_canary/toolchain/mac_pnacl/bin/../x86_64-nacl/lib32/libppapi_stub.a(ppapi_plugin_main.o)
                0x00000000000211e0                PpapiPluginMain
 .text          0x0000000000021240        0x0 /Users/jkwang/Desktop/nacl_sdk/pepper_canary/toolchain/mac_pnacl/bin/../x86_64-nacl/lib32/libppapi_stub.a(ppapi_plugin_start.o)
 .text.PpapiPluginStart
                0x0000000000021240      0x120 /Users/jkwang/Desktop/nacl_sdk/pepper_canary/toolchain/mac_pnacl/bin/../x86_64-nacl/lib32/libppapi_stub.a(ppapi_plugin_start.o)
                0x0000000000021240                PpapiPluginStart
 .text.fatal_error
                0x0000000000021360       0x80 /Users/jkwang/Desktop/nacl_sdk/pepper_canary/toolchain/mac_pnacl/bin/../x86_64-nacl/lib32/libppapi_stub.a(ppapi_plugin_start.o)
 .text          0x00000000000213e0        0x0 /Users/jkwang/Desktop/nacl_sdk/pepper_canary/toolchain/mac_pnacl/bin/../x86_64-nacl/lib32/libppapi_stub.a(thread_creator.o)
 .text.__nacl_register_thread_creator
                0x00000000000213e0       0x60 /Users/jkwang/Desktop/nacl_sdk/pepper_canary/toolchain/mac_pnacl/bin/../x86_64-nacl/lib32/libppapi_stub.a(thread_creator.o)
                0x00000000000213e0                __nacl_register_thread_creator
 .text.thread_create
                0x0000000000021440       0x80 /Users/jkwang/Desktop/nacl_sdk/pepper_canary/toolchain/mac_pnacl/bin/../x86_64-nacl/lib32/libppapi_stub.a(thread_creator.o)
 .text.thread_join
                0x00000000000214c0       0x60 /Users/jkwang/Desktop/nacl_sdk/pepper_canary/toolchain/mac_pnacl/bin/../x86_64-nacl/lib32/libppapi_stub.a(thread_creator.o)
 .text          0x0000000000021520     0x1600 /Users/jkwang/Desktop/nacl_sdk/pepper_canary/toolchain/mac_pnacl/bin/../x86_64-nacl/lib32/libpthread.a(nc_thread.o)
                0x0000000000021520                __nc_initialize_globals
                0x00000000000215a0                __nc_initialize_unjoinable_thread
                0x0000000000021640                __pthread_initialize
                0x0000000000021780                pthread_create
                0x0000000000021d20                pthread_cleanup_push
                0x0000000000021d80                pthread_cleanup_pop
                0x0000000000021e00                pthread_exit
                0x00000000000221e0                __nc_tsd_exit
                0x00000000000222c0                pthread_join
                0x0000000000022400                pthread_self
                0x0000000000022440                pthread_detach
                0x0000000000022500                pthread_kill
                0x0000000000022520                pthread_equal
                0x0000000000022540                pthread_setschedprio
                0x00000000000225c0                pthread_attr_init
                0x0000000000022600                pthread_attr_destroy
                0x0000000000022620                pthread_attr_setdetachstate
                0x0000000000022640                pthread_attr_getdetachstate
                0x0000000000022660                pthread_attr_setscope
                0x00000000000226a0                pthread_attr_getscope
                0x00000000000226c0                pthread_attr_setstacksize
                0x0000000000022700                pthread_attr_getstacksize
                0x0000000000022720                __local_lock_init
                0x00000000000227a0                __local_lock_init_recursive
                0x0000000000022820                __local_lock_close
                0x0000000000022840                __local_lock_close_recursive
                0x0000000000022860                __local_lock_acquire
                0x0000000000022880                __local_lock_acquire_recursive
                0x00000000000228a0                __local_lock_try_acquire
                0x00000000000228e0                __local_lock_try_acquire_recursive
                0x0000000000022920                __local_lock_release
                0x0000000000022940                __local_lock_release_recursive
                0x0000000000022960                pthread_key_create
                0x00000000000229e0                pthread_key_delete
                0x0000000000022a40                pthread_setspecific
                0x0000000000022ae0                pthread_getspecific
 .text          0x0000000000022b20      0x660 /Users/jkwang/Desktop/nacl_sdk/pepper_canary/toolchain/mac_pnacl/bin/../x86_64-nacl/lib32/libpthread.a(nc_mutex.o)
                0x0000000000022b20                pthread_mutex_init
                0x0000000000022b60                pthread_mutex_destroy
                0x0000000000022ba0                pthread_mutex_trylock
                0x0000000000022c20                pthread_mutex_lock
                0x0000000000022d40                pthread_mutex_timedlock
                0x0000000000022f00                pthread_mutex_unlock
                0x0000000000022fe0                pthread_once
                0x00000000000230c0                pthread_mutexattr_init
                0x00000000000230e0                pthread_mutexattr_destroy
                0x0000000000023100                pthread_mutexattr_settype
                0x0000000000023120                pthread_mutexattr_gettype
                0x0000000000023140                pthread_mutexattr_setpshared
                0x0000000000023160                pthread_mutexattr_getpshared
 .text          0x0000000000023180      0x2c0 /Users/jkwang/Desktop/nacl_sdk/pepper_canary/toolchain/mac_pnacl/bin/../x86_64-nacl/lib32/libpthread.a(nc_condvar.o)
                0x0000000000023180                pthread_cond_init
                0x00000000000231a0                pthread_cond_destroy
                0x00000000000231c0                pthread_cond_signal
                0x0000000000023220                pthread_cond_broadcast
                0x0000000000023280                pthread_cond_wait
                0x0000000000023300                pthread_cond_timedwait_abs
                0x0000000000023380                pthread_condattr_init
                0x00000000000233a0                pthread_condattr_destroy
                0x00000000000233c0                pthread_condattr_getpshared
                0x00000000000233e0                pthread_condattr_setpshared
                0x0000000000023400                pthread_condattr_getclock
                0x0000000000023420                pthread_condattr_setclock
 .text          0x0000000000023440      0x500 /Users/jkwang/Desktop/nacl_sdk/pepper_canary/toolchain/mac_pnacl/bin/../x86_64-nacl/lib32/libpthread.a(valgrind_annotations.o)
                0x0000000000023440                NACL_AnnotateRWLockCreate
                0x0000000000023460                NACL_AnnotateRWLockDestroy
                0x0000000000023480                NACL_AnnotateRWLockAcquired
                0x00000000000234a0                NACL_AnnotateRWLockReleased
                0x00000000000234c0                NACL_AnnotateBarrierInit
                0x00000000000234e0                NACL_AnnotateBarrierWaitBefore
                0x0000000000023500                NACL_AnnotateBarrierWaitAfter
                0x0000000000023520                NACL_AnnotateBarrierDestroy
                0x0000000000023540                NACL_AnnotateCondVarWait
                0x0000000000023560                NACL_AnnotateCondVarSignal
                0x0000000000023580                NACL_AnnotateCondVarSignalAll
                0x00000000000235a0                NACL_AnnotateHappensBefore
                0x00000000000235c0                NACL_AnnotateHappensAfter
                0x00000000000235e0                NACL_AnnotatePublishMemoryRange
                0x0000000000023600                NACL_AnnotateUnpublishMemoryRange
                0x0000000000023620                NACL_AnnotatePCQCreate
                0x0000000000023640                NACL_AnnotatePCQDestroy
                0x0000000000023660                NACL_AnnotatePCQPut
                0x0000000000023680                NACL_AnnotatePCQGet
                0x00000000000236a0                NACL_AnnotateNewMemory
                0x00000000000236c0                NACL_AnnotateExpectRace
                0x00000000000236e0                NACL_AnnotateFlushExpectedRaces
                0x0000000000023700                NACL_AnnotateBenignRace
                0x0000000000023720                NACL_AnnotateBenignRaceSized
                0x0000000000023740                NACL_AnnotateMutexIsUsedAsCondVar
                0x0000000000023760                NACL_AnnotateMutexIsNotPHB
                0x0000000000023780                NACL_AnnotateTraceMemory
                0x00000000000237a0                NACL_AnnotateThreadName
                0x00000000000237c0                NACL_AnnotateIgnoreReadsBegin
                0x00000000000237e0                NACL_AnnotateIgnoreReadsEnd
                0x0000000000023800                NACL_AnnotateIgnoreWritesBegin
                0x0000000000023820                NACL_AnnotateIgnoreWritesEnd
                0x0000000000023840                NACL_AnnotateIgnoreSyncBegin
                0x0000000000023860                NACL_AnnotateIgnoreSyncEnd
                0x0000000000023880                NACL_AnnotateEnableRaceDetection
                0x00000000000238a0                NACL_AnnotateNoOp
                0x00000000000238c0                NACL_AnnotateFlushState
                0x00000000000238e0                RunningOnValgrind
 .text          0x0000000000023940       0x60 /Users/jkwang/Desktop/nacl_sdk/pepper_canary/toolchain/mac_pnacl/bin/../x86_64-nacl/lib32/libpthread.a(nc_init_irt.o)
                0x0000000000023940                __nc_initialize_interfaces
 .text          0x00000000000239a0      0x2c0 /Users/jkwang/Desktop/nacl_sdk/pepper_canary/toolchain/mac_pnacl/bin/../x86_64-nacl/lib32/libnacl.a(nacl_irt.o)
                0x0000000000023aa0                __libnacl_irt_query
                0x0000000000023b80                __libnacl_mandatory_irt_query
                0x0000000000023c00                __libnacl_irt_init_fn
 .text          0x0000000000023c60       0x40 /Users/jkwang/Desktop/nacl_sdk/pepper_canary/toolchain/mac_pnacl/bin/../x86_64-nacl/lib32/libnacl.a(_exit.o)
                0x0000000000023c60                _exit
 .text          0x0000000000023ca0       0xa0 /Users/jkwang/Desktop/nacl_sdk/pepper_canary/toolchain/mac_pnacl/bin/../x86_64-nacl/lib32/libnacl.a(mmap.o)
                0x0000000000023ca0                mmap
 .text          0x0000000000023d40       0x60 /Users/jkwang/Desktop/nacl_sdk/pepper_canary/toolchain/mac_pnacl/bin/../x86_64-nacl/lib32/libnacl.a(munmap.o)
                0x0000000000023d40                munmap
 .text          0x0000000000023da0       0x20 /Users/jkwang/Desktop/nacl_sdk/pepper_canary/toolchain/mac_pnacl/bin/../x86_64-nacl/lib32/libnacl.a(nacl_interface_query.o)
                0x0000000000023da0                nacl_interface_query
 .text          0x0000000000023dc0       0x80 /Users/jkwang/Desktop/nacl_sdk/pepper_canary/toolchain/mac_pnacl/bin/../x86_64-nacl/lib32/libnacl.a(write.o)
                0x0000000000023dc0                write
 .text          0x0000000000023e40        0x0 /Users/jkwang/Desktop/nacl_sdk/pepper_canary/toolchain/mac_pnacl/bin/../x86_64-nacl/lib32/libnacl.a(environ.o)
 .text          0x0000000000023e40     0x5100 /Users/jkwang/Desktop/nacl_sdk/pepper_canary/toolchain/mac_pnacl/bin/../x86_64-nacl/lib32/libnacl.a(malloc.o)
                0x0000000000023e40                malloc
                0x0000000000025880                free
                0x0000000000026880                calloc
                0x0000000000026900                realloc
                0x0000000000026f00                realloc_in_place
                0x0000000000027000                memalign
                0x0000000000027260                posix_memalign
                0x0000000000027300                valloc
                0x0000000000027460                pvalloc
                0x00000000000275c0                independent_calloc
                0x0000000000027a60                independent_comalloc
                0x0000000000027aa0                bulk_free
                0x0000000000027c20                malloc_trim
                0x0000000000027de0                malloc_footprint
                0x0000000000027e00                malloc_max_footprint
                0x0000000000027e20                malloc_footprint_limit
                0x0000000000027e40                malloc_set_footprint_limit
                0x0000000000027e80                mallinfo
                0x0000000000028140                malloc_stats
                0x0000000000028400                mallopt
                0x0000000000028560                malloc_usable_size
                0x00000000000285a0                _malloc_r
                0x00000000000285e0                _calloc_r
                0x0000000000028660                _realloc_r
                0x00000000000286a0                _free_r
 .text          0x0000000000028f40      0x100 /Users/jkwang/Desktop/nacl_sdk/pepper_canary/toolchain/mac_pnacl/bin/../x86_64-nacl/lib32/libnacl.a(start.o)
                0x0000000000028f40                _start
 .text          0x0000000000029040       0x20 /Users/jkwang/Desktop/nacl_sdk/pepper_canary/toolchain/mac_pnacl/bin/../x86_64-nacl/lib32/libnacl.a(nacl_read_tp.o)
                0x0000000000029040                __nacl_read_tp
 .text          0x0000000000029060       0xe0 /Users/jkwang/Desktop/nacl_sdk/pepper_canary/toolchain/mac_pnacl/bin/../x86_64-nacl/lib32/libnacl.a(pthread_initialize_minimal.o)
                0x0000000000029060                __pthread_initialize_minimal
 .text          0x0000000000029140      0x2a0 /Users/jkwang/Desktop/nacl_sdk/pepper_canary/toolchain/mac_pnacl/bin/../x86_64-nacl/lib32/libnacl.a(tls.o)
                0x0000000000029140                __nacl_tls_initialize_memory
                0x0000000000029380                __nacl_tls_combined_size
 .text          0x00000000000293e0      0x180 /Users/jkwang/Desktop/nacl_sdk/pepper_canary/toolchain/mac_pnacl/bin/../x86_64-nacl/lib32/libnacl.a(nacl_irt_init.o)
                0x00000000000293e0                __libnacl_irt_init
 .text          0x0000000000029560       0x20 /Users/jkwang/Desktop/nacl_sdk/pepper_canary/toolchain/mac_pnacl/bin/../x86_64-nacl/lib32/libnacl.a(nacl_tls_get.o)
                0x0000000000029560                nacl_tls_get
 .text          0x0000000000029580       0x20 /Users/jkwang/Desktop/nacl_sdk/pepper_canary/toolchain/mac_pnacl/bin/../x86_64-nacl/lib32/libnacl.a(nacl_tls_init.o)
                0x0000000000029580                nacl_tls_init
 .text          0x00000000000295a0       0x40 /Users/jkwang/Desktop/nacl_sdk/pepper_canary/toolchain/mac_pnacl/bin/../x86_64-nacl/lib32/libnacl.a(abort.o)
                0x00000000000295a0                abort
 .text          0x00000000000295e0       0x60 /Users/jkwang/Desktop/nacl_sdk/pepper_canary/toolchain/mac_pnacl/bin/../x86_64-nacl/lib32/libnacl.a(sched_yield.o)
                0x00000000000295e0                sched_yield
 .text          0x0000000000029640       0x60 /Users/jkwang/Desktop/nacl_sdk/pepper_canary/toolchain/mac_pnacl/bin/../x86_64-nacl/lib32/libnacl.a(sysconf.o)
                0x0000000000029640                sysconf
 .text          0x00000000000296a0        0x0 /Users/jkwang/Desktop/nacl_sdk/pepper_canary/toolchain/mac_pnacl/bin/../x86_64-nacl/lib32/libcrt_common.a(lib_a-atexit.o)
 .text.atexit   0x00000000000296a0       0x60 /Users/jkwang/Desktop/nacl_sdk/pepper_canary/toolchain/mac_pnacl/bin/../x86_64-nacl/lib32/libcrt_common.a(lib_a-atexit.o)
                0x00000000000296a0                atexit
 .text          0x0000000000029700        0x0 /Users/jkwang/Desktop/nacl_sdk/pepper_canary/toolchain/mac_pnacl/bin/../x86_64-nacl/lib32/libcrt_common.a(lib_a-errno.o)
 .text.__errno  0x0000000000029700       0x20 /Users/jkwang/Desktop/nacl_sdk/pepper_canary/toolchain/mac_pnacl/bin/../x86_64-nacl/lib32/libcrt_common.a(lib_a-errno.o)
                0x0000000000029700                __errno
 .text          0x0000000000029720        0x0 /Users/jkwang/Desktop/nacl_sdk/pepper_canary/toolchain/mac_pnacl/bin/../x86_64-nacl/lib32/libcrt_common.a(lib_a-exit.o)
 .text          0x0000000000029720        0x0 /Users/jkwang/Desktop/nacl_sdk/pepper_canary/toolchain/mac_pnacl/bin/../x86_64-nacl/lib32/libcrt_common.a(lib_a-fflush.o)
 .text.__sflush_r
                0x0000000000029720      0x240 /Users/jkwang/Desktop/nacl_sdk/pepper_canary/toolchain/mac_pnacl/bin/../x86_64-nacl/lib32/libcrt_common.a(lib_a-fflush.o)
                0x0000000000029720                __sflush_r
 .text._fflush_r
                0x0000000000029960       0xc0 /Users/jkwang/Desktop/nacl_sdk/pepper_canary/toolchain/mac_pnacl/bin/../x86_64-nacl/lib32/libcrt_common.a(lib_a-fflush.o)
                0x0000000000029960                _fflush_r
 .text.fflush   0x0000000000029a20       0xe0 /Users/jkwang/Desktop/nacl_sdk/pepper_canary/toolchain/mac_pnacl/bin/../x86_64-nacl/lib32/libcrt_common.a(lib_a-fflush.o)
                0x0000000000029a20                fflush
 .text          0x0000000000029b00        0x0 /Users/jkwang/Desktop/nacl_sdk/pepper_canary/toolchain/mac_pnacl/bin/../x86_64-nacl/lib32/libcrt_common.a(lib_a-findfp.o)
 .text.__sfmoreglue
                0x0000000000029b00       0xa0 /Users/jkwang/Desktop/nacl_sdk/pepper_canary/toolchain/mac_pnacl/bin/../x86_64-nacl/lib32/libcrt_common.a(lib_a-findfp.o)
                0x0000000000029b00                __sfmoreglue
 .text.__sfp    0x0000000000029ba0      0x220 /Users/jkwang/Desktop/nacl_sdk/pepper_canary/toolchain/mac_pnacl/bin/../x86_64-nacl/lib32/libcrt_common.a(lib_a-findfp.o)
                0x0000000000029ba0                __sfp
 .text.__sinit  0x0000000000029dc0      0x300 /Users/jkwang/Desktop/nacl_sdk/pepper_canary/toolchain/mac_pnacl/bin/../x86_64-nacl/lib32/libcrt_common.a(lib_a-findfp.o)
                0x0000000000029dc0                __sinit
 .text.__sfp_lock_acquire
                0x000000000002a0c0       0x40 /Users/jkwang/Desktop/nacl_sdk/pepper_canary/toolchain/mac_pnacl/bin/../x86_64-nacl/lib32/libcrt_common.a(lib_a-findfp.o)
                0x000000000002a0c0                __sfp_lock_acquire
 .text.__sfp_lock_release
                0x000000000002a100       0x40 /Users/jkwang/Desktop/nacl_sdk/pepper_canary/toolchain/mac_pnacl/bin/../x86_64-nacl/lib32/libcrt_common.a(lib_a-findfp.o)
                0x000000000002a100                __sfp_lock_release
 .text._cleanup_r
                0x000000000002a140       0x40 /Users/jkwang/Desktop/nacl_sdk/pepper_canary/toolchain/mac_pnacl/bin/../x86_64-nacl/lib32/libcrt_common.a(lib_a-findfp.o)
                0x000000000002a140                _cleanup_r
 .text._cleanup
                0x000000000002a180       0x40 /Users/jkwang/Desktop/nacl_sdk/pepper_canary/toolchain/mac_pnacl/bin/../x86_64-nacl/lib32/libcrt_common.a(lib_a-findfp.o)
                0x000000000002a180                _cleanup
 .text.__sinit_lock_acquire
                0x000000000002a1c0       0x40 /Users/jkwang/Desktop/nacl_sdk/pepper_canary/toolchain/mac_pnacl/bin/../x86_64-nacl/lib32/libcrt_common.a(lib_a-findfp.o)
                0x000000000002a1c0                __sinit_lock_acquire
 .text.__sinit_lock_release
                0x000000000002a200       0x40 /Users/jkwang/Desktop/nacl_sdk/pepper_canary/toolchain/mac_pnacl/bin/../x86_64-nacl/lib32/libcrt_common.a(lib_a-findfp.o)
                0x000000000002a200                __sinit_lock_release
 .text.__fp_lock_all
                0x000000000002a240       0x60 /Users/jkwang/Desktop/nacl_sdk/pepper_canary/toolchain/mac_pnacl/bin/../x86_64-nacl/lib32/libcrt_common.a(lib_a-findfp.o)
                0x000000000002a240                __fp_lock_all
 .text.__fp_lock
                0x000000000002a2a0       0x40 /Users/jkwang/Desktop/nacl_sdk/pepper_canary/toolchain/mac_pnacl/bin/../x86_64-nacl/lib32/libcrt_common.a(lib_a-findfp.o)
 .text.__fp_unlock_all
                0x000000000002a2e0       0x80 /Users/jkwang/Desktop/nacl_sdk/pepper_canary/toolchain/mac_pnacl/bin/../x86_64-nacl/lib32/libcrt_common.a(lib_a-findfp.o)
                0x000000000002a2e0                __fp_unlock_all
 .text.__fp_unlock
                0x000000000002a360       0x40 /Users/jkwang/Desktop/nacl_sdk/pepper_canary/toolchain/mac_pnacl/bin/../x86_64-nacl/lib32/libcrt_common.a(lib_a-findfp.o)
 .text          0x000000000002a3a0        0x0 /Users/jkwang/Desktop/nacl_sdk/pepper_canary/toolchain/mac_pnacl/bin/../x86_64-nacl/lib32/libcrt_common.a(lib_a-fini.o)
 .text.__libc_fini_array
                0x000000000002a3a0       0x60 /Users/jkwang/Desktop/nacl_sdk/pepper_canary/toolchain/mac_pnacl/bin/../x86_64-nacl/lib32/libcrt_common.a(lib_a-fini.o)
                0x000000000002a3a0                __libc_fini_array
 .text          0x000000000002a400        0x0 /Users/jkwang/Desktop/nacl_sdk/pepper_canary/toolchain/mac_pnacl/bin/../x86_64-nacl/lib32/libcrt_common.a(lib_a-fprintf.o)
 .text._fprintf_r
                0x000000000002a400       0x60 /Users/jkwang/Desktop/nacl_sdk/pepper_canary/toolchain/mac_pnacl/bin/../x86_64-nacl/lib32/libcrt_common.a(lib_a-fprintf.o)
                0x000000000002a400                _fprintf_r
 .text.fprintf  0x000000000002a460       0x60 /Users/jkwang/Desktop/nacl_sdk/pepper_canary/toolchain/mac_pnacl/bin/../x86_64-nacl/lib32/libcrt_common.a(lib_a-fprintf.o)
                0x000000000002a460                fprintf
 .text          0x000000000002a4c0        0x0 /Users/jkwang/Desktop/nacl_sdk/pepper_canary/toolchain/mac_pnacl/bin/../x86_64-nacl/lib32/libcrt_common.a(lib_a-fwalk.o)
 .text._fwalk   0x000000000002a4c0      0x120 /Users/jkwang/Desktop/nacl_sdk/pepper_canary/toolchain/mac_pnacl/bin/../x86_64-nacl/lib32/libcrt_common.a(lib_a-fwalk.o)
                0x000000000002a4c0                _fwalk
 .text._fwalk_reent
                0x000000000002a5e0      0x100 /Users/jkwang/Desktop/nacl_sdk/pepper_canary/toolchain/mac_pnacl/bin/../x86_64-nacl/lib32/libcrt_common.a(lib_a-fwalk.o)
                0x000000000002a5e0                _fwalk_reent
 .text          0x000000000002a6e0        0x0 /Users/jkwang/Desktop/nacl_sdk/pepper_canary/toolchain/mac_pnacl/bin/../x86_64-nacl/lib32/libcrt_common.a(lib_a-fwrite.o)
 .text._fwrite_r
                0x000000000002a6e0      0x120 /Users/jkwang/Desktop/nacl_sdk/pepper_canary/toolchain/mac_pnacl/bin/../x86_64-nacl/lib32/libcrt_common.a(lib_a-fwrite.o)
                0x000000000002a6e0                _fwrite_r
 .text.fwrite   0x000000000002a800       0x80 /Users/jkwang/Desktop/nacl_sdk/pepper_canary/toolchain/mac_pnacl/bin/../x86_64-nacl/lib32/libcrt_common.a(lib_a-fwrite.o)
                0x000000000002a800                fwrite
 .text          0x000000000002a880        0x0 /Users/jkwang/Desktop/nacl_sdk/pepper_canary/toolchain/mac_pnacl/bin/../x86_64-nacl/lib32/libcrt_common.a(lib_a-getenv.o)
 .text._findenv
                0x000000000002a880       0x60 /Users/jkwang/Desktop/nacl_sdk/pepper_canary/toolchain/mac_pnacl/bin/../x86_64-nacl/lib32/libcrt_common.a(lib_a-getenv.o)
                0x000000000002a880                _findenv
 .text.getenv   0x000000000002a8e0       0x60 /Users/jkwang/Desktop/nacl_sdk/pepper_canary/toolchain/mac_pnacl/bin/../x86_64-nacl/lib32/libcrt_common.a(lib_a-getenv.o)
                0x000000000002a8e0                getenv
 .text          0x000000000002a940        0x0 /Users/jkwang/Desktop/nacl_sdk/pepper_canary/toolchain/mac_pnacl/bin/../x86_64-nacl/lib32/libcrt_common.a(lib_a-getenv_r.o)
 .text._findenv_r
                0x000000000002a940      0x120 /Users/jkwang/Desktop/nacl_sdk/pepper_canary/toolchain/mac_pnacl/bin/../x86_64-nacl/lib32/libcrt_common.a(lib_a-getenv_r.o)
                0x000000000002a940                _findenv_r
 .text._getenv_r
                0x000000000002aa60       0x40 /Users/jkwang/Desktop/nacl_sdk/pepper_canary/toolchain/mac_pnacl/bin/../x86_64-nacl/lib32/libcrt_common.a(lib_a-getenv_r.o)
                0x000000000002aa60                _getenv_r
 .text          0x000000000002aaa0        0x0 /Users/jkwang/Desktop/nacl_sdk/pepper_canary/toolchain/mac_pnacl/bin/../x86_64-nacl/lib32/libcrt_common.a(lib_a-impure.o)
 .text.__newlib_thread_init
                0x000000000002aaa0       0x20 /Users/jkwang/Desktop/nacl_sdk/pepper_canary/toolchain/mac_pnacl/bin/../x86_64-nacl/lib32/libcrt_common.a(lib_a-impure.o)
                0x000000000002aaa0                __newlib_thread_init
 .text.__newlib_thread_exit
                0x000000000002aac0       0x20 /Users/jkwang/Desktop/nacl_sdk/pepper_canary/toolchain/mac_pnacl/bin/../x86_64-nacl/lib32/libcrt_common.a(lib_a-impure.o)
                0x000000000002aac0                __newlib_thread_exit
 .text          0x000000000002aae0        0x0 /Users/jkwang/Desktop/nacl_sdk/pepper_canary/toolchain/mac_pnacl/bin/../x86_64-nacl/lib32/libcrt_common.a(lib_a-init.o)
 .text.__libc_init_array
                0x000000000002aae0       0xc0 /Users/jkwang/Desktop/nacl_sdk/pepper_canary/toolchain/mac_pnacl/bin/../x86_64-nacl/lib32/libcrt_common.a(lib_a-init.o)
                0x000000000002aae0                __libc_init_array
 .text          0x000000000002aba0       0x4d /Users/jkwang/Desktop/nacl_sdk/pepper_canary/toolchain/mac_pnacl/bin/../x86_64-nacl/lib32/libcrt_common.a(lib_a-memcpy.o)
                0x000000000002aba0                memcpy
 *fill*         0x000000000002abed       0x13 
 .text          0x000000000002ac00       0x92 /Users/jkwang/Desktop/nacl_sdk/pepper_canary/toolchain/mac_pnacl/bin/../x86_64-nacl/lib32/libcrt_common.a(lib_a-memset.o)
                0x000000000002ac00                memset
 *fill*         0x000000000002ac92        0x2 
 .text          0x000000000002ac94        0x0 /Users/jkwang/Desktop/nacl_sdk/pepper_canary/toolchain/mac_pnacl/bin/../x86_64-nacl/lib32/libcrt_common.a(lib_a-sleep.o)
 *fill*         0x000000000002ac94        0xc 
 .text.sleep    0x000000000002aca0       0x80 /Users/jkwang/Desktop/nacl_sdk/pepper_canary/toolchain/mac_pnacl/bin/../x86_64-nacl/lib32/libcrt_common.a(lib_a-sleep.o)
                0x000000000002aca0                sleep
 .text          0x000000000002ad20        0x0 /Users/jkwang/Desktop/nacl_sdk/pepper_canary/toolchain/mac_pnacl/bin/../x86_64-nacl/lib32/libcrt_common.a(lib_a-stdio.o)
 .text.__sread  0x000000000002ad20       0x80 /Users/jkwang/Desktop/nacl_sdk/pepper_canary/toolchain/mac_pnacl/bin/../x86_64-nacl/lib32/libcrt_common.a(lib_a-stdio.o)
                0x000000000002ad20                __sread
 .text.__seofread
                0x000000000002ada0       0x20 /Users/jkwang/Desktop/nacl_sdk/pepper_canary/toolchain/mac_pnacl/bin/../x86_64-nacl/lib32/libcrt_common.a(lib_a-stdio.o)
                0x000000000002ada0                __seofread
 .text.__swrite
                0x000000000002adc0       0xa0 /Users/jkwang/Desktop/nacl_sdk/pepper_canary/toolchain/mac_pnacl/bin/../x86_64-nacl/lib32/libcrt_common.a(lib_a-stdio.o)
                0x000000000002adc0                __swrite
 .text.__sseek  0x000000000002ae60       0x80 /Users/jkwang/Desktop/nacl_sdk/pepper_canary/toolchain/mac_pnacl/bin/../x86_64-nacl/lib32/libcrt_common.a(lib_a-stdio.o)
                0x000000000002ae60                __sseek
 .text.__sclose
                0x000000000002aee0       0x40 /Users/jkwang/Desktop/nacl_sdk/pepper_canary/toolchain/mac_pnacl/bin/../x86_64-nacl/lib32/libcrt_common.a(lib_a-stdio.o)
                0x000000000002aee0                __sclose
 .text          0x000000000002af20        0x0 /Users/jkwang/Desktop/nacl_sdk/pepper_canary/toolchain/mac_pnacl/bin/../x86_64-nacl/lib32/libcrt_common.a(lib_a-strcat.o)
 .text.strcat   0x000000000002af20       0x80 /Users/jkwang/Desktop/nacl_sdk/pepper_canary/toolchain/mac_pnacl/bin/../x86_64-nacl/lib32/libcrt_common.a(lib_a-strcat.o)
                0x000000000002af20                strcat
 .text          0x000000000002afa0        0x0 /Users/jkwang/Desktop/nacl_sdk/pepper_canary/toolchain/mac_pnacl/bin/../x86_64-nacl/lib32/libcrt_common.a(lib_a-strcmp.o)
 .text.strcmp   0x000000000002afa0       0x80 /Users/jkwang/Desktop/nacl_sdk/pepper_canary/toolchain/mac_pnacl/bin/../x86_64-nacl/lib32/libcrt_common.a(lib_a-strcmp.o)
                0x000000000002afa0                strcmp
 .text          0x000000000002b020        0x0 /Users/jkwang/Desktop/nacl_sdk/pepper_canary/toolchain/mac_pnacl/bin/../x86_64-nacl/lib32/libcrt_common.a(lib_a-strcpy.o)
 .text.strcpy   0x000000000002b020       0x80 /Users/jkwang/Desktop/nacl_sdk/pepper_canary/toolchain/mac_pnacl/bin/../x86_64-nacl/lib32/libcrt_common.a(lib_a-strcpy.o)
                0x000000000002b020                strcpy
 .text          0x000000000002b0a0       0x80 /Users/jkwang/Desktop/nacl_sdk/pepper_canary/toolchain/mac_pnacl/bin/../x86_64-nacl/lib32/libcrt_common.a(lib_a-strlen.o)
                0x000000000002b0a0                strlen
 .text          0x000000000002b120        0x0 /Users/jkwang/Desktop/nacl_sdk/pepper_canary/toolchain/mac_pnacl/bin/../x86_64-nacl/lib32/libcrt_common.a(lib_a-strncmp.o)
 .text.strncmp  0x000000000002b120       0xc0 /Users/jkwang/Desktop/nacl_sdk/pepper_canary/toolchain/mac_pnacl/bin/../x86_64-nacl/lib32/libcrt_common.a(lib_a-strncmp.o)
                0x000000000002b120                strncmp
 .text          0x000000000002b1e0        0x0 /Users/jkwang/Desktop/nacl_sdk/pepper_canary/toolchain/mac_pnacl/bin/../x86_64-nacl/lib32/libcrt_common.a(lib_a-vfprintf.o)
 .text.vfprintf
                0x000000000002b1e0       0x60 /Users/jkwang/Desktop/nacl_sdk/pepper_canary/toolchain/mac_pnacl/bin/../x86_64-nacl/lib32/libcrt_common.a(lib_a-vfprintf.o)
                0x000000000002b1e0                vfprintf
 .text._vfprintf_r
                0x000000000002b240     0x38a0 /Users/jkwang/Desktop/nacl_sdk/pepper_canary/toolchain/mac_pnacl/bin/../x86_64-nacl/lib32/libcrt_common.a(lib_a-vfprintf.o)
                0x000000000002b240                _vfprintf_r
 .text.__sbprintf
                0x000000000002eae0      0x140 /Users/jkwang/Desktop/nacl_sdk/pepper_canary/toolchain/mac_pnacl/bin/../x86_64-nacl/lib32/libcrt_common.a(lib_a-vfprintf.o)
 .text          0x000000000002ec20        0x0 /Users/jkwang/Desktop/nacl_sdk/pepper_canary/toolchain/mac_pnacl/bin/../x86_64-nacl/lib32/libcrt_common.a(lib_a-vsnprintf.o)
 .text.vsnprintf
                0x000000000002ec20       0xc0 /Users/jkwang/Desktop/nacl_sdk/pepper_canary/toolchain/mac_pnacl/bin/../x86_64-nacl/lib32/libcrt_common.a(lib_a-vsnprintf.o)
                0x000000000002ec20                vsnprintf
 .text._vsnprintf_r
                0x000000000002ece0       0xa0 /Users/jkwang/Desktop/nacl_sdk/pepper_canary/toolchain/mac_pnacl/bin/../x86_64-nacl/lib32/libcrt_common.a(lib_a-vsnprintf.o)
                0x000000000002ece0                _vsnprintf_r
 .text          0x000000000002ed80        0x0 /Users/jkwang/Desktop/nacl_sdk/pepper_canary/toolchain/mac_pnacl/bin/../x86_64-nacl/lib32/libcrt_common.a(lib_a-vsprintf.o)
 .text.vsprintf
                0x000000000002ed80       0xa0 /Users/jkwang/Desktop/nacl_sdk/pepper_canary/toolchain/mac_pnacl/bin/../x86_64-nacl/lib32/libcrt_common.a(lib_a-vsprintf.o)
                0x000000000002ed80                vsprintf
 .text._vsprintf_r
                0x000000000002ee20       0x80 /Users/jkwang/Desktop/nacl_sdk/pepper_canary/toolchain/mac_pnacl/bin/../x86_64-nacl/lib32/libcrt_common.a(lib_a-vsprintf.o)
                0x000000000002ee20                _vsprintf_r
 .text          0x000000000002eea0        0x0 /Users/jkwang/Desktop/nacl_sdk/pepper_canary/toolchain/mac_pnacl/bin/../x86_64-nacl/lib32/libcrt_common.a(lib_a-wcrtomb.o)
 .text._wcrtomb_r
                0x000000000002eea0       0xe0 /Users/jkwang/Desktop/nacl_sdk/pepper_canary/toolchain/mac_pnacl/bin/../x86_64-nacl/lib32/libcrt_common.a(lib_a-wcrtomb.o)
                0x000000000002eea0                _wcrtomb_r
 .text.wcrtomb  0x000000000002ef80       0xe0 /Users/jkwang/Desktop/nacl_sdk/pepper_canary/toolchain/mac_pnacl/bin/../x86_64-nacl/lib32/libcrt_common.a(lib_a-wcrtomb.o)
                0x000000000002ef80                wcrtomb
 .text          0x000000000002f060        0x0 /Users/jkwang/Desktop/nacl_sdk/pepper_canary/toolchain/mac_pnacl/bin/../x86_64-nacl/lib32/libcrt_common.a(lib_a-wcsrtombs.o)
 .text._wcsrtombs_r
                0x000000000002f060       0x60 /Users/jkwang/Desktop/nacl_sdk/pepper_canary/toolchain/mac_pnacl/bin/../x86_64-nacl/lib32/libcrt_common.a(lib_a-wcsrtombs.o)
                0x000000000002f060                _wcsrtombs_r
 .text.wcsrtombs
                0x000000000002f0c0       0x80 /Users/jkwang/Desktop/nacl_sdk/pepper_canary/toolchain/mac_pnacl/bin/../x86_64-nacl/lib32/libcrt_common.a(lib_a-wcsrtombs.o)
                0x000000000002f0c0                wcsrtombs
 .text          0x000000000002f140        0x0 /Users/jkwang/Desktop/nacl_sdk/pepper_canary/toolchain/mac_pnacl/bin/../x86_64-nacl/lib32/libcrt_common.a(lib_a-wctomb_r.o)
 .text.__ascii_wctomb
                0x000000000002f140       0x40 /Users/jkwang/Desktop/nacl_sdk/pepper_canary/toolchain/mac_pnacl/bin/../x86_64-nacl/lib32/libcrt_common.a(lib_a-wctomb_r.o)
                0x000000000002f140                __ascii_wctomb
 .text._wctomb_r
                0x000000000002f180       0x60 /Users/jkwang/Desktop/nacl_sdk/pepper_canary/toolchain/mac_pnacl/bin/../x86_64-nacl/lib32/libcrt_common.a(lib_a-wctomb_r.o)
                0x000000000002f180                _wctomb_r
 .text.__utf8_wctomb
                0x000000000002f1e0      0x120 /Users/jkwang/Desktop/nacl_sdk/pepper_canary/toolchain/mac_pnacl/bin/../x86_64-nacl/lib32/libcrt_common.a(lib_a-wctomb_r.o)
                0x000000000002f1e0                __utf8_wctomb
 .text.__sjis_wctomb
                0x000000000002f300       0x80 /Users/jkwang/Desktop/nacl_sdk/pepper_canary/toolchain/mac_pnacl/bin/../x86_64-nacl/lib32/libcrt_common.a(lib_a-wctomb_r.o)
                0x000000000002f300                __sjis_wctomb
 .text.__eucjp_wctomb
                0x000000000002f380       0xc0 /Users/jkwang/Desktop/nacl_sdk/pepper_canary/toolchain/mac_pnacl/bin/../x86_64-nacl/lib32/libcrt_common.a(lib_a-wctomb_r.o)
                0x000000000002f380                __eucjp_wctomb
 .text.__jis_wctomb
                0x000000000002f440       0xc0 /Users/jkwang/Desktop/nacl_sdk/pepper_canary/toolchain/mac_pnacl/bin/../x86_64-nacl/lib32/libcrt_common.a(lib_a-wctomb_r.o)
                0x000000000002f440                __jis_wctomb
 .text          0x000000000002f500        0x0 /Users/jkwang/Desktop/nacl_sdk/pepper_canary/toolchain/mac_pnacl/bin/../x86_64-nacl/lib32/libcrt_common.a(lib_a-wsetup.o)
 .text.__swsetup_r
                0x000000000002f500      0x160 /Users/jkwang/Desktop/nacl_sdk/pepper_canary/toolchain/mac_pnacl/bin/../x86_64-nacl/lib32/libcrt_common.a(lib_a-wsetup.o)
                0x000000000002f500                __swsetup_r
 .text          0x000000000002f660        0x0 /Users/jkwang/Desktop/nacl_sdk/pepper_canary/toolchain/mac_pnacl/bin/../x86_64-nacl/lib32/libcrt_common.a(lib_a-__atexit.o)
 .text.__register_exitproc
                0x000000000002f660      0x140 /Users/jkwang/Desktop/nacl_sdk/pepper_canary/toolchain/mac_pnacl/bin/../x86_64-nacl/lib32/libcrt_common.a(lib_a-__atexit.o)
                0x000000000002f660                __register_exitproc
 .text          0x000000000002f7a0        0x0 /Users/jkwang/Desktop/nacl_sdk/pepper_canary/toolchain/mac_pnacl/bin/../x86_64-nacl/lib32/libcrt_common.a(lib_a-__call_atexit.o)
 .text.__call_exitprocs
                0x000000000002f7a0      0x160 /Users/jkwang/Desktop/nacl_sdk/pepper_canary/toolchain/mac_pnacl/bin/../x86_64-nacl/lib32/libcrt_common.a(lib_a-__call_atexit.o)
                0x000000000002f7a0                __call_exitprocs
 .text          0x000000000002f900        0x0 /Users/jkwang/Desktop/nacl_sdk/pepper_canary/toolchain/mac_pnacl/bin/../x86_64-nacl/lib32/libcrt_common.a(lib_a-dtoa.o)
 .text._dtoa_r  0x000000000002f900     0x12e0 /Users/jkwang/Desktop/nacl_sdk/pepper_canary/toolchain/mac_pnacl/bin/../x86_64-nacl/lib32/libcrt_common.a(lib_a-dtoa.o)
                0x000000000002f900                _dtoa_r
 .text.quorem   0x0000000000030be0      0x200 /Users/jkwang/Desktop/nacl_sdk/pepper_canary/toolchain/mac_pnacl/bin/../x86_64-nacl/lib32/libcrt_common.a(lib_a-dtoa.o)
 .text          0x0000000000030de0        0x0 /Users/jkwang/Desktop/nacl_sdk/pepper_canary/toolchain/mac_pnacl/bin/../x86_64-nacl/lib32/libcrt_common.a(lib_a-envlock.o)
 .text.__env_lock
                0x0000000000030de0       0x40 /Users/jkwang/Desktop/nacl_sdk/pepper_canary/toolchain/mac_pnacl/bin/../x86_64-nacl/lib32/libcrt_common.a(lib_a-envlock.o)
                0x0000000000030de0                __env_lock
 .text.__env_unlock
                0x0000000000030e20       0x40 /Users/jkwang/Desktop/nacl_sdk/pepper_canary/toolchain/mac_pnacl/bin/../x86_64-nacl/lib32/libcrt_common.a(lib_a-envlock.o)
                0x0000000000030e20                __env_unlock
 .text          0x0000000000030e60        0x0 /Users/jkwang/Desktop/nacl_sdk/pepper_canary/toolchain/mac_pnacl/bin/../x86_64-nacl/lib32/libcrt_common.a(lib_a-fclose.o)
 .text._fclose_r
                0x0000000000030e60      0x1c0 /Users/jkwang/Desktop/nacl_sdk/pepper_canary/toolchain/mac_pnacl/bin/../x86_64-nacl/lib32/libcrt_common.a(lib_a-fclose.o)
                0x0000000000030e60                _fclose_r
 .text.fclose   0x0000000000031020       0x60 /Users/jkwang/Desktop/nacl_sdk/pepper_canary/toolchain/mac_pnacl/bin/../x86_64-nacl/lib32/libcrt_common.a(lib_a-fclose.o)
                0x0000000000031020                fclose
 .text          0x0000000000031080        0x0 /Users/jkwang/Desktop/nacl_sdk/pepper_canary/toolchain/mac_pnacl/bin/../x86_64-nacl/lib32/libcrt_common.a(lib_a-fvwrite.o)
 .text.__sfvwrite_r
                0x0000000000031080      0x5a0 /Users/jkwang/Desktop/nacl_sdk/pepper_canary/toolchain/mac_pnacl/bin/../x86_64-nacl/lib32/libcrt_common.a(lib_a-fvwrite.o)
                0x0000000000031080                __sfvwrite_r
 .text          0x0000000000031620        0x0 /Users/jkwang/Desktop/nacl_sdk/pepper_canary/toolchain/mac_pnacl/bin/../x86_64-nacl/lib32/libcrt_common.a(lib_a-locale.o)
 .text._setlocale_r
                0x0000000000031620      0x760 /Users/jkwang/Desktop/nacl_sdk/pepper_canary/toolchain/mac_pnacl/bin/../x86_64-nacl/lib32/libcrt_common.a(lib_a-locale.o)
                0x0000000000031620                _setlocale_r
 .text.currentlocale
                0x0000000000031d80      0x220 /Users/jkwang/Desktop/nacl_sdk/pepper_canary/toolchain/mac_pnacl/bin/../x86_64-nacl/lib32/libcrt_common.a(lib_a-locale.o)
 .text.loadlocale
                0x0000000000031fa0      0xb20 /Users/jkwang/Desktop/nacl_sdk/pepper_canary/toolchain/mac_pnacl/bin/../x86_64-nacl/lib32/libcrt_common.a(lib_a-locale.o)
 .text.__locale_charset
                0x0000000000032ac0       0x20 /Users/jkwang/Desktop/nacl_sdk/pepper_canary/toolchain/mac_pnacl/bin/../x86_64-nacl/lib32/libcrt_common.a(lib_a-locale.o)
                0x0000000000032ac0                __locale_charset
 .text.__locale_mb_cur_max
                0x0000000000032ae0       0x20 /Users/jkwang/Desktop/nacl_sdk/pepper_canary/toolchain/mac_pnacl/bin/../x86_64-nacl/lib32/libcrt_common.a(lib_a-locale.o)
                0x0000000000032ae0                __locale_mb_cur_max
 .text.__locale_msgcharset
                0x0000000000032b00       0x20 /Users/jkwang/Desktop/nacl_sdk/pepper_canary/toolchain/mac_pnacl/bin/../x86_64-nacl/lib32/libcrt_common.a(lib_a-locale.o)
                0x0000000000032b00                __locale_msgcharset
 .text.__locale_cjk_lang
                0x0000000000032b20       0x20 /Users/jkwang/Desktop/nacl_sdk/pepper_canary/toolchain/mac_pnacl/bin/../x86_64-nacl/lib32/libcrt_common.a(lib_a-locale.o)
                0x0000000000032b20                __locale_cjk_lang
 .text._localeconv_r
                0x0000000000032b40       0x20 /Users/jkwang/Desktop/nacl_sdk/pepper_canary/toolchain/mac_pnacl/bin/../x86_64-nacl/lib32/libcrt_common.a(lib_a-locale.o)
                0x0000000000032b40                _localeconv_r
 .text.setlocale
                0x0000000000032b60       0x60 /Users/jkwang/Desktop/nacl_sdk/pepper_canary/toolchain/mac_pnacl/bin/../x86_64-nacl/lib32/libcrt_common.a(lib_a-locale.o)
                0x0000000000032b60                setlocale
 .text.localeconv
                0x0000000000032bc0       0x20 /Users/jkwang/Desktop/nacl_sdk/pepper_canary/toolchain/mac_pnacl/bin/../x86_64-nacl/lib32/libcrt_common.a(lib_a-locale.o)
                0x0000000000032bc0                localeconv
 .text          0x0000000000032be0        0x0 /Users/jkwang/Desktop/nacl_sdk/pepper_canary/toolchain/mac_pnacl/bin/../x86_64-nacl/lib32/libcrt_common.a(lib_a-makebuf.o)
 .text.__smakebuf_r
                0x0000000000032be0      0x140 /Users/jkwang/Desktop/nacl_sdk/pepper_canary/toolchain/mac_pnacl/bin/../x86_64-nacl/lib32/libcrt_common.a(lib_a-makebuf.o)
                0x0000000000032be0                __smakebuf_r
 .text          0x0000000000032d20        0x0 /Users/jkwang/Desktop/nacl_sdk/pepper_canary/toolchain/mac_pnacl/bin/../x86_64-nacl/lib32/libcrt_common.a(lib_a-mbtowc_r.o)
 .text.__ascii_mbtowc
                0x0000000000032d20       0x60 /Users/jkwang/Desktop/nacl_sdk/pepper_canary/toolchain/mac_pnacl/bin/../x86_64-nacl/lib32/libcrt_common.a(lib_a-mbtowc_r.o)
                0x0000000000032d20                __ascii_mbtowc
 .text._mbtowc_r
                0x0000000000032d80       0x80 /Users/jkwang/Desktop/nacl_sdk/pepper_canary/toolchain/mac_pnacl/bin/../x86_64-nacl/lib32/libcrt_common.a(lib_a-mbtowc_r.o)
                0x0000000000032d80                _mbtowc_r
 .text.__utf8_mbtowc
                0x0000000000032e00      0x460 /Users/jkwang/Desktop/nacl_sdk/pepper_canary/toolchain/mac_pnacl/bin/../x86_64-nacl/lib32/libcrt_common.a(lib_a-mbtowc_r.o)
                0x0000000000032e00                __utf8_mbtowc
 .text.__sjis_mbtowc
                0x0000000000033260      0x100 /Users/jkwang/Desktop/nacl_sdk/pepper_canary/toolchain/mac_pnacl/bin/../x86_64-nacl/lib32/libcrt_common.a(lib_a-mbtowc_r.o)
                0x0000000000033260                __sjis_mbtowc
 .text.__eucjp_mbtowc
                0x0000000000033360      0x160 /Users/jkwang/Desktop/nacl_sdk/pepper_canary/toolchain/mac_pnacl/bin/../x86_64-nacl/lib32/libcrt_common.a(lib_a-mbtowc_r.o)
                0x0000000000033360                __eucjp_mbtowc
 .text.__jis_mbtowc
                0x00000000000334c0      0x220 /Users/jkwang/Desktop/nacl_sdk/pepper_canary/toolchain/mac_pnacl/bin/../x86_64-nacl/lib32/libcrt_common.a(lib_a-mbtowc_r.o)
                0x00000000000334c0                __jis_mbtowc
 .text          0x00000000000336e0       0x9a /Users/jkwang/Desktop/nacl_sdk/pepper_canary/toolchain/mac_pnacl/bin/../x86_64-nacl/lib32/libcrt_common.a(lib_a-memchr.o)
                0x00000000000336e0                memchr
 *fill*         0x000000000003377a        0x6 
 .text          0x0000000000033780       0x9e /Users/jkwang/Desktop/nacl_sdk/pepper_canary/toolchain/mac_pnacl/bin/../x86_64-nacl/lib32/libcrt_common.a(lib_a-memmove.o)
                0x0000000000033780                memmove
 *fill*         0x000000000003381e        0x2 
 .text          0x0000000000033820        0x0 /Users/jkwang/Desktop/nacl_sdk/pepper_canary/toolchain/mac_pnacl/bin/../x86_64-nacl/lib32/libcrt_common.a(lib_a-mprec.o)
 .text._Balloc  0x0000000000033820       0xe0 /Users/jkwang/Desktop/nacl_sdk/pepper_canary/toolchain/mac_pnacl/bin/../x86_64-nacl/lib32/libcrt_common.a(lib_a-mprec.o)
                0x0000000000033820                _Balloc
 .text._Bfree   0x0000000000033900       0x40 /Users/jkwang/Desktop/nacl_sdk/pepper_canary/toolchain/mac_pnacl/bin/../x86_64-nacl/lib32/libcrt_common.a(lib_a-mprec.o)
                0x0000000000033900                _Bfree
 .text.__multadd
                0x0000000000033940      0x1a0 /Users/jkwang/Desktop/nacl_sdk/pepper_canary/toolchain/mac_pnacl/bin/../x86_64-nacl/lib32/libcrt_common.a(lib_a-mprec.o)
                0x0000000000033940                __multadd
 .text.__s2b    0x0000000000033ae0      0x1c0 /Users/jkwang/Desktop/nacl_sdk/pepper_canary/toolchain/mac_pnacl/bin/../x86_64-nacl/lib32/libcrt_common.a(lib_a-mprec.o)
                0x0000000000033ae0                __s2b
 .text.__hi0bits
                0x0000000000033ca0       0xa0 /Users/jkwang/Desktop/nacl_sdk/pepper_canary/toolchain/mac_pnacl/bin/../x86_64-nacl/lib32/libcrt_common.a(lib_a-mprec.o)
                0x0000000000033ca0                __hi0bits
 .text.__lo0bits
                0x0000000000033d40       0xc0 /Users/jkwang/Desktop/nacl_sdk/pepper_canary/toolchain/mac_pnacl/bin/../x86_64-nacl/lib32/libcrt_common.a(lib_a-mprec.o)
                0x0000000000033d40                __lo0bits
 .text.__i2b    0x0000000000033e00       0xc0 /Users/jkwang/Desktop/nacl_sdk/pepper_canary/toolchain/mac_pnacl/bin/../x86_64-nacl/lib32/libcrt_common.a(lib_a-mprec.o)
                0x0000000000033e00                __i2b
 .text.__multiply
                0x0000000000033ec0      0x340 /Users/jkwang/Desktop/nacl_sdk/pepper_canary/toolchain/mac_pnacl/bin/../x86_64-nacl/lib32/libcrt_common.a(lib_a-mprec.o)
                0x0000000000033ec0                __multiply
 .text.__pow5mult
                0x0000000000034200      0x180 /Users/jkwang/Desktop/nacl_sdk/pepper_canary/toolchain/mac_pnacl/bin/../x86_64-nacl/lib32/libcrt_common.a(lib_a-mprec.o)
                0x0000000000034200                __pow5mult
 .text.__lshift
                0x0000000000034380      0x2e0 /Users/jkwang/Desktop/nacl_sdk/pepper_canary/toolchain/mac_pnacl/bin/../x86_64-nacl/lib32/libcrt_common.a(lib_a-mprec.o)
                0x0000000000034380                __lshift
 .text.__mcmp   0x0000000000034660       0x60 /Users/jkwang/Desktop/nacl_sdk/pepper_canary/toolchain/mac_pnacl/bin/../x86_64-nacl/lib32/libcrt_common.a(lib_a-mprec.o)
                0x0000000000034660                __mcmp
 .text.__mdiff  0x00000000000346c0      0x2e0 /Users/jkwang/Desktop/nacl_sdk/pepper_canary/toolchain/mac_pnacl/bin/../x86_64-nacl/lib32/libcrt_common.a(lib_a-mprec.o)
                0x00000000000346c0                __mdiff
 .text.__ulp    0x00000000000349a0       0xa0 /Users/jkwang/Desktop/nacl_sdk/pepper_canary/toolchain/mac_pnacl/bin/../x86_64-nacl/lib32/libcrt_common.a(lib_a-mprec.o)
                0x00000000000349a0                __ulp
 .text.__b2d    0x0000000000034a40      0x180 /Users/jkwang/Desktop/nacl_sdk/pepper_canary/toolchain/mac_pnacl/bin/../x86_64-nacl/lib32/libcrt_common.a(lib_a-mprec.o)
                0x0000000000034a40                __b2d
 .text.__d2b    0x0000000000034bc0      0x380 /Users/jkwang/Desktop/nacl_sdk/pepper_canary/toolchain/mac_pnacl/bin/../x86_64-nacl/lib32/libcrt_common.a(lib_a-mprec.o)
                0x0000000000034bc0                __d2b
 .text.__ratio  0x0000000000034f40       0xe0 /Users/jkwang/Desktop/nacl_sdk/pepper_canary/toolchain/mac_pnacl/bin/../x86_64-nacl/lib32/libcrt_common.a(lib_a-mprec.o)
                0x0000000000034f40                __ratio
 .text._mprec_log10
                0x0000000000035020       0x60 /Users/jkwang/Desktop/nacl_sdk/pepper_canary/toolchain/mac_pnacl/bin/../x86_64-nacl/lib32/libcrt_common.a(lib_a-mprec.o)
                0x0000000000035020                _mprec_log10
 .text.__copybits
                0x0000000000035080      0x180 /Users/jkwang/Desktop/nacl_sdk/pepper_canary/toolchain/mac_pnacl/bin/../x86_64-nacl/lib32/libcrt_common.a(lib_a-mprec.o)
                0x0000000000035080                __copybits
 .text.__any_on
                0x0000000000035200       0x80 /Users/jkwang/Desktop/nacl_sdk/pepper_canary/toolchain/mac_pnacl/bin/../x86_64-nacl/lib32/libcrt_common.a(lib_a-mprec.o)
                0x0000000000035200                __any_on
 .text          0x0000000000035280        0x0 /Users/jkwang/Desktop/nacl_sdk/pepper_canary/toolchain/mac_pnacl/bin/../x86_64-nacl/lib32/libcrt_common.a(lib_a-s_fpclassify.o)
 .text.__fpclassifyd
                0x0000000000035280       0x80 /Users/jkwang/Desktop/nacl_sdk/pepper_canary/toolchain/mac_pnacl/bin/../x86_64-nacl/lib32/libcrt_common.a(lib_a-s_fpclassify.o)
                0x0000000000035280                __fpclassifyd
 .text          0x0000000000035300        0x0 /Users/jkwang/Desktop/nacl_sdk/pepper_canary/toolchain/mac_pnacl/bin/../x86_64-nacl/lib32/libcrt_common.a(lib_a-s_frexp.o)
 .text.frexp    0x0000000000035300       0xc0 /Users/jkwang/Desktop/nacl_sdk/pepper_canary/toolchain/mac_pnacl/bin/../x86_64-nacl/lib32/libcrt_common.a(lib_a-s_frexp.o)
                0x0000000000035300                frexp
 .text          0x00000000000353c0        0x0 /Users/jkwang/Desktop/nacl_sdk/pepper_canary/toolchain/mac_pnacl/bin/../x86_64-nacl/lib32/libcrt_common.a(lib_a-strcasecmp.o)
 .text.strcasecmp
                0x00000000000353c0       0x80 /Users/jkwang/Desktop/nacl_sdk/pepper_canary/toolchain/mac_pnacl/bin/../x86_64-nacl/lib32/libcrt_common.a(lib_a-strcasecmp.o)
                0x00000000000353c0                strcasecmp
 .text          0x0000000000035440      0x116 /Users/jkwang/Desktop/nacl_sdk/pepper_canary/toolchain/mac_pnacl/bin/../x86_64-nacl/lib32/libcrt_common.a(lib_a-strchr.o)
                0x0000000000035440                strchr
 *fill*         0x0000000000035556        0x2 
 .text          0x0000000000035558        0x0 /Users/jkwang/Desktop/nacl_sdk/pepper_canary/toolchain/mac_pnacl/bin/../x86_64-nacl/lib32/libcrt_common.a(lib_a-strlcpy.o)
 *fill*         0x0000000000035558        0x8 
 .text.strlcpy  0x0000000000035560       0x80 /Users/jkwang/Desktop/nacl_sdk/pepper_canary/toolchain/mac_pnacl/bin/../x86_64-nacl/lib32/libcrt_common.a(lib_a-strlcpy.o)
                0x0000000000035560                strlcpy
 .text          0x00000000000355e0        0x0 /Users/jkwang/Desktop/nacl_sdk/pepper_canary/toolchain/mac_pnacl/bin/../x86_64-nacl/lib32/libcrt_common.a(lib_a-strncasecmp.o)
 .text.strncasecmp
                0x00000000000355e0       0x80 /Users/jkwang/Desktop/nacl_sdk/pepper_canary/toolchain/mac_pnacl/bin/../x86_64-nacl/lib32/libcrt_common.a(lib_a-strncasecmp.o)
                0x00000000000355e0                strncasecmp
 .text          0x0000000000035660        0x0 /Users/jkwang/Desktop/nacl_sdk/pepper_canary/toolchain/mac_pnacl/bin/../x86_64-nacl/lib32/libcrt_common.a(lib_a-strncpy.o)
 .text.strncpy  0x0000000000035660      0x120 /Users/jkwang/Desktop/nacl_sdk/pepper_canary/toolchain/mac_pnacl/bin/../x86_64-nacl/lib32/libcrt_common.a(lib_a-strncpy.o)
                0x0000000000035660                strncpy
 .text          0x0000000000035780        0x0 /Users/jkwang/Desktop/nacl_sdk/pepper_canary/toolchain/mac_pnacl/bin/../x86_64-nacl/lib32/libcrt_common.a(lib_a-strtol.o)
 .text._strtol_r
                0x0000000000035780      0x1a0 /Users/jkwang/Desktop/nacl_sdk/pepper_canary/toolchain/mac_pnacl/bin/../x86_64-nacl/lib32/libcrt_common.a(lib_a-strtol.o)
                0x0000000000035780                _strtol_r
 .text.strtol   0x0000000000035920       0x60 /Users/jkwang/Desktop/nacl_sdk/pepper_canary/toolchain/mac_pnacl/bin/../x86_64-nacl/lib32/libcrt_common.a(lib_a-strtol.o)
                0x0000000000035920                strtol
 .text          0x0000000000035980        0x0 /Users/jkwang/Desktop/nacl_sdk/pepper_canary/toolchain/mac_pnacl/bin/../x86_64-nacl/lib32/libcrt_common.a(lib_a-svfprintf.o)
 .text._svfprintf_r
                0x0000000000035980     0x35a0 /Users/jkwang/Desktop/nacl_sdk/pepper_canary/toolchain/mac_pnacl/bin/../x86_64-nacl/lib32/libcrt_common.a(lib_a-svfprintf.o)
                0x0000000000035980                _svfprintf_r
 .text          0x0000000000038f20        0x0 /Users/jkwang/Desktop/nacl_sdk/pepper_canary/toolchain/mac_pnacl/bin/../x86_64-nacl/lib32/libcrt_common.a(lib_a-vfiprintf.o)
 .text.__sprint_r
                0x0000000000038f20       0xe0 /Users/jkwang/Desktop/nacl_sdk/pepper_canary/toolchain/mac_pnacl/bin/../x86_64-nacl/lib32/libcrt_common.a(lib_a-vfiprintf.o)
                0x0000000000038f20                __sprint_r
 .text.vfiprintf
                0x0000000000039000       0x60 /Users/jkwang/Desktop/nacl_sdk/pepper_canary/toolchain/mac_pnacl/bin/../x86_64-nacl/lib32/libcrt_common.a(lib_a-vfiprintf.o)
                0x0000000000039000                vfiprintf
 .text._vfiprintf_r
                0x0000000000039060     0x25c0 /Users/jkwang/Desktop/nacl_sdk/pepper_canary/toolchain/mac_pnacl/bin/../x86_64-nacl/lib32/libcrt_common.a(lib_a-vfiprintf.o)
                0x0000000000039060                _vfiprintf_r
 .text.__sbprintf
                0x000000000003b620      0x140 /Users/jkwang/Desktop/nacl_sdk/pepper_canary/toolchain/mac_pnacl/bin/../x86_64-nacl/lib32/libcrt_common.a(lib_a-vfiprintf.o)
 .text          0x000000000003b760        0x0 /Users/jkwang/Desktop/nacl_sdk/pepper_canary/toolchain/mac_pnacl/bin/../x86_64-nacl/lib32/libcrt_common.a(lib_a-wcsnrtombs.o)
 .text._wcsnrtombs_r
                0x000000000003b760      0x200 /Users/jkwang/Desktop/nacl_sdk/pepper_canary/toolchain/mac_pnacl/bin/../x86_64-nacl/lib32/libcrt_common.a(lib_a-wcsnrtombs.o)
                0x000000000003b760                _wcsnrtombs_r
 .text.wcsnrtombs
                0x000000000003b960       0x80 /Users/jkwang/Desktop/nacl_sdk/pepper_canary/toolchain/mac_pnacl/bin/../x86_64-nacl/lib32/libcrt_common.a(lib_a-wcsnrtombs.o)
                0x000000000003b960                wcsnrtombs
 .text          0x000000000003b9e0        0x0 /Users/jkwang/Desktop/nacl_sdk/pepper_canary/toolchain/mac_pnacl/bin/../x86_64-nacl/lib32/libcrt_common.a(lib_a-ctype_.o)
 .text.__set_ctype
                0x000000000003b9e0       0x20 /Users/jkwang/Desktop/nacl_sdk/pepper_canary/toolchain/mac_pnacl/bin/../x86_64-nacl/lib32/libcrt_common.a(lib_a-ctype_.o)
                0x000000000003b9e0                __set_ctype
 .text          0x000000000003ba00        0x0 /Users/jkwang/Desktop/nacl_sdk/pepper_canary/toolchain/mac_pnacl/bin/../x86_64-nacl/lib32/libcrt_common.a(lib_a-fputwc.o)
 .text._fputwc_r
                0x000000000003ba00      0x180 /Users/jkwang/Desktop/nacl_sdk/pepper_canary/toolchain/mac_pnacl/bin/../x86_64-nacl/lib32/libcrt_common.a(lib_a-fputwc.o)
                0x000000000003ba00                _fputwc_r
 .text.fputwc   0x000000000003bb80       0x80 /Users/jkwang/Desktop/nacl_sdk/pepper_canary/toolchain/mac_pnacl/bin/../x86_64-nacl/lib32/libcrt_common.a(lib_a-fputwc.o)
                0x000000000003bb80                fputwc
 .text          0x000000000003bc00        0x0 /Users/jkwang/Desktop/nacl_sdk/pepper_canary/toolchain/mac_pnacl/bin/../x86_64-nacl/lib32/libcrt_common.a(lib_a-svfiprintf.o)
 .text.__ssprint_r
                0x000000000003bc00      0x240 /Users/jkwang/Desktop/nacl_sdk/pepper_canary/toolchain/mac_pnacl/bin/../x86_64-nacl/lib32/libcrt_common.a(lib_a-svfiprintf.o)
                0x000000000003bc00                __ssprint_r
 .text._svfiprintf_r
                0x000000000003be40     0x1a80 /Users/jkwang/Desktop/nacl_sdk/pepper_canary/toolchain/mac_pnacl/bin/../x86_64-nacl/lib32/libcrt_common.a(lib_a-svfiprintf.o)
                0x000000000003be40                _svfiprintf_r
 .text          0x000000000003d8c0        0x0 /Users/jkwang/Desktop/nacl_sdk/pepper_canary/toolchain/mac_pnacl/bin/../x86_64-nacl/lib32/libcrt_common.a(lib_a-wbuf.o)
 .text.__swbuf_r
                0x000000000003d8c0      0x120 /Users/jkwang/Desktop/nacl_sdk/pepper_canary/toolchain/mac_pnacl/bin/../x86_64-nacl/lib32/libcrt_common.a(lib_a-wbuf.o)
                0x000000000003d8c0                __swbuf_r
 .text.__swbuf  0x000000000003d9e0       0x60 /Users/jkwang/Desktop/nacl_sdk/pepper_canary/toolchain/mac_pnacl/bin/../x86_64-nacl/lib32/libcrt_common.a(lib_a-wbuf.o)
                0x000000000003d9e0                __swbuf
 .text          0x000000000003da40       0x60 /Users/jkwang/Desktop/nacl_sdk/pepper_canary/toolchain/mac_pnacl/bin/../x86_64-nacl/lib32/libnacl.a(close.o)
                0x000000000003da40                close
 .text          0x000000000003daa0       0x60 /Users/jkwang/Desktop/nacl_sdk/pepper_canary/toolchain/mac_pnacl/bin/../x86_64-nacl/lib32/libnacl.a(fstat.o)
                0x000000000003daa0                fstat
 .text          0x000000000003db00       0x80 /Users/jkwang/Desktop/nacl_sdk/pepper_canary/toolchain/mac_pnacl/bin/../x86_64-nacl/lib32/libnacl.a(isatty.o)
                0x000000000003db00                isatty
 .text          0x000000000003db80       0xa0 /Users/jkwang/Desktop/nacl_sdk/pepper_canary/toolchain/mac_pnacl/bin/../x86_64-nacl/lib32/libnacl.a(lseek.o)
                0x000000000003db80                lseek
 .text          0x000000000003dc20       0x60 /Users/jkwang/Desktop/nacl_sdk/pepper_canary/toolchain/mac_pnacl/bin/../x86_64-nacl/lib32/libnacl.a(nanosleep.o)
                0x000000000003dc20                nanosleep
 .text          0x000000000003dc80       0x80 /Users/jkwang/Desktop/nacl_sdk/pepper_canary/toolchain/mac_pnacl/bin/../x86_64-nacl/lib32/libnacl.a(nacl_irt_fdio.o)
                0x000000000003dc80                __libnacl_irt_dev_fdio_init
 .text          0x000000000003dd00       0x80 /Users/jkwang/Desktop/nacl_sdk/pepper_canary/toolchain/mac_pnacl/bin/../x86_64-nacl/lib32/libnacl.a(read.o)
                0x000000000003dd00                read
 .text          0x000000000003dd80       0x80 /Users/jkwang/Desktop/nacl_sdk/pepper_canary/toolchain/mac_pnacl/bin/../lib/clang/3.7.0/lib/i686-nacl/libgcc.a(udivdi3.o)
                0x000000000003dd80                __udivdi3
 .text          0x000000000003de00      0x3e0 /Users/jkwang/Desktop/nacl_sdk/pepper_canary/toolchain/mac_pnacl/bin/../lib/clang/3.7.0/lib/i686-nacl/libgcc.a(udivmoddi4.o)
                0x000000000003de00                __udivmoddi4
 .text          0x000000000003e1e0       0x80 /Users/jkwang/Desktop/nacl_sdk/pepper_canary/toolchain/mac_pnacl/bin/../lib/clang/3.7.0/lib/i686-nacl/libgcc.a(umoddi3.o)
                0x000000000003e1e0                __umoddi3
 .text          0x000000000003e260     0x2360 /Users/jkwang/Desktop/nacl_sdk/pepper_canary/toolchain/mac_pnacl/bin/../lib/clang/3.7.0/lib/i686-nacl/libgcc_eh.a(unwind-dw2-fde-glibc.o)
                0x000000000003e260                __register_frame_info_bases
                0x000000000003e2e0                __register_frame_info
                0x000000000003e360                __register_frame_info_table_bases
                0x000000000003e3c0                __register_frame_info_table
                0x000000000003f260                __register_frame_table
                0x000000000003f2e0                __register_frame
                0x0000000000040140                _Unwind_Find_FDE
                0x0000000000040380                __deregister_frame_info_bases
                0x0000000000040540                __deregister_frame_info
                0x0000000000040560                __deregister_frame
 .text          0x00000000000405c0        0x0 /Users/jkwang/Desktop/nacl_sdk/pepper_canary/toolchain/mac_pnacl/bin/../lib/clang/3.7.0/lib/i686-nacl/crtend.o
 .text          0x00000000000405c0        0x0 /Users/jkwang/Desktop/nacl_sdk/pepper_canary/toolchain/mac_pnacl/bin/../x86_64-nacl/lib32/crtn.o
 *(.gnu.warning)

.fini
 *(SORT(.fini))
                0x00000000000405c0                PROVIDE (__etext, .)
                0x00000000000405c0                PROVIDE (_etext, .)
                0x00000000000405c0                PROVIDE (etext, .)
                0x00000000100200f4                . = (0x10020000 + SIZEOF_HEADERS)

.interp
 *(.interp)

.note.NaCl.ABI.x86-32
                0x00000000100200f4       0x1c
 .note.NaCl.ABI.x86-32
                0x00000000100200f4       0x1c /Users/jkwang/Desktop/nacl_sdk/pepper_canary/toolchain/mac_pnacl/bin/../lib/clang/3.7.0/lib/i686-nacl/crtbeginT.o

.note.gnu.build-id
                0x0000000010020110       0x24
 *(.note.gnu.build-id)
 .note.gnu.build-id
                0x0000000010020110       0x24 /Users/jkwang/Desktop/nacl_sdk/pepper_canary/toolchain/mac_pnacl/bin/../x86_64-nacl/lib32/crti.o

.hash
 *(.hash)

.gnu.hash
 *(.gnu.hash)

.dynsym
 *(.dynsym)

.dynstr
 *(.dynstr)

.gnu.version
 *(.gnu.version)

.gnu.version_d
 *(.gnu.version_d)

.gnu.version_r
 *(.gnu.version_r)

.rel.dyn        0x0000000010020134        0x0
 *(.rel.init)
 *(.rel.text .rel.text.* .rel.gnu.linkonce.t.*)
 .rel.text      0x0000000000000000        0x0 /Users/jkwang/Desktop/nacl_sdk/pepper_canary/toolchain/mac_pnacl/bin/../lib/clang/3.7.0/lib/i686-nacl/crtbeginT.o
 .rel.text.atexit
                0x0000000000000000        0x0 /Users/jkwang/Desktop/nacl_sdk/pepper_canary/toolchain/mac_pnacl/bin/../lib/clang/3.7.0/lib/i686-nacl/crtbeginT.o
 .rel.text.exit
                0x0000000000000000        0x0 /Users/jkwang/Desktop/nacl_sdk/pepper_canary/toolchain/mac_pnacl/bin/../lib/clang/3.7.0/lib/i686-nacl/crtbeginT.o
 .rel.text._fflush_r
                0x0000000000000000        0x0 /Users/jkwang/Desktop/nacl_sdk/pepper_canary/toolchain/mac_pnacl/bin/../lib/clang/3.7.0/lib/i686-nacl/crtbeginT.o
 .rel.text.fflush
                0x0000000000000000        0x0 /Users/jkwang/Desktop/nacl_sdk/pepper_canary/toolchain/mac_pnacl/bin/../lib/clang/3.7.0/lib/i686-nacl/crtbeginT.o
 .rel.text.__sfmoreglue
                0x0000000000000000        0x0 /Users/jkwang/Desktop/nacl_sdk/pepper_canary/toolchain/mac_pnacl/bin/../lib/clang/3.7.0/lib/i686-nacl/crtbeginT.o
 .rel.text.__sfp
                0x0000000000000000        0x0 /Users/jkwang/Desktop/nacl_sdk/pepper_canary/toolchain/mac_pnacl/bin/../lib/clang/3.7.0/lib/i686-nacl/crtbeginT.o
 .rel.text.__sinit
                0x0000000000000000        0x0 /Users/jkwang/Desktop/nacl_sdk/pepper_canary/toolchain/mac_pnacl/bin/../lib/clang/3.7.0/lib/i686-nacl/crtbeginT.o
 .rel.text._cleanup_r
                0x0000000000000000        0x0 /Users/jkwang/Desktop/nacl_sdk/pepper_canary/toolchain/mac_pnacl/bin/../lib/clang/3.7.0/lib/i686-nacl/crtbeginT.o
 .rel.text._cleanup
                0x0000000000000000        0x0 /Users/jkwang/Desktop/nacl_sdk/pepper_canary/toolchain/mac_pnacl/bin/../lib/clang/3.7.0/lib/i686-nacl/crtbeginT.o
 .rel.text.__fp_lock_all
                0x0000000000000000        0x0 /Users/jkwang/Desktop/nacl_sdk/pepper_canary/toolchain/mac_pnacl/bin/../lib/clang/3.7.0/lib/i686-nacl/crtbeginT.o
 .rel.text.__fp_unlock_all
                0x0000000000000000        0x0 /Users/jkwang/Desktop/nacl_sdk/pepper_canary/toolchain/mac_pnacl/bin/../lib/clang/3.7.0/lib/i686-nacl/crtbeginT.o
 .rel.text.__libc_fini_array
                0x0000000000000000        0x0 /Users/jkwang/Desktop/nacl_sdk/pepper_canary/toolchain/mac_pnacl/bin/../lib/clang/3.7.0/lib/i686-nacl/crtbeginT.o
 .rel.text._fprintf_r
                0x0000000000000000        0x0 /Users/jkwang/Desktop/nacl_sdk/pepper_canary/toolchain/mac_pnacl/bin/../lib/clang/3.7.0/lib/i686-nacl/crtbeginT.o
 .rel.text.fprintf
                0x0000000000000000        0x0 /Users/jkwang/Desktop/nacl_sdk/pepper_canary/toolchain/mac_pnacl/bin/../lib/clang/3.7.0/lib/i686-nacl/crtbeginT.o
 .rel.text._fwrite_r
                0x0000000000000000        0x0 /Users/jkwang/Desktop/nacl_sdk/pepper_canary/toolchain/mac_pnacl/bin/../lib/clang/3.7.0/lib/i686-nacl/crtbeginT.o
 .rel.text._findenv
                0x0000000000000000        0x0 /Users/jkwang/Desktop/nacl_sdk/pepper_canary/toolchain/mac_pnacl/bin/../lib/clang/3.7.0/lib/i686-nacl/crtbeginT.o
 .rel.text.getenv
                0x0000000000000000        0x0 /Users/jkwang/Desktop/nacl_sdk/pepper_canary/toolchain/mac_pnacl/bin/../lib/clang/3.7.0/lib/i686-nacl/crtbeginT.o
 .rel.text._findenv_r
                0x0000000000000000        0x0 /Users/jkwang/Desktop/nacl_sdk/pepper_canary/toolchain/mac_pnacl/bin/../lib/clang/3.7.0/lib/i686-nacl/crtbeginT.o
 .rel.text.__libc_init_array
                0x0000000000000000        0x0 /Users/jkwang/Desktop/nacl_sdk/pepper_canary/toolchain/mac_pnacl/bin/../lib/clang/3.7.0/lib/i686-nacl/crtbeginT.o
 .rel.text.sleep
                0x0000000000000000        0x0 /Users/jkwang/Desktop/nacl_sdk/pepper_canary/toolchain/mac_pnacl/bin/../lib/clang/3.7.0/lib/i686-nacl/crtbeginT.o
 .rel.text.__sread
                0x0000000000000000        0x0 /Users/jkwang/Desktop/nacl_sdk/pepper_canary/toolchain/mac_pnacl/bin/../lib/clang/3.7.0/lib/i686-nacl/crtbeginT.o
 .rel.text.__swrite
                0x0000000000000000        0x0 /Users/jkwang/Desktop/nacl_sdk/pepper_canary/toolchain/mac_pnacl/bin/../lib/clang/3.7.0/lib/i686-nacl/crtbeginT.o
 .rel.text.__sseek
                0x0000000000000000        0x0 /Users/jkwang/Desktop/nacl_sdk/pepper_canary/toolchain/mac_pnacl/bin/../lib/clang/3.7.0/lib/i686-nacl/crtbeginT.o
 .rel.text.__sclose
                0x0000000000000000        0x0 /Users/jkwang/Desktop/nacl_sdk/pepper_canary/toolchain/mac_pnacl/bin/../lib/clang/3.7.0/lib/i686-nacl/crtbeginT.o
 .rel.text.strcat
                0x0000000000000000        0x0 /Users/jkwang/Desktop/nacl_sdk/pepper_canary/toolchain/mac_pnacl/bin/../lib/clang/3.7.0/lib/i686-nacl/crtbeginT.o
 .rel.text._vfprintf_r
                0x0000000000000000        0x0 /Users/jkwang/Desktop/nacl_sdk/pepper_canary/toolchain/mac_pnacl/bin/../lib/clang/3.7.0/lib/i686-nacl/crtbeginT.o
 .rel.text.vsnprintf
                0x0000000000000000        0x0 /Users/jkwang/Desktop/nacl_sdk/pepper_canary/toolchain/mac_pnacl/bin/../lib/clang/3.7.0/lib/i686-nacl/crtbeginT.o
 .rel.text._vsnprintf_r
                0x0000000000000000        0x0 /Users/jkwang/Desktop/nacl_sdk/pepper_canary/toolchain/mac_pnacl/bin/../lib/clang/3.7.0/lib/i686-nacl/crtbeginT.o
 .rel.text.vsprintf
                0x0000000000000000        0x0 /Users/jkwang/Desktop/nacl_sdk/pepper_canary/toolchain/mac_pnacl/bin/../lib/clang/3.7.0/lib/i686-nacl/crtbeginT.o
 .rel.text._vsprintf_r
                0x0000000000000000        0x0 /Users/jkwang/Desktop/nacl_sdk/pepper_canary/toolchain/mac_pnacl/bin/../lib/clang/3.7.0/lib/i686-nacl/crtbeginT.o
 .rel.text._wcrtomb_r
                0x0000000000000000        0x0 /Users/jkwang/Desktop/nacl_sdk/pepper_canary/toolchain/mac_pnacl/bin/../lib/clang/3.7.0/lib/i686-nacl/crtbeginT.o
 .rel.text.wcrtomb
                0x0000000000000000        0x0 /Users/jkwang/Desktop/nacl_sdk/pepper_canary/toolchain/mac_pnacl/bin/../lib/clang/3.7.0/lib/i686-nacl/crtbeginT.o
 .rel.text._wcsrtombs_r
                0x0000000000000000        0x0 /Users/jkwang/Desktop/nacl_sdk/pepper_canary/toolchain/mac_pnacl/bin/../lib/clang/3.7.0/lib/i686-nacl/crtbeginT.o
 .rel.text.wcsrtombs
                0x0000000000000000        0x0 /Users/jkwang/Desktop/nacl_sdk/pepper_canary/toolchain/mac_pnacl/bin/../lib/clang/3.7.0/lib/i686-nacl/crtbeginT.o
 .rel.text._wctomb_r
                0x0000000000000000        0x0 /Users/jkwang/Desktop/nacl_sdk/pepper_canary/toolchain/mac_pnacl/bin/../lib/clang/3.7.0/lib/i686-nacl/crtbeginT.o
 .rel.text.__swsetup_r
                0x0000000000000000        0x0 /Users/jkwang/Desktop/nacl_sdk/pepper_canary/toolchain/mac_pnacl/bin/../lib/clang/3.7.0/lib/i686-nacl/crtbeginT.o
 .rel.text.__register_exitproc
                0x0000000000000000        0x0 /Users/jkwang/Desktop/nacl_sdk/pepper_canary/toolchain/mac_pnacl/bin/../lib/clang/3.7.0/lib/i686-nacl/crtbeginT.o
 .rel.text._dtoa_r
                0x0000000000000000        0x0 /Users/jkwang/Desktop/nacl_sdk/pepper_canary/toolchain/mac_pnacl/bin/../lib/clang/3.7.0/lib/i686-nacl/crtbeginT.o
 .rel.text.quorem
                0x0000000000000000        0x0 /Users/jkwang/Desktop/nacl_sdk/pepper_canary/toolchain/mac_pnacl/bin/../lib/clang/3.7.0/lib/i686-nacl/crtbeginT.o
 .rel.text.__sfvwrite_r
                0x0000000000000000        0x0 /Users/jkwang/Desktop/nacl_sdk/pepper_canary/toolchain/mac_pnacl/bin/../lib/clang/3.7.0/lib/i686-nacl/crtbeginT.o
 .rel.text._setlocale_r
                0x0000000000000000        0x0 /Users/jkwang/Desktop/nacl_sdk/pepper_canary/toolchain/mac_pnacl/bin/../lib/clang/3.7.0/lib/i686-nacl/crtbeginT.o
 .rel.text.loadlocale
                0x0000000000000000        0x0 /Users/jkwang/Desktop/nacl_sdk/pepper_canary/toolchain/mac_pnacl/bin/../lib/clang/3.7.0/lib/i686-nacl/crtbeginT.o
 .rel.text.__smakebuf_r
                0x0000000000000000        0x0 /Users/jkwang/Desktop/nacl_sdk/pepper_canary/toolchain/mac_pnacl/bin/../lib/clang/3.7.0/lib/i686-nacl/crtbeginT.o
 .rel.text.strcasecmp
                0x0000000000000000        0x0 /Users/jkwang/Desktop/nacl_sdk/pepper_canary/toolchain/mac_pnacl/bin/../lib/clang/3.7.0/lib/i686-nacl/crtbeginT.o
 .rel.text.strncasecmp
                0x0000000000000000        0x0 /Users/jkwang/Desktop/nacl_sdk/pepper_canary/toolchain/mac_pnacl/bin/../lib/clang/3.7.0/lib/i686-nacl/crtbeginT.o
 .rel.text._strtol_r
                0x0000000000000000        0x0 /Users/jkwang/Desktop/nacl_sdk/pepper_canary/toolchain/mac_pnacl/bin/../lib/clang/3.7.0/lib/i686-nacl/crtbeginT.o
 .rel.text._svfprintf_r
                0x0000000000000000        0x0 /Users/jkwang/Desktop/nacl_sdk/pepper_canary/toolchain/mac_pnacl/bin/../lib/clang/3.7.0/lib/i686-nacl/crtbeginT.o
 .rel.text.__sprint_r
                0x0000000000000000        0x0 /Users/jkwang/Desktop/nacl_sdk/pepper_canary/toolchain/mac_pnacl/bin/../lib/clang/3.7.0/lib/i686-nacl/crtbeginT.o
 .rel.text._vfiprintf_r
                0x0000000000000000        0x0 /Users/jkwang/Desktop/nacl_sdk/pepper_canary/toolchain/mac_pnacl/bin/../lib/clang/3.7.0/lib/i686-nacl/crtbeginT.o
 .rel.text._fputwc_r
                0x0000000000000000        0x0 /Users/jkwang/Desktop/nacl_sdk/pepper_canary/toolchain/mac_pnacl/bin/../lib/clang/3.7.0/lib/i686-nacl/crtbeginT.o
 .rel.text._svfiprintf_r
                0x0000000000000000        0x0 /Users/jkwang/Desktop/nacl_sdk/pepper_canary/toolchain/mac_pnacl/bin/../lib/clang/3.7.0/lib/i686-nacl/crtbeginT.o
 *(.rel.fini)
 *(.rel.rodata .rel.rodata.* .rel.gnu.linkonce.r.*)
 *(.rel.data.rel.ro .rel.data.rel.ro.* .rel.gnu.linkonce.d.rel.ro.*)
 *(.rel.data .rel.data.* .rel.gnu.linkonce.d.*)
 *(.rel.tdata .rel.tdata.* .rel.gnu.linkonce.td.*)
 *(.rel.tbss .rel.tbss.* .rel.gnu.linkonce.tb.*)
 *(.rel.ctors)
 *(.rel.dtors)
 *(.rel.got)
 .rel.got       0x0000000000000000        0x0 /Users/jkwang/Desktop/nacl_sdk/pepper_canary/toolchain/mac_pnacl/bin/../lib/clang/3.7.0/lib/i686-nacl/crtbeginT.o
 *(.rel.bss .rel.bss.* .rel.gnu.linkonce.b.*)
 *(.rel.ifunc)

.rel.plt        0x0000000010020134        0x0
 *(.rel.plt)
                0x0000000010020134                PROVIDE (__rel_iplt_start, .)
 *(.rel.iplt)
 .rel.iplt      0x0000000000000000        0x0 /Users/jkwang/Desktop/nacl_sdk/pepper_canary/toolchain/mac_pnacl/bin/../lib/clang/3.7.0/lib/i686-nacl/crtbeginT.o
                0x0000000010020134                PROVIDE (__rel_iplt_end, .)

.rodata         0x0000000010020140     0x13e8
 *(.rodata .rodata.* .gnu.linkonce.r.*)
 .rodata.str1.1
                0x0000000010020140       0xd6 clang-newlib/Release/debugging_x86_32.o
 .rodata        0x0000000010020216        0x6 clang-newlib/Release/debugging_x86_32.o
 .rodata.str1.1
                0x000000001002021c      0x1ba /Users/jkwang/Desktop/nacl_sdk/pepper_canary/lib/clang-newlib_x86_32/Release/liberror_handling.a(error_handling_x86_32.o)
                                        0x1c1 (size before relaxing)
 .rodata.str1.1
                0x00000000100203d6       0xad /Users/jkwang/Desktop/nacl_sdk/pepper_canary/toolchain/mac_pnacl/bin/../x86_64-nacl/lib32/libppapi_stub.a(ppapi_plugin_start.o)
 .rodata.str1.1
                0x0000000010020483       0x22 /Users/jkwang/Desktop/nacl_sdk/pepper_canary/toolchain/mac_pnacl/bin/../x86_64-nacl/lib32/libpthread.a(nc_thread.o)
 .rodata.str1.1
                0x00000000100204a5       0x14 /Users/jkwang/Desktop/nacl_sdk/pepper_canary/toolchain/mac_pnacl/bin/../x86_64-nacl/lib32/libpthread.a(valgrind_annotations.o)
                                         0x16 (size before relaxing)
 .rodata.str1.1
                0x00000000100204b9       0x27 /Users/jkwang/Desktop/nacl_sdk/pepper_canary/toolchain/mac_pnacl/bin/../x86_64-nacl/lib32/libpthread.a(nc_init_irt.o)
 .rodata.str1.1
                0x00000000100204e0       0x55 /Users/jkwang/Desktop/nacl_sdk/pepper_canary/toolchain/mac_pnacl/bin/../x86_64-nacl/lib32/libnacl.a(nacl_irt.o)
 *fill*         0x0000000010020535        0xb 
 .rodata.cst16  0x0000000010020540       0x50 /Users/jkwang/Desktop/nacl_sdk/pepper_canary/toolchain/mac_pnacl/bin/../x86_64-nacl/lib32/libnacl.a(malloc.o)
 .rodata.str1.1
                0x0000000010020590       0x4e /Users/jkwang/Desktop/nacl_sdk/pepper_canary/toolchain/mac_pnacl/bin/../x86_64-nacl/lib32/libnacl.a(malloc.o)
 .rodata.str1.1
                0x00000000100205de       0x88 /Users/jkwang/Desktop/nacl_sdk/pepper_canary/toolchain/mac_pnacl/bin/../x86_64-nacl/lib32/libnacl.a(nacl_irt_init.o)
 .rodata        0x0000000010020666       0x13 /Users/jkwang/Desktop/nacl_sdk/pepper_canary/toolchain/mac_pnacl/bin/../x86_64-nacl/lib32/libnacl.a(abort.o)
 *fill*         0x0000000010020679        0x3 
 .rodata._global_impure_ptr
                0x000000001002067c        0x4 /Users/jkwang/Desktop/nacl_sdk/pepper_canary/toolchain/mac_pnacl/bin/../x86_64-nacl/lib32/libcrt_common.a(lib_a-impure.o)
                0x000000001002067c                _global_impure_ptr
 .rodata.str1.1
                0x0000000000000000       0x88 /Users/jkwang/Desktop/nacl_sdk/pepper_canary/toolchain/mac_pnacl/bin/../x86_64-nacl/lib32/libcrt_common.a(lib_a-impure.o)
                                          0x2 (size before relaxing)
 .rodata.cst16  0x0000000010020680       0x20 /Users/jkwang/Desktop/nacl_sdk/pepper_canary/toolchain/mac_pnacl/bin/../x86_64-nacl/lib32/libcrt_common.a(lib_a-vfprintf.o)
 .rodata.cst8   0x00000000100206a0       0x20 /Users/jkwang/Desktop/nacl_sdk/pepper_canary/toolchain/mac_pnacl/bin/../x86_64-nacl/lib32/libcrt_common.a(lib_a-vfprintf.o)
 .rodata._vfprintf_r
                0x00000000100206c0      0x14c /Users/jkwang/Desktop/nacl_sdk/pepper_canary/toolchain/mac_pnacl/bin/../x86_64-nacl/lib32/libcrt_common.a(lib_a-vfprintf.o)
 .rodata._vfprintf_r.blanks
                0x000000001002080c       0x10 /Users/jkwang/Desktop/nacl_sdk/pepper_canary/toolchain/mac_pnacl/bin/../x86_64-nacl/lib32/libcrt_common.a(lib_a-vfprintf.o)
 .rodata._vfprintf_r.zeroes
                0x000000001002081c       0x10 /Users/jkwang/Desktop/nacl_sdk/pepper_canary/toolchain/mac_pnacl/bin/../x86_64-nacl/lib32/libcrt_common.a(lib_a-vfprintf.o)
 .rodata.str1.1
                0x000000001002082c       0x53 /Users/jkwang/Desktop/nacl_sdk/pepper_canary/toolchain/mac_pnacl/bin/../x86_64-nacl/lib32/libcrt_common.a(lib_a-vfprintf.o)
                                         0x55 (size before relaxing)
 *fill*         0x000000001002087f        0x1 
 .rodata.cst8   0x0000000010020880       0x50 /Users/jkwang/Desktop/nacl_sdk/pepper_canary/toolchain/mac_pnacl/bin/../x86_64-nacl/lib32/libcrt_common.a(lib_a-dtoa.o)
                                         0x58 (size before relaxing)
 .rodata.cst16  0x0000000000000000       0x10 /Users/jkwang/Desktop/nacl_sdk/pepper_canary/toolchain/mac_pnacl/bin/../x86_64-nacl/lib32/libcrt_common.a(lib_a-dtoa.o)
 .rodata._dtoa_r
                0x00000000100208d0       0x18 /Users/jkwang/Desktop/nacl_sdk/pepper_canary/toolchain/mac_pnacl/bin/../x86_64-nacl/lib32/libcrt_common.a(lib_a-dtoa.o)
 .rodata.str1.1
                0x00000000100208e8        0xd /Users/jkwang/Desktop/nacl_sdk/pepper_canary/toolchain/mac_pnacl/bin/../x86_64-nacl/lib32/libcrt_common.a(lib_a-dtoa.o)
                                          0xf (size before relaxing)
 *fill*         0x00000000100208f5        0x3 
 .rodata.loadlocale
                0x00000000100208f8       0xd4 /Users/jkwang/Desktop/nacl_sdk/pepper_canary/toolchain/mac_pnacl/bin/../x86_64-nacl/lib32/libcrt_common.a(lib_a-locale.o)
 .rodata.str1.1
                0x00000000100209cc       0xe8 /Users/jkwang/Desktop/nacl_sdk/pepper_canary/toolchain/mac_pnacl/bin/../x86_64-nacl/lib32/libcrt_common.a(lib_a-locale.o)
                                         0xf4 (size before relaxing)
 .rodata.categories
                0x0000000010020ab4       0x1c /Users/jkwang/Desktop/nacl_sdk/pepper_canary/toolchain/mac_pnacl/bin/../x86_64-nacl/lib32/libcrt_common.a(lib_a-locale.o)
 .rodata.__jis_mbtowc
                0x0000000010020ad0       0x18 /Users/jkwang/Desktop/nacl_sdk/pepper_canary/toolchain/mac_pnacl/bin/../x86_64-nacl/lib32/libcrt_common.a(lib_a-mbtowc_r.o)
 .rodata.JIS_action_table
                0x0000000010020ae8      0x120 /Users/jkwang/Desktop/nacl_sdk/pepper_canary/toolchain/mac_pnacl/bin/../x86_64-nacl/lib32/libcrt_common.a(lib_a-mbtowc_r.o)
 .rodata.JIS_state_table
                0x0000000010020c08      0x120 /Users/jkwang/Desktop/nacl_sdk/pepper_canary/toolchain/mac_pnacl/bin/../x86_64-nacl/lib32/libcrt_common.a(lib_a-mbtowc_r.o)
 .rodata.cst8   0x0000000010020d28        0x8 /Users/jkwang/Desktop/nacl_sdk/pepper_canary/toolchain/mac_pnacl/bin/../x86_64-nacl/lib32/libcrt_common.a(lib_a-mprec.o)
                                         0x18 (size before relaxing)
 .rodata.__pow5mult.p05
                0x0000000010020d30        0xc /Users/jkwang/Desktop/nacl_sdk/pepper_canary/toolchain/mac_pnacl/bin/../x86_64-nacl/lib32/libcrt_common.a(lib_a-mprec.o)
 *fill*         0x0000000010020d3c        0x4 
 .rodata.__mprec_tens
                0x0000000010020d40       0xc8 /Users/jkwang/Desktop/nacl_sdk/pepper_canary/toolchain/mac_pnacl/bin/../x86_64-nacl/lib32/libcrt_common.a(lib_a-mprec.o)
                0x0000000010020d40                __mprec_tens
 .rodata.__mprec_bigtens
                0x0000000010020e08       0x28 /Users/jkwang/Desktop/nacl_sdk/pepper_canary/toolchain/mac_pnacl/bin/../x86_64-nacl/lib32/libcrt_common.a(lib_a-mprec.o)
                0x0000000010020e08                __mprec_bigtens
 .rodata.__mprec_tinytens
                0x0000000010020e30       0x28 /Users/jkwang/Desktop/nacl_sdk/pepper_canary/toolchain/mac_pnacl/bin/../x86_64-nacl/lib32/libcrt_common.a(lib_a-mprec.o)
                0x0000000010020e30                __mprec_tinytens
 .rodata.cst8   0x0000000010020e58        0x8 /Users/jkwang/Desktop/nacl_sdk/pepper_canary/toolchain/mac_pnacl/bin/../x86_64-nacl/lib32/libcrt_common.a(lib_a-s_frexp.o)
 .rodata.cst16  0x0000000000000000       0x20 /Users/jkwang/Desktop/nacl_sdk/pepper_canary/toolchain/mac_pnacl/bin/../x86_64-nacl/lib32/libcrt_common.a(lib_a-svfprintf.o)
 .rodata.cst8   0x0000000000000000       0x20 /Users/jkwang/Desktop/nacl_sdk/pepper_canary/toolchain/mac_pnacl/bin/../x86_64-nacl/lib32/libcrt_common.a(lib_a-svfprintf.o)
 .rodata._svfprintf_r
                0x0000000010020e60      0x14c /Users/jkwang/Desktop/nacl_sdk/pepper_canary/toolchain/mac_pnacl/bin/../x86_64-nacl/lib32/libcrt_common.a(lib_a-svfprintf.o)
 .rodata._svfprintf_r.blanks
                0x0000000010020fac       0x10 /Users/jkwang/Desktop/nacl_sdk/pepper_canary/toolchain/mac_pnacl/bin/../x86_64-nacl/lib32/libcrt_common.a(lib_a-svfprintf.o)
 .rodata._svfprintf_r.zeroes
                0x0000000010020fbc       0x10 /Users/jkwang/Desktop/nacl_sdk/pepper_canary/toolchain/mac_pnacl/bin/../x86_64-nacl/lib32/libcrt_common.a(lib_a-svfprintf.o)
 .rodata.str1.1
                0x0000000000000000       0x55 /Users/jkwang/Desktop/nacl_sdk/pepper_canary/toolchain/mac_pnacl/bin/../x86_64-nacl/lib32/libcrt_common.a(lib_a-svfprintf.o)
 .rodata._vfiprintf_r
                0x0000000010020fcc      0x11c /Users/jkwang/Desktop/nacl_sdk/pepper_canary/toolchain/mac_pnacl/bin/../x86_64-nacl/lib32/libcrt_common.a(lib_a-vfiprintf.o)
 .rodata._vfiprintf_r.blanks
                0x00000000100210e8       0x10 /Users/jkwang/Desktop/nacl_sdk/pepper_canary/toolchain/mac_pnacl/bin/../x86_64-nacl/lib32/libcrt_common.a(lib_a-vfiprintf.o)
 .rodata._vfiprintf_r.zeroes
                0x00000000100210f8       0x10 /Users/jkwang/Desktop/nacl_sdk/pepper_canary/toolchain/mac_pnacl/bin/../x86_64-nacl/lib32/libcrt_common.a(lib_a-vfiprintf.o)
 .rodata.str1.1
                0x0000000000000000       0x43 /Users/jkwang/Desktop/nacl_sdk/pepper_canary/toolchain/mac_pnacl/bin/../x86_64-nacl/lib32/libcrt_common.a(lib_a-vfiprintf.o)
 .rodata._ctype_b
                0x0000000010021108      0x180 /Users/jkwang/Desktop/nacl_sdk/pepper_canary/toolchain/mac_pnacl/bin/../x86_64-nacl/lib32/libcrt_common.a(lib_a-ctype_.o)
 .rodata._ctype_
                0x0000000010021288      0x101 /Users/jkwang/Desktop/nacl_sdk/pepper_canary/toolchain/mac_pnacl/bin/../x86_64-nacl/lib32/libcrt_common.a(lib_a-ctype_.o)
                0x0000000010021288                _ctype_
 *fill*         0x0000000010021389        0x3 
 .rodata._svfiprintf_r
                0x000000001002138c      0x11c /Users/jkwang/Desktop/nacl_sdk/pepper_canary/toolchain/mac_pnacl/bin/../x86_64-nacl/lib32/libcrt_common.a(lib_a-svfiprintf.o)
 .rodata._svfiprintf_r.blanks
                0x00000000100214a8       0x10 /Users/jkwang/Desktop/nacl_sdk/pepper_canary/toolchain/mac_pnacl/bin/../x86_64-nacl/lib32/libcrt_common.a(lib_a-svfiprintf.o)
 .rodata._svfiprintf_r.zeroes
                0x00000000100214b8       0x10 /Users/jkwang/Desktop/nacl_sdk/pepper_canary/toolchain/mac_pnacl/bin/../x86_64-nacl/lib32/libcrt_common.a(lib_a-svfiprintf.o)
 .rodata.str1.1
                0x0000000000000000       0x43 /Users/jkwang/Desktop/nacl_sdk/pepper_canary/toolchain/mac_pnacl/bin/../x86_64-nacl/lib32/libcrt_common.a(lib_a-svfiprintf.o)
 .rodata.str1.1
                0x00000000100214c8       0x2c /Users/jkwang/Desktop/nacl_sdk/pepper_canary/toolchain/mac_pnacl/bin/../x86_64-nacl/lib32/libnacl.a(nacl_irt_fdio.o)
                                         0x42 (size before relaxing)
 .rodata        0x00000000100214f4       0x34 /Users/jkwang/Desktop/nacl_sdk/pepper_canary/toolchain/mac_pnacl/bin/../lib/clang/3.7.0/lib/i686-nacl/libgcc_eh.a(unwind-dw2-fde-glibc.o)

.rodata1
 *(.rodata1)

.eh_frame_hdr
 *(.eh_frame_hdr)

.eh_frame
 *(.eh_frame)

.gcc_except_table
 *(.gcc_except_table .gcc_except_table.*)

.exception_ranges
 *(.exception_ranges .exception_ranges*)
                0x0000000010021528                . = (ALIGN (0x10000) - ((0x10000 - .) & 0xffff))
                0x0000000010031528                . = DATA_SEGMENT_ALIGN (0x10000, 0x10000)

.eh_frame       0x0000000010031528     0x1380
 *(.eh_frame)
 .eh_frame      0x0000000010031528        0x0 /Users/jkwang/Desktop/nacl_sdk/pepper_canary/toolchain/mac_pnacl/bin/../lib/clang/3.7.0/lib/i686-nacl/crtbeginT.o
 .eh_frame      0x0000000010031528      0x3cc /Users/jkwang/Desktop/nacl_sdk/pepper_canary/toolchain/mac_pnacl/bin/../x86_64-nacl/lib32/libpthread.a(nc_thread.o)
 .eh_frame      0x00000000100318f4      0x144 /Users/jkwang/Desktop/nacl_sdk/pepper_canary/toolchain/mac_pnacl/bin/../x86_64-nacl/lib32/libpthread.a(nc_mutex.o)
                                        0x15c (size before relaxing)
 .eh_frame      0x0000000010031a38      0x110 /Users/jkwang/Desktop/nacl_sdk/pepper_canary/toolchain/mac_pnacl/bin/../x86_64-nacl/lib32/libpthread.a(nc_condvar.o)
                                        0x128 (size before relaxing)
 .eh_frame      0x0000000010031b48      0x2f8 /Users/jkwang/Desktop/nacl_sdk/pepper_canary/toolchain/mac_pnacl/bin/../x86_64-nacl/lib32/libpthread.a(valgrind_annotations.o)
                                        0x310 (size before relaxing)
 .eh_frame      0x0000000010031e40       0x14 /Users/jkwang/Desktop/nacl_sdk/pepper_canary/toolchain/mac_pnacl/bin/../x86_64-nacl/lib32/libpthread.a(nc_init_irt.o)
                                         0x2c (size before relaxing)
 .eh_frame      0x0000000010031e54      0x114 /Users/jkwang/Desktop/nacl_sdk/pepper_canary/toolchain/mac_pnacl/bin/../x86_64-nacl/lib32/libnacl.a(nacl_irt.o)
                                        0x12c (size before relaxing)
 .eh_frame      0x0000000010031f68       0x14 /Users/jkwang/Desktop/nacl_sdk/pepper_canary/toolchain/mac_pnacl/bin/../x86_64-nacl/lib32/libnacl.a(_exit.o)
                                         0x2c (size before relaxing)
 .eh_frame      0x0000000010031f7c       0x28 /Users/jkwang/Desktop/nacl_sdk/pepper_canary/toolchain/mac_pnacl/bin/../x86_64-nacl/lib32/libnacl.a(mmap.o)
                                         0x40 (size before relaxing)
 .eh_frame      0x0000000010031fa4       0x1c /Users/jkwang/Desktop/nacl_sdk/pepper_canary/toolchain/mac_pnacl/bin/../x86_64-nacl/lib32/libnacl.a(munmap.o)
                                         0x34 (size before relaxing)
 .eh_frame      0x0000000010031fc0       0x14 /Users/jkwang/Desktop/nacl_sdk/pepper_canary/toolchain/mac_pnacl/bin/../x86_64-nacl/lib32/libnacl.a(nacl_interface_query.o)
                                         0x2c (size before relaxing)
 .eh_frame      0x0000000010031fd4       0x20 /Users/jkwang/Desktop/nacl_sdk/pepper_canary/toolchain/mac_pnacl/bin/../x86_64-nacl/lib32/libnacl.a(write.o)
                                         0x38 (size before relaxing)
 .eh_frame      0x0000000010031ff4      0x3b8 /Users/jkwang/Desktop/nacl_sdk/pepper_canary/toolchain/mac_pnacl/bin/../x86_64-nacl/lib32/libnacl.a(malloc.o)
                                        0x3d0 (size before relaxing)
 .eh_frame      0x00000000100323ac       0x28 /Users/jkwang/Desktop/nacl_sdk/pepper_canary/toolchain/mac_pnacl/bin/../x86_64-nacl/lib32/libnacl.a(start.o)
                                         0x40 (size before relaxing)
 .eh_frame      0x00000000100323d4       0x14 /Users/jkwang/Desktop/nacl_sdk/pepper_canary/toolchain/mac_pnacl/bin/../x86_64-nacl/lib32/libnacl.a(nacl_read_tp.o)
                                         0x2c (size before relaxing)
 .eh_frame      0x00000000100323e8       0x1c /Users/jkwang/Desktop/nacl_sdk/pepper_canary/toolchain/mac_pnacl/bin/../x86_64-nacl/lib32/libnacl.a(pthread_initialize_minimal.o)
                                         0x34 (size before relaxing)
 .eh_frame      0x0000000010032404       0x54 /Users/jkwang/Desktop/nacl_sdk/pepper_canary/toolchain/mac_pnacl/bin/../x86_64-nacl/lib32/libnacl.a(tls.o)
                                         0x6c (size before relaxing)
 .eh_frame      0x0000000010032458       0x30 /Users/jkwang/Desktop/nacl_sdk/pepper_canary/toolchain/mac_pnacl/bin/../x86_64-nacl/lib32/libnacl.a(nacl_irt_init.o)
                                         0x48 (size before relaxing)
 .eh_frame      0x0000000010032488       0x14 /Users/jkwang/Desktop/nacl_sdk/pepper_canary/toolchain/mac_pnacl/bin/../x86_64-nacl/lib32/libnacl.a(nacl_tls_get.o)
                                         0x2c (size before relaxing)
 .eh_frame      0x000000001003249c       0x14 /Users/jkwang/Desktop/nacl_sdk/pepper_canary/toolchain/mac_pnacl/bin/../x86_64-nacl/lib32/libnacl.a(nacl_tls_init.o)
                                         0x2c (size before relaxing)
 .eh_frame      0x00000000100324b0       0x14 /Users/jkwang/Desktop/nacl_sdk/pepper_canary/toolchain/mac_pnacl/bin/../x86_64-nacl/lib32/libnacl.a(abort.o)
                                         0x2c (size before relaxing)
 .eh_frame      0x00000000100324c4       0x1c /Users/jkwang/Desktop/nacl_sdk/pepper_canary/toolchain/mac_pnacl/bin/../x86_64-nacl/lib32/libnacl.a(sched_yield.o)
                                         0x34 (size before relaxing)
 .eh_frame      0x00000000100324e0       0x1c /Users/jkwang/Desktop/nacl_sdk/pepper_canary/toolchain/mac_pnacl/bin/../x86_64-nacl/lib32/libnacl.a(sysconf.o)
                                         0x34 (size before relaxing)
 .eh_frame      0x00000000100324fc       0x1c /Users/jkwang/Desktop/nacl_sdk/pepper_canary/toolchain/mac_pnacl/bin/../x86_64-nacl/lib32/libnacl.a(close.o)
                                         0x34 (size before relaxing)
 .eh_frame      0x0000000010032518       0x1c /Users/jkwang/Desktop/nacl_sdk/pepper_canary/toolchain/mac_pnacl/bin/../x86_64-nacl/lib32/libnacl.a(fstat.o)
                                         0x34 (size before relaxing)
 .eh_frame      0x0000000010032534       0x20 /Users/jkwang/Desktop/nacl_sdk/pepper_canary/toolchain/mac_pnacl/bin/../x86_64-nacl/lib32/libnacl.a(isatty.o)
                                         0x38 (size before relaxing)
 .eh_frame      0x0000000010032554       0x24 /Users/jkwang/Desktop/nacl_sdk/pepper_canary/toolchain/mac_pnacl/bin/../x86_64-nacl/lib32/libnacl.a(lseek.o)
                                         0x3c (size before relaxing)
 .eh_frame      0x0000000010032578       0x1c /Users/jkwang/Desktop/nacl_sdk/pepper_canary/toolchain/mac_pnacl/bin/../x86_64-nacl/lib32/libnacl.a(nanosleep.o)
                                         0x34 (size before relaxing)
 .eh_frame      0x0000000010032594       0x14 /Users/jkwang/Desktop/nacl_sdk/pepper_canary/toolchain/mac_pnacl/bin/../x86_64-nacl/lib32/libnacl.a(nacl_irt_fdio.o)
                                         0x2c (size before relaxing)
 .eh_frame      0x00000000100325a8       0x20 /Users/jkwang/Desktop/nacl_sdk/pepper_canary/toolchain/mac_pnacl/bin/../x86_64-nacl/lib32/libnacl.a(read.o)
                                         0x38 (size before relaxing)
 .eh_frame      0x00000000100325c8      0x2dc /Users/jkwang/Desktop/nacl_sdk/pepper_canary/toolchain/mac_pnacl/bin/../lib/clang/3.7.0/lib/i686-nacl/libgcc_eh.a(unwind-dw2-fde-glibc.o)
 .eh_frame      0x00000000100328a4        0x4 /Users/jkwang/Desktop/nacl_sdk/pepper_canary/toolchain/mac_pnacl/bin/../lib/clang/3.7.0/lib/i686-nacl/crtend.o

.gcc_except_table
 *(.gcc_except_table .gcc_except_table.*)

.exception_ranges
 *(.exception_ranges .exception_ranges*)

.tdata          0x00000000100328a8      0x478
 *(.tdata .tdata.* .gnu.linkonce.td.*)
 .tdata._impure_ptr
                0x00000000100328a8        0x4 /Users/jkwang/Desktop/nacl_sdk/pepper_canary/toolchain/mac_pnacl/bin/../x86_64-nacl/lib32/libcrt_common.a(lib_a-impure.o)
                0x00000000100328a8                _impure_ptr
 *fill*         0x00000000100328ac        0x4 
 .tdata.impure_data
                0x00000000100328b0      0x470 /Users/jkwang/Desktop/nacl_sdk/pepper_canary/toolchain/mac_pnacl/bin/../x86_64-nacl/lib32/libcrt_common.a(lib_a-impure.o)

.tbss           0x0000000010032d20        0x8
 *(.tbss .tbss.* .gnu.linkonce.tb.*)
 .tbss          0x0000000010032d20        0x8 /Users/jkwang/Desktop/nacl_sdk/pepper_canary/toolchain/mac_pnacl/bin/../x86_64-nacl/lib32/libpthread.a(nc_thread.o)
 *(.tcommon)

.preinit_array  0x0000000010032d20        0x0
                0x0000000010032d20                PROVIDE (__preinit_array_start, .)
 *(.preinit_array)
                0x0000000010032d20                PROVIDE (__preinit_array_end, .)

.init_array     0x0000000010032d20        0x4
                0x0000000010032d20                PROVIDE (__init_array_start, .)
 *(SORT(.init_array.*) SORT(.ctors.*))
 *(.init_array EXCLUDE_FILE(*crtend?.o *crtend.o *crtbegin?.o *crtbegin.o) .ctors)
 .init_array    0x0000000010032d20        0x4 /Users/jkwang/Desktop/nacl_sdk/pepper_canary/toolchain/mac_pnacl/bin/../lib/clang/3.7.0/lib/i686-nacl/crtbeginT.o
                0x0000000010032d24                PROVIDE (__init_array_end, .)

.fini_array     0x0000000010032d24        0x4
                0x0000000010032d24                PROVIDE (__fini_array_start, .)
 *(SORT(.fini_array.*) SORT(.dtors.*))
 *(.fini_array EXCLUDE_FILE(*crtend?.o *crtend.o *crtbegin?.o *crtbegin.o) .dtors)
 .fini_array    0x0000000010032d24        0x4 /Users/jkwang/Desktop/nacl_sdk/pepper_canary/toolchain/mac_pnacl/bin/../lib/clang/3.7.0/lib/i686-nacl/crtbeginT.o
                0x0000000010032d28                PROVIDE (__fini_array_end, .)

.ctors
 *crtbegin.o(.ctors)
 *crtbegin?.o(.ctors)
 *(EXCLUDE_FILE(*crtend?.o *crtend.o) .ctors)
 *(SORT(.ctors.*))
 *(.ctors)

.dtors
 *crtbegin.o(.dtors)
 *crtbegin?.o(.dtors)
 *(EXCLUDE_FILE(*crtend?.o *crtend.o) .dtors)
 *(SORT(.dtors.*))
 *(.dtors)

.jcr
 *(.jcr)

.data.rel.ro    0x0000000010032d28       0x14
 *(.data.rel.ro.local* .gnu.linkonce.d.rel.ro.local.*)
 .data.rel.ro.local.thread_funcs
                0x0000000010032d28        0x8 /Users/jkwang/Desktop/nacl_sdk/pepper_canary/toolchain/mac_pnacl/bin/../x86_64-nacl/lib32/libppapi_stub.a(thread_creator.o)
 *(.data.rel.ro .data.rel.ro.* .gnu.linkonce.d.rel.ro.*)
 .data.rel.ro.ppapi_app_start_callbacks
                0x0000000010032d30        0xc /Users/jkwang/Desktop/nacl_sdk/pepper_canary/toolchain/mac_pnacl/bin/../x86_64-nacl/lib32/libppapi_stub.a(ppapi_plugin_main.o)

.dynamic
 *(.dynamic)

.got            0x0000000010032d3c        0x0
 *(.got)
 .got           0x0000000000000000        0x0 /Users/jkwang/Desktop/nacl_sdk/pepper_canary/toolchain/mac_pnacl/bin/../lib/clang/3.7.0/lib/i686-nacl/crtbeginT.o
 *(.igot)
                0x0000000010032d3c                . = DATA_SEGMENT_RELRO_END (., (SIZEOF (.got.plt) >= 0xc)?0xc:0x0)

.got.plt        0x0000000010032d3c        0xc
 *(.got.plt)
 .got.plt       0x0000000010032d3c        0xc /Users/jkwang/Desktop/nacl_sdk/pepper_canary/toolchain/mac_pnacl/bin/../lib/clang/3.7.0/lib/i686-nacl/crtbeginT.o
                0x0000000010032d3c                _GLOBAL_OFFSET_TABLE_
 *(.igot.plt)
 .igot.plt      0x0000000000000000        0x0 /Users/jkwang/Desktop/nacl_sdk/pepper_canary/toolchain/mac_pnacl/bin/../lib/clang/3.7.0/lib/i686-nacl/crtbeginT.o

.data           0x0000000010032d48      0x690
 *(.data .data.* .gnu.linkonce.d.*)
 .data          0x0000000010032d48        0x0 /Users/jkwang/Desktop/nacl_sdk/pepper_canary/toolchain/mac_pnacl/bin/../x86_64-nacl/lib32/crti.o
 .data          0x0000000010032d48        0x0 /Users/jkwang/Desktop/nacl_sdk/pepper_canary/toolchain/mac_pnacl/bin/../lib/clang/3.7.0/lib/i686-nacl/crtbeginT.o
 .data          0x0000000010032d48       0x18 clang-newlib/Release/debugging_x86_32.o
 .data          0x0000000010032d60        0x0 /Users/jkwang/Desktop/nacl_sdk/pepper_canary/lib/clang-newlib_x86_32/Release/liberror_handling.a(error_handling_x86_32.o)
 .data          0x0000000010032d60        0x0 /Users/jkwang/Desktop/nacl_sdk/pepper_canary/lib/clang-newlib_x86_32/Release/liberror_handling.a(string_stream_x86_32.o)
 .data          0x0000000010032d60        0x0 /Users/jkwang/Desktop/nacl_sdk/pepper_canary/toolchain/mac_pnacl/bin/../x86_64-nacl/lib32/libppapi_stub.a(plugin_main_irt.o)
 .data          0x0000000010032d60        0x0 /Users/jkwang/Desktop/nacl_sdk/pepper_canary/toolchain/mac_pnacl/bin/../x86_64-nacl/lib32/libppapi_stub.a(ppapi_plugin_main.o)
 .data          0x0000000010032d60        0x0 /Users/jkwang/Desktop/nacl_sdk/pepper_canary/toolchain/mac_pnacl/bin/../x86_64-nacl/lib32/libppapi_stub.a(ppapi_plugin_start.o)
 .data          0x0000000010032d60        0x0 /Users/jkwang/Desktop/nacl_sdk/pepper_canary/toolchain/mac_pnacl/bin/../x86_64-nacl/lib32/libppapi_stub.a(thread_creator.o)
 .data          0x0000000010032d60        0x4 /Users/jkwang/Desktop/nacl_sdk/pepper_canary/toolchain/mac_pnacl/bin/../x86_64-nacl/lib32/libpthread.a(nc_thread.o)
 .data          0x0000000010032d64        0x0 /Users/jkwang/Desktop/nacl_sdk/pepper_canary/toolchain/mac_pnacl/bin/../x86_64-nacl/lib32/libpthread.a(nc_mutex.o)
 .data          0x0000000010032d64        0x0 /Users/jkwang/Desktop/nacl_sdk/pepper_canary/toolchain/mac_pnacl/bin/../x86_64-nacl/lib32/libpthread.a(nc_condvar.o)
 .data          0x0000000010032d64        0x4 /Users/jkwang/Desktop/nacl_sdk/pepper_canary/toolchain/mac_pnacl/bin/../x86_64-nacl/lib32/libpthread.a(valgrind_annotations.o)
 .data          0x0000000010032d68        0x0 /Users/jkwang/Desktop/nacl_sdk/pepper_canary/toolchain/mac_pnacl/bin/../x86_64-nacl/lib32/libpthread.a(nc_init_irt.o)
 .data          0x0000000010032d68       0x20 /Users/jkwang/Desktop/nacl_sdk/pepper_canary/toolchain/mac_pnacl/bin/../x86_64-nacl/lib32/libnacl.a(nacl_irt.o)
                0x0000000010032d68                __libnacl_irt_fdio
 .data          0x0000000010032d88        0x0 /Users/jkwang/Desktop/nacl_sdk/pepper_canary/toolchain/mac_pnacl/bin/../x86_64-nacl/lib32/libnacl.a(_exit.o)
 .data          0x0000000010032d88        0x0 /Users/jkwang/Desktop/nacl_sdk/pepper_canary/toolchain/mac_pnacl/bin/../x86_64-nacl/lib32/libnacl.a(mmap.o)
 .data          0x0000000010032d88        0x0 /Users/jkwang/Desktop/nacl_sdk/pepper_canary/toolchain/mac_pnacl/bin/../x86_64-nacl/lib32/libnacl.a(munmap.o)
 .data          0x0000000010032d88        0x0 /Users/jkwang/Desktop/nacl_sdk/pepper_canary/toolchain/mac_pnacl/bin/../x86_64-nacl/lib32/libnacl.a(nacl_interface_query.o)
 .data          0x0000000010032d88        0x0 /Users/jkwang/Desktop/nacl_sdk/pepper_canary/toolchain/mac_pnacl/bin/../x86_64-nacl/lib32/libnacl.a(write.o)
 .data          0x0000000010032d88        0x4 /Users/jkwang/Desktop/nacl_sdk/pepper_canary/toolchain/mac_pnacl/bin/../x86_64-nacl/lib32/libnacl.a(environ.o)
                0x0000000010032d88                environ
 .data          0x0000000010032d8c        0x0 /Users/jkwang/Desktop/nacl_sdk/pepper_canary/toolchain/mac_pnacl/bin/../x86_64-nacl/lib32/libnacl.a(malloc.o)
 .data          0x0000000010032d8c        0x0 /Users/jkwang/Desktop/nacl_sdk/pepper_canary/toolchain/mac_pnacl/bin/../x86_64-nacl/lib32/libnacl.a(start.o)
 .data          0x0000000010032d8c        0x0 /Users/jkwang/Desktop/nacl_sdk/pepper_canary/toolchain/mac_pnacl/bin/../x86_64-nacl/lib32/libnacl.a(nacl_read_tp.o)
 .data          0x0000000010032d8c        0x0 /Users/jkwang/Desktop/nacl_sdk/pepper_canary/toolchain/mac_pnacl/bin/../x86_64-nacl/lib32/libnacl.a(pthread_initialize_minimal.o)
 .data          0x0000000010032d8c        0x0 /Users/jkwang/Desktop/nacl_sdk/pepper_canary/toolchain/mac_pnacl/bin/../x86_64-nacl/lib32/libnacl.a(tls.o)
 .data          0x0000000010032d8c        0x0 /Users/jkwang/Desktop/nacl_sdk/pepper_canary/toolchain/mac_pnacl/bin/../x86_64-nacl/lib32/libnacl.a(nacl_irt_init.o)
 .data          0x0000000010032d8c        0x0 /Users/jkwang/Desktop/nacl_sdk/pepper_canary/toolchain/mac_pnacl/bin/../x86_64-nacl/lib32/libnacl.a(nacl_tls_get.o)
 .data          0x0000000010032d8c        0x0 /Users/jkwang/Desktop/nacl_sdk/pepper_canary/toolchain/mac_pnacl/bin/../x86_64-nacl/lib32/libnacl.a(nacl_tls_init.o)
 .data          0x0000000010032d8c        0x0 /Users/jkwang/Desktop/nacl_sdk/pepper_canary/toolchain/mac_pnacl/bin/../x86_64-nacl/lib32/libnacl.a(abort.o)
 .data          0x0000000010032d8c        0x0 /Users/jkwang/Desktop/nacl_sdk/pepper_canary/toolchain/mac_pnacl/bin/../x86_64-nacl/lib32/libnacl.a(sched_yield.o)
 .data          0x0000000010032d8c        0x0 /Users/jkwang/Desktop/nacl_sdk/pepper_canary/toolchain/mac_pnacl/bin/../x86_64-nacl/lib32/libnacl.a(sysconf.o)
 .data          0x0000000010032d8c        0x0 /Users/jkwang/Desktop/nacl_sdk/pepper_canary/toolchain/mac_pnacl/bin/../x86_64-nacl/lib32/libcrt_common.a(lib_a-atexit.o)
 .data          0x0000000010032d8c        0x0 /Users/jkwang/Desktop/nacl_sdk/pepper_canary/toolchain/mac_pnacl/bin/../x86_64-nacl/lib32/libcrt_common.a(lib_a-errno.o)
 .data          0x0000000010032d8c        0x0 /Users/jkwang/Desktop/nacl_sdk/pepper_canary/toolchain/mac_pnacl/bin/../x86_64-nacl/lib32/libcrt_common.a(lib_a-exit.o)
 .data          0x0000000010032d8c        0x0 /Users/jkwang/Desktop/nacl_sdk/pepper_canary/toolchain/mac_pnacl/bin/../x86_64-nacl/lib32/libcrt_common.a(lib_a-fflush.o)
 .data          0x0000000010032d8c        0x0 /Users/jkwang/Desktop/nacl_sdk/pepper_canary/toolchain/mac_pnacl/bin/../x86_64-nacl/lib32/libcrt_common.a(lib_a-findfp.o)
 .data.__sfp_lock
                0x0000000010032d8c       0x14 /Users/jkwang/Desktop/nacl_sdk/pepper_canary/toolchain/mac_pnacl/bin/../x86_64-nacl/lib32/libcrt_common.a(lib_a-findfp.o)
 .data.__sinit_lock
                0x0000000010032da0       0x14 /Users/jkwang/Desktop/nacl_sdk/pepper_canary/toolchain/mac_pnacl/bin/../x86_64-nacl/lib32/libcrt_common.a(lib_a-findfp.o)
 .data          0x0000000010032db4        0x0 /Users/jkwang/Desktop/nacl_sdk/pepper_canary/toolchain/mac_pnacl/bin/../x86_64-nacl/lib32/libcrt_common.a(lib_a-fini.o)
 .data          0x0000000010032db4        0x0 /Users/jkwang/Desktop/nacl_sdk/pepper_canary/toolchain/mac_pnacl/bin/../x86_64-nacl/lib32/libcrt_common.a(lib_a-fprintf.o)
 .data          0x0000000010032db4        0x0 /Users/jkwang/Desktop/nacl_sdk/pepper_canary/toolchain/mac_pnacl/bin/../x86_64-nacl/lib32/libcrt_common.a(lib_a-fwalk.o)
 .data          0x0000000010032db4        0x0 /Users/jkwang/Desktop/nacl_sdk/pepper_canary/toolchain/mac_pnacl/bin/../x86_64-nacl/lib32/libcrt_common.a(lib_a-fwrite.o)
 .data          0x0000000010032db4        0x0 /Users/jkwang/Desktop/nacl_sdk/pepper_canary/toolchain/mac_pnacl/bin/../x86_64-nacl/lib32/libcrt_common.a(lib_a-getenv.o)
 .data          0x0000000010032db4        0x0 /Users/jkwang/Desktop/nacl_sdk/pepper_canary/toolchain/mac_pnacl/bin/../x86_64-nacl/lib32/libcrt_common.a(lib_a-getenv_r.o)
 .data          0x0000000010032db4        0x0 /Users/jkwang/Desktop/nacl_sdk/pepper_canary/toolchain/mac_pnacl/bin/../x86_64-nacl/lib32/libcrt_common.a(lib_a-impure.o)
 *fill*         0x0000000010032db4        0x4 
 .data.global_impure_data
                0x0000000010032db8      0x470 /Users/jkwang/Desktop/nacl_sdk/pepper_canary/toolchain/mac_pnacl/bin/../x86_64-nacl/lib32/libcrt_common.a(lib_a-impure.o)
 .data          0x0000000010033228        0x0 /Users/jkwang/Desktop/nacl_sdk/pepper_canary/toolchain/mac_pnacl/bin/../x86_64-nacl/lib32/libcrt_common.a(lib_a-init.o)
 .data          0x0000000010033228        0x0 /Users/jkwang/Desktop/nacl_sdk/pepper_canary/toolchain/mac_pnacl/bin/../x86_64-nacl/lib32/libcrt_common.a(lib_a-memcpy.o)
 .data          0x0000000010033228        0x0 /Users/jkwang/Desktop/nacl_sdk/pepper_canary/toolchain/mac_pnacl/bin/../x86_64-nacl/lib32/libcrt_common.a(lib_a-memset.o)
 .data          0x0000000010033228        0x0 /Users/jkwang/Desktop/nacl_sdk/pepper_canary/toolchain/mac_pnacl/bin/../x86_64-nacl/lib32/libcrt_common.a(lib_a-sleep.o)
 .data          0x0000000010033228        0x0 /Users/jkwang/Desktop/nacl_sdk/pepper_canary/toolchain/mac_pnacl/bin/../x86_64-nacl/lib32/libcrt_common.a(lib_a-stdio.o)
 .data          0x0000000010033228        0x0 /Users/jkwang/Desktop/nacl_sdk/pepper_canary/toolchain/mac_pnacl/bin/../x86_64-nacl/lib32/libcrt_common.a(lib_a-strcat.o)
 .data          0x0000000010033228        0x0 /Users/jkwang/Desktop/nacl_sdk/pepper_canary/toolchain/mac_pnacl/bin/../x86_64-nacl/lib32/libcrt_common.a(lib_a-strcmp.o)
 .data          0x0000000010033228        0x0 /Users/jkwang/Desktop/nacl_sdk/pepper_canary/toolchain/mac_pnacl/bin/../x86_64-nacl/lib32/libcrt_common.a(lib_a-strcpy.o)
 .data          0x0000000010033228        0x0 /Users/jkwang/Desktop/nacl_sdk/pepper_canary/toolchain/mac_pnacl/bin/../x86_64-nacl/lib32/libcrt_common.a(lib_a-strlen.o)
 .data          0x0000000010033228        0x0 /Users/jkwang/Desktop/nacl_sdk/pepper_canary/toolchain/mac_pnacl/bin/../x86_64-nacl/lib32/libcrt_common.a(lib_a-strncmp.o)
 .data          0x0000000010033228        0x0 /Users/jkwang/Desktop/nacl_sdk/pepper_canary/toolchain/mac_pnacl/bin/../x86_64-nacl/lib32/libcrt_common.a(lib_a-vfprintf.o)
 .data          0x0000000010033228        0x0 /Users/jkwang/Desktop/nacl_sdk/pepper_canary/toolchain/mac_pnacl/bin/../x86_64-nacl/lib32/libcrt_common.a(lib_a-vsnprintf.o)
 .data          0x0000000010033228        0x0 /Users/jkwang/Desktop/nacl_sdk/pepper_canary/toolchain/mac_pnacl/bin/../x86_64-nacl/lib32/libcrt_common.a(lib_a-vsprintf.o)
 .data          0x0000000010033228        0x0 /Users/jkwang/Desktop/nacl_sdk/pepper_canary/toolchain/mac_pnacl/bin/../x86_64-nacl/lib32/libcrt_common.a(lib_a-wcrtomb.o)
 .data          0x0000000010033228        0x0 /Users/jkwang/Desktop/nacl_sdk/pepper_canary/toolchain/mac_pnacl/bin/../x86_64-nacl/lib32/libcrt_common.a(lib_a-wcsrtombs.o)
 .data          0x0000000010033228        0x0 /Users/jkwang/Desktop/nacl_sdk/pepper_canary/toolchain/mac_pnacl/bin/../x86_64-nacl/lib32/libcrt_common.a(lib_a-wctomb_r.o)
 .data.__wctomb
                0x0000000010033228        0x4 /Users/jkwang/Desktop/nacl_sdk/pepper_canary/toolchain/mac_pnacl/bin/../x86_64-nacl/lib32/libcrt_common.a(lib_a-wctomb_r.o)
                0x0000000010033228                __wctomb
 .data          0x000000001003322c        0x0 /Users/jkwang/Desktop/nacl_sdk/pepper_canary/toolchain/mac_pnacl/bin/../x86_64-nacl/lib32/libcrt_common.a(lib_a-wsetup.o)
 .data          0x000000001003322c        0x0 /Users/jkwang/Desktop/nacl_sdk/pepper_canary/toolchain/mac_pnacl/bin/../x86_64-nacl/lib32/libcrt_common.a(lib_a-__atexit.o)
 .data          0x000000001003322c        0x0 /Users/jkwang/Desktop/nacl_sdk/pepper_canary/toolchain/mac_pnacl/bin/../x86_64-nacl/lib32/libcrt_common.a(lib_a-__call_atexit.o)
 .data.__atexit_lock
                0x000000001003322c       0x14 /Users/jkwang/Desktop/nacl_sdk/pepper_canary/toolchain/mac_pnacl/bin/../x86_64-nacl/lib32/libcrt_common.a(lib_a-__call_atexit.o)
                0x000000001003322c                __atexit_lock
 .data          0x0000000010033240        0x0 /Users/jkwang/Desktop/nacl_sdk/pepper_canary/toolchain/mac_pnacl/bin/../x86_64-nacl/lib32/libcrt_common.a(lib_a-dtoa.o)
 .data          0x0000000010033240        0x0 /Users/jkwang/Desktop/nacl_sdk/pepper_canary/toolchain/mac_pnacl/bin/../x86_64-nacl/lib32/libcrt_common.a(lib_a-envlock.o)
 .data.__env_lock_object
                0x0000000010033240       0x14 /Users/jkwang/Desktop/nacl_sdk/pepper_canary/toolchain/mac_pnacl/bin/../x86_64-nacl/lib32/libcrt_common.a(lib_a-envlock.o)
 .data          0x0000000010033254        0x0 /Users/jkwang/Desktop/nacl_sdk/pepper_canary/toolchain/mac_pnacl/bin/../x86_64-nacl/lib32/libcrt_common.a(lib_a-fclose.o)
 .data          0x0000000010033254        0x0 /Users/jkwang/Desktop/nacl_sdk/pepper_canary/toolchain/mac_pnacl/bin/../x86_64-nacl/lib32/libcrt_common.a(lib_a-fvwrite.o)
 .data          0x0000000010033254        0x0 /Users/jkwang/Desktop/nacl_sdk/pepper_canary/toolchain/mac_pnacl/bin/../x86_64-nacl/lib32/libcrt_common.a(lib_a-locale.o)
 .data.__mb_cur_max
                0x0000000010033254        0x4 /Users/jkwang/Desktop/nacl_sdk/pepper_canary/toolchain/mac_pnacl/bin/../x86_64-nacl/lib32/libcrt_common.a(lib_a-locale.o)
                0x0000000010033254                __mb_cur_max
 .data.__default_locale
                0x0000000010033258       0x20 /Users/jkwang/Desktop/nacl_sdk/pepper_canary/toolchain/mac_pnacl/bin/../x86_64-nacl/lib32/libcrt_common.a(lib_a-locale.o)
                0x0000000010033258                __default_locale
 .data.current_categories
                0x0000000010033278       0xe0 /Users/jkwang/Desktop/nacl_sdk/pepper_canary/toolchain/mac_pnacl/bin/../x86_64-nacl/lib32/libcrt_common.a(lib_a-locale.o)
 .data.lc_ctype_charset
                0x0000000010033358       0x20 /Users/jkwang/Desktop/nacl_sdk/pepper_canary/toolchain/mac_pnacl/bin/../x86_64-nacl/lib32/libcrt_common.a(lib_a-locale.o)
 .data.lc_message_charset
                0x0000000010033378       0x20 /Users/jkwang/Desktop/nacl_sdk/pepper_canary/toolchain/mac_pnacl/bin/../x86_64-nacl/lib32/libcrt_common.a(lib_a-locale.o)
 .data.lconv    0x0000000010033398       0x38 /Users/jkwang/Desktop/nacl_sdk/pepper_canary/toolchain/mac_pnacl/bin/../x86_64-nacl/lib32/libcrt_common.a(lib_a-locale.o)
 .data          0x00000000100333d0        0x0 /Users/jkwang/Desktop/nacl_sdk/pepper_canary/toolchain/mac_pnacl/bin/../x86_64-nacl/lib32/libcrt_common.a(lib_a-makebuf.o)
 .data          0x00000000100333d0        0x0 /Users/jkwang/Desktop/nacl_sdk/pepper_canary/toolchain/mac_pnacl/bin/../x86_64-nacl/lib32/libcrt_common.a(lib_a-mbtowc_r.o)
 .data.__mbtowc
                0x00000000100333d0        0x4 /Users/jkwang/Desktop/nacl_sdk/pepper_canary/toolchain/mac_pnacl/bin/../x86_64-nacl/lib32/libcrt_common.a(lib_a-mbtowc_r.o)
                0x00000000100333d0                __mbtowc
 .data          0x00000000100333d4        0x0 /Users/jkwang/Desktop/nacl_sdk/pepper_canary/toolchain/mac_pnacl/bin/../x86_64-nacl/lib32/libcrt_common.a(lib_a-memchr.o)
 .data          0x00000000100333d4        0x0 /Users/jkwang/Desktop/nacl_sdk/pepper_canary/toolchain/mac_pnacl/bin/../x86_64-nacl/lib32/libcrt_common.a(lib_a-memmove.o)
 .data          0x00000000100333d4        0x0 /Users/jkwang/Desktop/nacl_sdk/pepper_canary/toolchain/mac_pnacl/bin/../x86_64-nacl/lib32/libcrt_common.a(lib_a-mprec.o)
 .data          0x00000000100333d4        0x0 /Users/jkwang/Desktop/nacl_sdk/pepper_canary/toolchain/mac_pnacl/bin/../x86_64-nacl/lib32/libcrt_common.a(lib_a-s_fpclassify.o)
 .data          0x00000000100333d4        0x0 /Users/jkwang/Desktop/nacl_sdk/pepper_canary/toolchain/mac_pnacl/bin/../x86_64-nacl/lib32/libcrt_common.a(lib_a-s_frexp.o)
 .data          0x00000000100333d4        0x0 /Users/jkwang/Desktop/nacl_sdk/pepper_canary/toolchain/mac_pnacl/bin/../x86_64-nacl/lib32/libcrt_common.a(lib_a-strcasecmp.o)
 .data          0x00000000100333d4        0x0 /Users/jkwang/Desktop/nacl_sdk/pepper_canary/toolchain/mac_pnacl/bin/../x86_64-nacl/lib32/libcrt_common.a(lib_a-strchr.o)
 .data          0x00000000100333d4        0x0 /Users/jkwang/Desktop/nacl_sdk/pepper_canary/toolchain/mac_pnacl/bin/../x86_64-nacl/lib32/libcrt_common.a(lib_a-strlcpy.o)
 .data          0x00000000100333d4        0x0 /Users/jkwang/Desktop/nacl_sdk/pepper_canary/toolchain/mac_pnacl/bin/../x86_64-nacl/lib32/libcrt_common.a(lib_a-strncasecmp.o)
 .data          0x00000000100333d4        0x0 /Users/jkwang/Desktop/nacl_sdk/pepper_canary/toolchain/mac_pnacl/bin/../x86_64-nacl/lib32/libcrt_common.a(lib_a-strncpy.o)
 .data          0x00000000100333d4        0x0 /Users/jkwang/Desktop/nacl_sdk/pepper_canary/toolchain/mac_pnacl/bin/../x86_64-nacl/lib32/libcrt_common.a(lib_a-strtol.o)
 .data          0x00000000100333d4        0x0 /Users/jkwang/Desktop/nacl_sdk/pepper_canary/toolchain/mac_pnacl/bin/../x86_64-nacl/lib32/libcrt_common.a(lib_a-svfprintf.o)
 .data          0x00000000100333d4        0x0 /Users/jkwang/Desktop/nacl_sdk/pepper_canary/toolchain/mac_pnacl/bin/../x86_64-nacl/lib32/libcrt_common.a(lib_a-vfiprintf.o)
 .data          0x00000000100333d4        0x0 /Users/jkwang/Desktop/nacl_sdk/pepper_canary/toolchain/mac_pnacl/bin/../x86_64-nacl/lib32/libcrt_common.a(lib_a-wcsnrtombs.o)
 .data          0x00000000100333d4        0x0 /Users/jkwang/Desktop/nacl_sdk/pepper_canary/toolchain/mac_pnacl/bin/../x86_64-nacl/lib32/libcrt_common.a(lib_a-ctype_.o)
 .data.__ctype_ptr__
                0x00000000100333d4        0x4 /Users/jkwang/Desktop/nacl_sdk/pepper_canary/toolchain/mac_pnacl/bin/../x86_64-nacl/lib32/libcrt_common.a(lib_a-ctype_.o)
                0x00000000100333d4                __ctype_ptr__
 .data          0x00000000100333d8        0x0 /Users/jkwang/Desktop/nacl_sdk/pepper_canary/toolchain/mac_pnacl/bin/../x86_64-nacl/lib32/libcrt_common.a(lib_a-fputwc.o)
 .data          0x00000000100333d8        0x0 /Users/jkwang/Desktop/nacl_sdk/pepper_canary/toolchain/mac_pnacl/bin/../x86_64-nacl/lib32/libcrt_common.a(lib_a-svfiprintf.o)
 .data          0x00000000100333d8        0x0 /Users/jkwang/Desktop/nacl_sdk/pepper_canary/toolchain/mac_pnacl/bin/../x86_64-nacl/lib32/libcrt_common.a(lib_a-wbuf.o)
 .data          0x00000000100333d8        0x0 /Users/jkwang/Desktop/nacl_sdk/pepper_canary/toolchain/mac_pnacl/bin/../x86_64-nacl/lib32/libnacl.a(close.o)
 .data          0x00000000100333d8        0x0 /Users/jkwang/Desktop/nacl_sdk/pepper_canary/toolchain/mac_pnacl/bin/../x86_64-nacl/lib32/libnacl.a(fstat.o)
 .data          0x00000000100333d8        0x0 /Users/jkwang/Desktop/nacl_sdk/pepper_canary/toolchain/mac_pnacl/bin/../x86_64-nacl/lib32/libnacl.a(isatty.o)
 .data          0x00000000100333d8        0x0 /Users/jkwang/Desktop/nacl_sdk/pepper_canary/toolchain/mac_pnacl/bin/../x86_64-nacl/lib32/libnacl.a(lseek.o)
 .data          0x00000000100333d8        0x0 /Users/jkwang/Desktop/nacl_sdk/pepper_canary/toolchain/mac_pnacl/bin/../x86_64-nacl/lib32/libnacl.a(nanosleep.o)
 .data          0x00000000100333d8        0x0 /Users/jkwang/Desktop/nacl_sdk/pepper_canary/toolchain/mac_pnacl/bin/../x86_64-nacl/lib32/libnacl.a(nacl_irt_fdio.o)
 .data          0x00000000100333d8        0x0 /Users/jkwang/Desktop/nacl_sdk/pepper_canary/toolchain/mac_pnacl/bin/../x86_64-nacl/lib32/libnacl.a(read.o)
 .data          0x00000000100333d8        0x0 /Users/jkwang/Desktop/nacl_sdk/pepper_canary/toolchain/mac_pnacl/bin/../lib/clang/3.7.0/lib/i686-nacl/libgcc.a(udivdi3.o)
 .data          0x00000000100333d8        0x0 /Users/jkwang/Desktop/nacl_sdk/pepper_canary/toolchain/mac_pnacl/bin/../lib/clang/3.7.0/lib/i686-nacl/libgcc.a(udivmoddi4.o)
 .data          0x00000000100333d8        0x0 /Users/jkwang/Desktop/nacl_sdk/pepper_canary/toolchain/mac_pnacl/bin/../lib/clang/3.7.0/lib/i686-nacl/libgcc.a(umoddi3.o)
 .data          0x00000000100333d8        0x0 /Users/jkwang/Desktop/nacl_sdk/pepper_canary/toolchain/mac_pnacl/bin/../lib/clang/3.7.0/lib/i686-nacl/libgcc_eh.a(unwind-dw2-fde-glibc.o)
 .data          0x00000000100333d8        0x0 /Users/jkwang/Desktop/nacl_sdk/pepper_canary/toolchain/mac_pnacl/bin/../lib/clang/3.7.0/lib/i686-nacl/crtend.o
 .data          0x00000000100333d8        0x0 /Users/jkwang/Desktop/nacl_sdk/pepper_canary/toolchain/mac_pnacl/bin/../x86_64-nacl/lib32/crtn.o

.data1
 *(.data1)
                0x00000000100333d8                _edata = .
                0x00000000100333d8                PROVIDE (edata, .)
                0x00000000100333d8                . = .
                0x00000000100333d8                __bss_start = .

.bss            0x00000000100333d8     0x1650
 *(.dynbss)
 *(.bss .bss.* .gnu.linkonce.b.*)
 .bss           0x00000000100333d8        0x0 /Users/jkwang/Desktop/nacl_sdk/pepper_canary/toolchain/mac_pnacl/bin/../x86_64-nacl/lib32/crti.o
 .bss           0x00000000100333d8       0x48 /Users/jkwang/Desktop/nacl_sdk/pepper_canary/toolchain/mac_pnacl/bin/../lib/clang/3.7.0/lib/i686-nacl/crtbeginT.o
                0x00000000100333d8                __dso_handle
 .bss           0x0000000010033420       0x10 clang-newlib/Release/debugging_x86_32.o
                0x0000000010033420                ppb_messaging_interface
                0x0000000010033424                ppb_var_interface
                0x0000000010033428                ppb_core_interface
                0x000000001003342c                g_CrashTime
 .bss           0x0000000010033430       0x18 /Users/jkwang/Desktop/nacl_sdk/pepper_canary/lib/clang-newlib_x86_32/Release/liberror_handling.a(error_handling_x86_32.o)
 .bss           0x0000000010033448        0x0 /Users/jkwang/Desktop/nacl_sdk/pepper_canary/lib/clang-newlib_x86_32/Release/liberror_handling.a(string_stream_x86_32.o)
 .bss           0x0000000010033448        0x0 /Users/jkwang/Desktop/nacl_sdk/pepper_canary/toolchain/mac_pnacl/bin/../x86_64-nacl/lib32/libppapi_stub.a(plugin_main_irt.o)
 .bss           0x0000000010033448        0x0 /Users/jkwang/Desktop/nacl_sdk/pepper_canary/toolchain/mac_pnacl/bin/../x86_64-nacl/lib32/libppapi_stub.a(ppapi_plugin_main.o)
 .bss           0x0000000010033448        0x0 /Users/jkwang/Desktop/nacl_sdk/pepper_canary/toolchain/mac_pnacl/bin/../x86_64-nacl/lib32/libppapi_stub.a(ppapi_plugin_start.o)
 .bss           0x0000000010033448        0x0 /Users/jkwang/Desktop/nacl_sdk/pepper_canary/toolchain/mac_pnacl/bin/../x86_64-nacl/lib32/libppapi_stub.a(thread_creator.o)
 .bss           0x0000000010033448     0x1028 /Users/jkwang/Desktop/nacl_sdk/pepper_canary/toolchain/mac_pnacl/bin/../x86_64-nacl/lib32/libpthread.a(nc_thread.o)
 .bss           0x0000000010034470        0x0 /Users/jkwang/Desktop/nacl_sdk/pepper_canary/toolchain/mac_pnacl/bin/../x86_64-nacl/lib32/libpthread.a(nc_mutex.o)
 .bss           0x0000000010034470        0x0 /Users/jkwang/Desktop/nacl_sdk/pepper_canary/toolchain/mac_pnacl/bin/../x86_64-nacl/lib32/libpthread.a(nc_condvar.o)
 .bss           0x0000000010034470        0x0 /Users/jkwang/Desktop/nacl_sdk/pepper_canary/toolchain/mac_pnacl/bin/../x86_64-nacl/lib32/libpthread.a(valgrind_annotations.o)
 .bss           0x0000000010034470        0x0 /Users/jkwang/Desktop/nacl_sdk/pepper_canary/toolchain/mac_pnacl/bin/../x86_64-nacl/lib32/libpthread.a(nc_init_irt.o)
 .bss           0x0000000010034470        0x0 /Users/jkwang/Desktop/nacl_sdk/pepper_canary/toolchain/mac_pnacl/bin/../x86_64-nacl/lib32/libnacl.a(nacl_irt.o)
 .bss           0x0000000010034470        0x0 /Users/jkwang/Desktop/nacl_sdk/pepper_canary/toolchain/mac_pnacl/bin/../x86_64-nacl/lib32/libnacl.a(_exit.o)
 .bss           0x0000000010034470        0x0 /Users/jkwang/Desktop/nacl_sdk/pepper_canary/toolchain/mac_pnacl/bin/../x86_64-nacl/lib32/libnacl.a(mmap.o)
 .bss           0x0000000010034470        0x0 /Users/jkwang/Desktop/nacl_sdk/pepper_canary/toolchain/mac_pnacl/bin/../x86_64-nacl/lib32/libnacl.a(munmap.o)
 .bss           0x0000000010034470        0x0 /Users/jkwang/Desktop/nacl_sdk/pepper_canary/toolchain/mac_pnacl/bin/../x86_64-nacl/lib32/libnacl.a(nacl_interface_query.o)
 .bss           0x0000000010034470        0x0 /Users/jkwang/Desktop/nacl_sdk/pepper_canary/toolchain/mac_pnacl/bin/../x86_64-nacl/lib32/libnacl.a(write.o)
 .bss           0x0000000010034470        0x4 /Users/jkwang/Desktop/nacl_sdk/pepper_canary/toolchain/mac_pnacl/bin/../x86_64-nacl/lib32/libnacl.a(environ.o)
 .bss           0x0000000010034474      0x1f8 /Users/jkwang/Desktop/nacl_sdk/pepper_canary/toolchain/mac_pnacl/bin/../x86_64-nacl/lib32/libnacl.a(malloc.o)
 .bss           0x000000001003466c        0x0 /Users/jkwang/Desktop/nacl_sdk/pepper_canary/toolchain/mac_pnacl/bin/../x86_64-nacl/lib32/libnacl.a(start.o)
 .bss           0x000000001003466c        0x0 /Users/jkwang/Desktop/nacl_sdk/pepper_canary/toolchain/mac_pnacl/bin/../x86_64-nacl/lib32/libnacl.a(nacl_read_tp.o)
 .bss           0x000000001003466c        0x0 /Users/jkwang/Desktop/nacl_sdk/pepper_canary/toolchain/mac_pnacl/bin/../x86_64-nacl/lib32/libnacl.a(pthread_initialize_minimal.o)
 .bss           0x000000001003466c       0x10 /Users/jkwang/Desktop/nacl_sdk/pepper_canary/toolchain/mac_pnacl/bin/../x86_64-nacl/lib32/libnacl.a(tls.o)
 .bss           0x000000001003467c        0x0 /Users/jkwang/Desktop/nacl_sdk/pepper_canary/toolchain/mac_pnacl/bin/../x86_64-nacl/lib32/libnacl.a(nacl_irt_init.o)
 .bss           0x000000001003467c        0x0 /Users/jkwang/Desktop/nacl_sdk/pepper_canary/toolchain/mac_pnacl/bin/../x86_64-nacl/lib32/libnacl.a(nacl_tls_get.o)
 .bss           0x000000001003467c        0x0 /Users/jkwang/Desktop/nacl_sdk/pepper_canary/toolchain/mac_pnacl/bin/../x86_64-nacl/lib32/libnacl.a(nacl_tls_init.o)
 .bss           0x000000001003467c        0x0 /Users/jkwang/Desktop/nacl_sdk/pepper_canary/toolchain/mac_pnacl/bin/../x86_64-nacl/lib32/libnacl.a(abort.o)
 .bss           0x000000001003467c        0x0 /Users/jkwang/Desktop/nacl_sdk/pepper_canary/toolchain/mac_pnacl/bin/../x86_64-nacl/lib32/libnacl.a(sched_yield.o)
 .bss           0x000000001003467c        0x0 /Users/jkwang/Desktop/nacl_sdk/pepper_canary/toolchain/mac_pnacl/bin/../x86_64-nacl/lib32/libnacl.a(sysconf.o)
 .bss           0x000000001003467c        0x0 /Users/jkwang/Desktop/nacl_sdk/pepper_canary/toolchain/mac_pnacl/bin/../x86_64-nacl/lib32/libcrt_common.a(lib_a-atexit.o)
 .bss           0x000000001003467c        0x0 /Users/jkwang/Desktop/nacl_sdk/pepper_canary/toolchain/mac_pnacl/bin/../x86_64-nacl/lib32/libcrt_common.a(lib_a-errno.o)
 .bss           0x000000001003467c        0x0 /Users/jkwang/Desktop/nacl_sdk/pepper_canary/toolchain/mac_pnacl/bin/../x86_64-nacl/lib32/libcrt_common.a(lib_a-exit.o)
 .bss           0x000000001003467c        0x0 /Users/jkwang/Desktop/nacl_sdk/pepper_canary/toolchain/mac_pnacl/bin/../x86_64-nacl/lib32/libcrt_common.a(lib_a-fflush.o)
 .bss           0x000000001003467c        0x0 /Users/jkwang/Desktop/nacl_sdk/pepper_canary/toolchain/mac_pnacl/bin/../x86_64-nacl/lib32/libcrt_common.a(lib_a-findfp.o)
 .bss           0x000000001003467c        0x0 /Users/jkwang/Desktop/nacl_sdk/pepper_canary/toolchain/mac_pnacl/bin/../x86_64-nacl/lib32/libcrt_common.a(lib_a-fini.o)
 .bss           0x000000001003467c        0x0 /Users/jkwang/Desktop/nacl_sdk/pepper_canary/toolchain/mac_pnacl/bin/../x86_64-nacl/lib32/libcrt_common.a(lib_a-fprintf.o)
 .bss           0x000000001003467c        0x0 /Users/jkwang/Desktop/nacl_sdk/pepper_canary/toolchain/mac_pnacl/bin/../x86_64-nacl/lib32/libcrt_common.a(lib_a-fwalk.o)
 .bss           0x000000001003467c        0x0 /Users/jkwang/Desktop/nacl_sdk/pepper_canary/toolchain/mac_pnacl/bin/../x86_64-nacl/lib32/libcrt_common.a(lib_a-fwrite.o)
 .bss           0x000000001003467c        0x0 /Users/jkwang/Desktop/nacl_sdk/pepper_canary/toolchain/mac_pnacl/bin/../x86_64-nacl/lib32/libcrt_common.a(lib_a-getenv.o)
 .bss           0x000000001003467c        0x0 /Users/jkwang/Desktop/nacl_sdk/pepper_canary/toolchain/mac_pnacl/bin/../x86_64-nacl/lib32/libcrt_common.a(lib_a-getenv_r.o)
 .bss           0x000000001003467c        0x0 /Users/jkwang/Desktop/nacl_sdk/pepper_canary/toolchain/mac_pnacl/bin/../x86_64-nacl/lib32/libcrt_common.a(lib_a-impure.o)
 .bss           0x000000001003467c        0x0 /Users/jkwang/Desktop/nacl_sdk/pepper_canary/toolchain/mac_pnacl/bin/../x86_64-nacl/lib32/libcrt_common.a(lib_a-init.o)
 .bss           0x000000001003467c        0x0 /Users/jkwang/Desktop/nacl_sdk/pepper_canary/toolchain/mac_pnacl/bin/../x86_64-nacl/lib32/libcrt_common.a(lib_a-memcpy.o)
 .bss           0x000000001003467c        0x0 /Users/jkwang/Desktop/nacl_sdk/pepper_canary/toolchain/mac_pnacl/bin/../x86_64-nacl/lib32/libcrt_common.a(lib_a-memset.o)
 .bss           0x000000001003467c        0x0 /Users/jkwang/Desktop/nacl_sdk/pepper_canary/toolchain/mac_pnacl/bin/../x86_64-nacl/lib32/libcrt_common.a(lib_a-sleep.o)
 .bss           0x000000001003467c        0x0 /Users/jkwang/Desktop/nacl_sdk/pepper_canary/toolchain/mac_pnacl/bin/../x86_64-nacl/lib32/libcrt_common.a(lib_a-stdio.o)
 .bss           0x000000001003467c        0x0 /Users/jkwang/Desktop/nacl_sdk/pepper_canary/toolchain/mac_pnacl/bin/../x86_64-nacl/lib32/libcrt_common.a(lib_a-strcat.o)
 .bss           0x000000001003467c        0x0 /Users/jkwang/Desktop/nacl_sdk/pepper_canary/toolchain/mac_pnacl/bin/../x86_64-nacl/lib32/libcrt_common.a(lib_a-strcmp.o)
 .bss           0x000000001003467c        0x0 /Users/jkwang/Desktop/nacl_sdk/pepper_canary/toolchain/mac_pnacl/bin/../x86_64-nacl/lib32/libcrt_common.a(lib_a-strcpy.o)
 .bss           0x000000001003467c        0x0 /Users/jkwang/Desktop/nacl_sdk/pepper_canary/toolchain/mac_pnacl/bin/../x86_64-nacl/lib32/libcrt_common.a(lib_a-strlen.o)
 .bss           0x000000001003467c        0x0 /Users/jkwang/Desktop/nacl_sdk/pepper_canary/toolchain/mac_pnacl/bin/../x86_64-nacl/lib32/libcrt_common.a(lib_a-strncmp.o)
 .bss           0x000000001003467c        0x0 /Users/jkwang/Desktop/nacl_sdk/pepper_canary/toolchain/mac_pnacl/bin/../x86_64-nacl/lib32/libcrt_common.a(lib_a-vfprintf.o)
 .bss           0x000000001003467c        0x0 /Users/jkwang/Desktop/nacl_sdk/pepper_canary/toolchain/mac_pnacl/bin/../x86_64-nacl/lib32/libcrt_common.a(lib_a-vsnprintf.o)
 .bss           0x000000001003467c        0x0 /Users/jkwang/Desktop/nacl_sdk/pepper_canary/toolchain/mac_pnacl/bin/../x86_64-nacl/lib32/libcrt_common.a(lib_a-vsprintf.o)
 .bss           0x000000001003467c        0x0 /Users/jkwang/Desktop/nacl_sdk/pepper_canary/toolchain/mac_pnacl/bin/../x86_64-nacl/lib32/libcrt_common.a(lib_a-wcrtomb.o)
 .bss           0x000000001003467c        0x0 /Users/jkwang/Desktop/nacl_sdk/pepper_canary/toolchain/mac_pnacl/bin/../x86_64-nacl/lib32/libcrt_common.a(lib_a-wcsrtombs.o)
 .bss           0x000000001003467c        0x0 /Users/jkwang/Desktop/nacl_sdk/pepper_canary/toolchain/mac_pnacl/bin/../x86_64-nacl/lib32/libcrt_common.a(lib_a-wctomb_r.o)
 .bss           0x000000001003467c        0x0 /Users/jkwang/Desktop/nacl_sdk/pepper_canary/toolchain/mac_pnacl/bin/../x86_64-nacl/lib32/libcrt_common.a(lib_a-wsetup.o)
 .bss           0x000000001003467c        0x0 /Users/jkwang/Desktop/nacl_sdk/pepper_canary/toolchain/mac_pnacl/bin/../x86_64-nacl/lib32/libcrt_common.a(lib_a-__atexit.o)
 .bss           0x000000001003467c        0x0 /Users/jkwang/Desktop/nacl_sdk/pepper_canary/toolchain/mac_pnacl/bin/../x86_64-nacl/lib32/libcrt_common.a(lib_a-__call_atexit.o)
 .bss           0x000000001003467c        0x0 /Users/jkwang/Desktop/nacl_sdk/pepper_canary/toolchain/mac_pnacl/bin/../x86_64-nacl/lib32/libcrt_common.a(lib_a-dtoa.o)
 .bss           0x000000001003467c        0x0 /Users/jkwang/Desktop/nacl_sdk/pepper_canary/toolchain/mac_pnacl/bin/../x86_64-nacl/lib32/libcrt_common.a(lib_a-envlock.o)
 .bss           0x000000001003467c        0x0 /Users/jkwang/Desktop/nacl_sdk/pepper_canary/toolchain/mac_pnacl/bin/../x86_64-nacl/lib32/libcrt_common.a(lib_a-fclose.o)
 .bss           0x000000001003467c        0x0 /Users/jkwang/Desktop/nacl_sdk/pepper_canary/toolchain/mac_pnacl/bin/../x86_64-nacl/lib32/libcrt_common.a(lib_a-fvwrite.o)
 .bss           0x000000001003467c      0x2ab /Users/jkwang/Desktop/nacl_sdk/pepper_canary/toolchain/mac_pnacl/bin/../x86_64-nacl/lib32/libcrt_common.a(lib_a-locale.o)
 *fill*         0x0000000010034927        0x1 
 .bss.__nlocale_changed
                0x0000000010034928        0x4 /Users/jkwang/Desktop/nacl_sdk/pepper_canary/toolchain/mac_pnacl/bin/../x86_64-nacl/lib32/libcrt_common.a(lib_a-locale.o)
                0x0000000010034928                __nlocale_changed
 .bss.__mlocale_changed
                0x000000001003492c        0x4 /Users/jkwang/Desktop/nacl_sdk/pepper_canary/toolchain/mac_pnacl/bin/../x86_64-nacl/lib32/libcrt_common.a(lib_a-locale.o)
                0x000000001003492c                __mlocale_changed
 .bss._PathLocale
                0x0000000010034930        0x4 /Users/jkwang/Desktop/nacl_sdk/pepper_canary/toolchain/mac_pnacl/bin/../x86_64-nacl/lib32/libcrt_common.a(lib_a-locale.o)
                0x0000000010034930                _PathLocale
 .bss           0x0000000010034934        0x0 /Users/jkwang/Desktop/nacl_sdk/pepper_canary/toolchain/mac_pnacl/bin/../x86_64-nacl/lib32/libcrt_common.a(lib_a-makebuf.o)
 .bss           0x0000000010034934        0x0 /Users/jkwang/Desktop/nacl_sdk/pepper_canary/toolchain/mac_pnacl/bin/../x86_64-nacl/lib32/libcrt_common.a(lib_a-mbtowc_r.o)
 .bss           0x0000000010034934        0x0 /Users/jkwang/Desktop/nacl_sdk/pepper_canary/toolchain/mac_pnacl/bin/../x86_64-nacl/lib32/libcrt_common.a(lib_a-memchr.o)
 .bss           0x0000000010034934        0x0 /Users/jkwang/Desktop/nacl_sdk/pepper_canary/toolchain/mac_pnacl/bin/../x86_64-nacl/lib32/libcrt_common.a(lib_a-memmove.o)
 .bss           0x0000000010034934        0x0 /Users/jkwang/Desktop/nacl_sdk/pepper_canary/toolchain/mac_pnacl/bin/../x86_64-nacl/lib32/libcrt_common.a(lib_a-mprec.o)
 .bss           0x0000000010034934        0x0 /Users/jkwang/Desktop/nacl_sdk/pepper_canary/toolchain/mac_pnacl/bin/../x86_64-nacl/lib32/libcrt_common.a(lib_a-s_fpclassify.o)
 .bss           0x0000000010034934        0x0 /Users/jkwang/Desktop/nacl_sdk/pepper_canary/toolchain/mac_pnacl/bin/../x86_64-nacl/lib32/libcrt_common.a(lib_a-s_frexp.o)
 .bss           0x0000000010034934        0x0 /Users/jkwang/Desktop/nacl_sdk/pepper_canary/toolchain/mac_pnacl/bin/../x86_64-nacl/lib32/libcrt_common.a(lib_a-strcasecmp.o)
 .bss           0x0000000010034934        0x0 /Users/jkwang/Desktop/nacl_sdk/pepper_canary/toolchain/mac_pnacl/bin/../x86_64-nacl/lib32/libcrt_common.a(lib_a-strchr.o)
 .bss           0x0000000010034934        0x0 /Users/jkwang/Desktop/nacl_sdk/pepper_canary/toolchain/mac_pnacl/bin/../x86_64-nacl/lib32/libcrt_common.a(lib_a-strlcpy.o)
 .bss           0x0000000010034934        0x0 /Users/jkwang/Desktop/nacl_sdk/pepper_canary/toolchain/mac_pnacl/bin/../x86_64-nacl/lib32/libcrt_common.a(lib_a-strncasecmp.o)
 .bss           0x0000000010034934        0x0 /Users/jkwang/Desktop/nacl_sdk/pepper_canary/toolchain/mac_pnacl/bin/../x86_64-nacl/lib32/libcrt_common.a(lib_a-strncpy.o)
 .bss           0x0000000010034934        0x0 /Users/jkwang/Desktop/nacl_sdk/pepper_canary/toolchain/mac_pnacl/bin/../x86_64-nacl/lib32/libcrt_common.a(lib_a-strtol.o)
 .bss           0x0000000010034934        0x0 /Users/jkwang/Desktop/nacl_sdk/pepper_canary/toolchain/mac_pnacl/bin/../x86_64-nacl/lib32/libcrt_common.a(lib_a-svfprintf.o)
 .bss           0x0000000010034934        0x0 /Users/jkwang/Desktop/nacl_sdk/pepper_canary/toolchain/mac_pnacl/bin/../x86_64-nacl/lib32/libcrt_common.a(lib_a-vfiprintf.o)
 .bss           0x0000000010034934        0x0 /Users/jkwang/Desktop/nacl_sdk/pepper_canary/toolchain/mac_pnacl/bin/../x86_64-nacl/lib32/libcrt_common.a(lib_a-wcsnrtombs.o)
 .bss           0x0000000010034934        0x0 /Users/jkwang/Desktop/nacl_sdk/pepper_canary/toolchain/mac_pnacl/bin/../x86_64-nacl/lib32/libcrt_common.a(lib_a-ctype_.o)
 .bss           0x0000000010034934        0x0 /Users/jkwang/Desktop/nacl_sdk/pepper_canary/toolchain/mac_pnacl/bin/../x86_64-nacl/lib32/libcrt_common.a(lib_a-fputwc.o)
 .bss           0x0000000010034934        0x0 /Users/jkwang/Desktop/nacl_sdk/pepper_canary/toolchain/mac_pnacl/bin/../x86_64-nacl/lib32/libcrt_common.a(lib_a-svfiprintf.o)
 .bss           0x0000000010034934        0x0 /Users/jkwang/Desktop/nacl_sdk/pepper_canary/toolchain/mac_pnacl/bin/../x86_64-nacl/lib32/libcrt_common.a(lib_a-wbuf.o)
 .bss           0x0000000010034934        0x0 /Users/jkwang/Desktop/nacl_sdk/pepper_canary/toolchain/mac_pnacl/bin/../x86_64-nacl/lib32/libnacl.a(close.o)
 .bss           0x0000000010034934        0x0 /Users/jkwang/Desktop/nacl_sdk/pepper_canary/toolchain/mac_pnacl/bin/../x86_64-nacl/lib32/libnacl.a(fstat.o)
 .bss           0x0000000010034934        0x0 /Users/jkwang/Desktop/nacl_sdk/pepper_canary/toolchain/mac_pnacl/bin/../x86_64-nacl/lib32/libnacl.a(isatty.o)
 .bss           0x0000000010034934        0x0 /Users/jkwang/Desktop/nacl_sdk/pepper_canary/toolchain/mac_pnacl/bin/../x86_64-nacl/lib32/libnacl.a(lseek.o)
 .bss           0x0000000010034934        0x0 /Users/jkwang/Desktop/nacl_sdk/pepper_canary/toolchain/mac_pnacl/bin/../x86_64-nacl/lib32/libnacl.a(nanosleep.o)
 .bss           0x0000000010034934        0x0 /Users/jkwang/Desktop/nacl_sdk/pepper_canary/toolchain/mac_pnacl/bin/../x86_64-nacl/lib32/libnacl.a(nacl_irt_fdio.o)
 .bss           0x0000000010034934        0x0 /Users/jkwang/Desktop/nacl_sdk/pepper_canary/toolchain/mac_pnacl/bin/../x86_64-nacl/lib32/libnacl.a(read.o)
 .bss           0x0000000010034934        0x0 /Users/jkwang/Desktop/nacl_sdk/pepper_canary/toolchain/mac_pnacl/bin/../lib/clang/3.7.0/lib/i686-nacl/libgcc.a(udivdi3.o)
 .bss           0x0000000010034934        0x0 /Users/jkwang/Desktop/nacl_sdk/pepper_canary/toolchain/mac_pnacl/bin/../lib/clang/3.7.0/lib/i686-nacl/libgcc.a(udivmoddi4.o)
 .bss           0x0000000010034934        0x0 /Users/jkwang/Desktop/nacl_sdk/pepper_canary/toolchain/mac_pnacl/bin/../lib/clang/3.7.0/lib/i686-nacl/libgcc.a(umoddi3.o)
 .bss           0x0000000010034934       0x14 /Users/jkwang/Desktop/nacl_sdk/pepper_canary/toolchain/mac_pnacl/bin/../lib/clang/3.7.0/lib/i686-nacl/libgcc_eh.a(unwind-dw2-fde-glibc.o)
 .bss           0x0000000010034948        0x0 /Users/jkwang/Desktop/nacl_sdk/pepper_canary/toolchain/mac_pnacl/bin/../lib/clang/3.7.0/lib/i686-nacl/crtend.o
 .bss           0x0000000010034948        0x0 /Users/jkwang/Desktop/nacl_sdk/pepper_canary/toolchain/mac_pnacl/bin/../x86_64-nacl/lib32/crtn.o
 *(COMMON)
 COMMON         0x0000000010034948        0xc clang-newlib/Release/debugging_x86_32.o
                0x0000000010034948                g_PPAPIThread
                0x000000001003494c                g_Instance
                0x0000000010034950                g_NexeThread
 COMMON         0x0000000010034954       0x14 /Users/jkwang/Desktop/nacl_sdk/pepper_canary/toolchain/mac_pnacl/bin/../x86_64-nacl/lib32/libpthread.a(nc_thread.o)
                0x0000000010034954                __nc_thread_initialized
                0x0000000010034958                __nc_initial_thread_id
                0x000000001003495c                __libnacl_irt_thread
 COMMON         0x0000000010034968        0x8 /Users/jkwang/Desktop/nacl_sdk/pepper_canary/toolchain/mac_pnacl/bin/../x86_64-nacl/lib32/libpthread.a(nc_init_irt.o)
                0x0000000010034968                __libnacl_irt_futex
 COMMON         0x0000000010034970       0xb4 /Users/jkwang/Desktop/nacl_sdk/pepper_canary/toolchain/mac_pnacl/bin/../x86_64-nacl/lib32/libnacl.a(nacl_irt.o)
                0x0000000010034970                __nacl_irt_query
                0x0000000010034974                __libnacl_irt_dev_filename
                0x00000000100349b4                __libnacl_irt_clock
                0x00000000100349bc                __libnacl_irt_memory
                0x00000000100349c8                __libnacl_irt_dev_fdio
                0x0000000010034a00                __libnacl_irt_basic
                0x0000000010034a18                __libnacl_irt_tls
                0x0000000010034a20                __libnacl_irt_dev_getpid
 COMMON         0x0000000010034a24        0x4 /Users/jkwang/Desktop/nacl_sdk/pepper_canary/toolchain/mac_pnacl/bin/../x86_64-nacl/lib32/libnacl.a(start.o)
                0x0000000010034a24                __nacl_initial_thread_stack_end
                0x0000000010034a28                . = ALIGN ((. != 0x0)?0x4:0x1)
                0x0000000010034a28                . = ALIGN (0x4)
                0x0000000010034a28                . = SEGMENT_START ("ldata-segment", .)
                0x0000000010034a28                . = ALIGN (0x4)
                0x0000000010034a28                _end = .
                0x0000000010034a28                PROVIDE (end, .)
                0x0000000010034a28                . = DATA_SEGMENT_END (.)

.stab
 *(.stab)

.stabstr
 *(.stabstr)

.stab.excl
 *(.stab.excl)

.stab.exclstr
 *(.stab.exclstr)

.stab.index
 *(.stab.index)

.stab.indexstr
 *(.stab.indexstr)

.comment        0x0000000000000000      0x175
 *(.comment)
 .comment       0x0000000000000000       0xed /Users/jkwang/Desktop/nacl_sdk/pepper_canary/toolchain/mac_pnacl/bin/../lib/clang/3.7.0/lib/i686-nacl/crtbeginT.o
                                         0xee (size before relaxing)
 .comment       0x0000000000000000       0xee clang-newlib/Release/debugging_x86_32.o
 .comment       0x0000000000000000       0xee /Users/jkwang/Desktop/nacl_sdk/pepper_canary/lib/clang-newlib_x86_32/Release/liberror_handling.a(error_handling_x86_32.o)
 .comment       0x0000000000000000       0xee /Users/jkwang/Desktop/nacl_sdk/pepper_canary/lib/clang-newlib_x86_32/Release/liberror_handling.a(string_stream_x86_32.o)
 .comment       0x0000000000000000       0xee /Users/jkwang/Desktop/nacl_sdk/pepper_canary/toolchain/mac_pnacl/bin/../x86_64-nacl/lib32/libppapi_stub.a(plugin_main_irt.o)
 .comment       0x0000000000000000       0xee /Users/jkwang/Desktop/nacl_sdk/pepper_canary/toolchain/mac_pnacl/bin/../x86_64-nacl/lib32/libppapi_stub.a(ppapi_plugin_main.o)
 .comment       0x0000000000000000       0xee /Users/jkwang/Desktop/nacl_sdk/pepper_canary/toolchain/mac_pnacl/bin/../x86_64-nacl/lib32/libppapi_stub.a(ppapi_plugin_start.o)
 .comment       0x0000000000000000       0xee /Users/jkwang/Desktop/nacl_sdk/pepper_canary/toolchain/mac_pnacl/bin/../x86_64-nacl/lib32/libppapi_stub.a(thread_creator.o)
 .comment       0x0000000000000000       0xee /Users/jkwang/Desktop/nacl_sdk/pepper_canary/toolchain/mac_pnacl/bin/../x86_64-nacl/lib32/libpthread.a(nc_thread.o)
 .comment       0x0000000000000000       0xee /Users/jkwang/Desktop/nacl_sdk/pepper_canary/toolchain/mac_pnacl/bin/../x86_64-nacl/lib32/libpthread.a(nc_mutex.o)
 .comment       0x0000000000000000       0xee /Users/jkwang/Desktop/nacl_sdk/pepper_canary/toolchain/mac_pnacl/bin/../x86_64-nacl/lib32/libpthread.a(nc_condvar.o)
 .comment       0x0000000000000000       0xee /Users/jkwang/Desktop/nacl_sdk/pepper_canary/toolchain/mac_pnacl/bin/../x86_64-nacl/lib32/libpthread.a(valgrind_annotations.o)
 .comment       0x0000000000000000       0xee /Users/jkwang/Desktop/nacl_sdk/pepper_canary/toolchain/mac_pnacl/bin/../x86_64-nacl/lib32/libpthread.a(nc_init_irt.o)
 .comment       0x0000000000000000       0xee /Users/jkwang/Desktop/nacl_sdk/pepper_canary/toolchain/mac_pnacl/bin/../x86_64-nacl/lib32/libnacl.a(nacl_irt.o)
 .comment       0x0000000000000000       0xee /Users/jkwang/Desktop/nacl_sdk/pepper_canary/toolchain/mac_pnacl/bin/../x86_64-nacl/lib32/libnacl.a(_exit.o)
 .comment       0x0000000000000000       0xee /Users/jkwang/Desktop/nacl_sdk/pepper_canary/toolchain/mac_pnacl/bin/../x86_64-nacl/lib32/libnacl.a(mmap.o)
 .comment       0x0000000000000000       0xee /Users/jkwang/Desktop/nacl_sdk/pepper_canary/toolchain/mac_pnacl/bin/../x86_64-nacl/lib32/libnacl.a(munmap.o)
 .comment       0x0000000000000000       0xee /Users/jkwang/Desktop/nacl_sdk/pepper_canary/toolchain/mac_pnacl/bin/../x86_64-nacl/lib32/libnacl.a(nacl_interface_query.o)
 .comment       0x0000000000000000       0xee /Users/jkwang/Desktop/nacl_sdk/pepper_canary/toolchain/mac_pnacl/bin/../x86_64-nacl/lib32/libnacl.a(write.o)
 .comment       0x0000000000000000       0xee /Users/jkwang/Desktop/nacl_sdk/pepper_canary/toolchain/mac_pnacl/bin/../x86_64-nacl/lib32/libnacl.a(environ.o)
 .comment       0x0000000000000000       0xee /Users/jkwang/Desktop/nacl_sdk/pepper_canary/toolchain/mac_pnacl/bin/../x86_64-nacl/lib32/libnacl.a(malloc.o)
 .comment       0x0000000000000000       0xee /Users/jkwang/Desktop/nacl_sdk/pepper_canary/toolchain/mac_pnacl/bin/../x86_64-nacl/lib32/libnacl.a(start.o)
 .comment       0x0000000000000000       0xee /Users/jkwang/Desktop/nacl_sdk/pepper_canary/toolchain/mac_pnacl/bin/../x86_64-nacl/lib32/libnacl.a(nacl_read_tp.o)
 .comment       0x0000000000000000       0xee /Users/jkwang/Desktop/nacl_sdk/pepper_canary/toolchain/mac_pnacl/bin/../x86_64-nacl/lib32/libnacl.a(pthread_initialize_minimal.o)
 .comment       0x0000000000000000       0xee /Users/jkwang/Desktop/nacl_sdk/pepper_canary/toolchain/mac_pnacl/bin/../x86_64-nacl/lib32/libnacl.a(tls.o)
 .comment       0x0000000000000000       0xee /Users/jkwang/Desktop/nacl_sdk/pepper_canary/toolchain/mac_pnacl/bin/../x86_64-nacl/lib32/libnacl.a(nacl_irt_init.o)
 .comment       0x0000000000000000       0xee /Users/jkwang/Desktop/nacl_sdk/pepper_canary/toolchain/mac_pnacl/bin/../x86_64-nacl/lib32/libnacl.a(nacl_tls_get.o)
 .comment       0x0000000000000000       0xee /Users/jkwang/Desktop/nacl_sdk/pepper_canary/toolchain/mac_pnacl/bin/../x86_64-nacl/lib32/libnacl.a(nacl_tls_init.o)
 .comment       0x0000000000000000       0xee /Users/jkwang/Desktop/nacl_sdk/pepper_canary/toolchain/mac_pnacl/bin/../x86_64-nacl/lib32/libnacl.a(abort.o)
 .comment       0x0000000000000000       0xee /Users/jkwang/Desktop/nacl_sdk/pepper_canary/toolchain/mac_pnacl/bin/../x86_64-nacl/lib32/libnacl.a(sched_yield.o)
 .comment       0x0000000000000000       0xee /Users/jkwang/Desktop/nacl_sdk/pepper_canary/toolchain/mac_pnacl/bin/../x86_64-nacl/lib32/libnacl.a(sysconf.o)
 .comment       0x0000000000000000       0xee /Users/jkwang/Desktop/nacl_sdk/pepper_canary/toolchain/mac_pnacl/bin/../x86_64-nacl/lib32/libcrt_common.a(lib_a-atexit.o)
 .comment       0x0000000000000000       0xee /Users/jkwang/Desktop/nacl_sdk/pepper_canary/toolchain/mac_pnacl/bin/../x86_64-nacl/lib32/libcrt_common.a(lib_a-errno.o)
 .comment       0x0000000000000000       0xee /Users/jkwang/Desktop/nacl_sdk/pepper_canary/toolchain/mac_pnacl/bin/../x86_64-nacl/lib32/libcrt_common.a(lib_a-exit.o)
 .comment       0x0000000000000000       0xee /Users/jkwang/Desktop/nacl_sdk/pepper_canary/toolchain/mac_pnacl/bin/../x86_64-nacl/lib32/libcrt_common.a(lib_a-fflush.o)
 .comment       0x0000000000000000       0xee /Users/jkwang/Desktop/nacl_sdk/pepper_canary/toolchain/mac_pnacl/bin/../x86_64-nacl/lib32/libcrt_common.a(lib_a-findfp.o)
 .comment       0x0000000000000000       0xee /Users/jkwang/Desktop/nacl_sdk/pepper_canary/toolchain/mac_pnacl/bin/../x86_64-nacl/lib32/libcrt_common.a(lib_a-fini.o)
 .comment       0x0000000000000000       0xee /Users/jkwang/Desktop/nacl_sdk/pepper_canary/toolchain/mac_pnacl/bin/../x86_64-nacl/lib32/libcrt_common.a(lib_a-fprintf.o)
 .comment       0x0000000000000000       0xee /Users/jkwang/Desktop/nacl_sdk/pepper_canary/toolchain/mac_pnacl/bin/../x86_64-nacl/lib32/libcrt_common.a(lib_a-fwalk.o)
 .comment       0x0000000000000000       0xee /Users/jkwang/Desktop/nacl_sdk/pepper_canary/toolchain/mac_pnacl/bin/../x86_64-nacl/lib32/libcrt_common.a(lib_a-fwrite.o)
 .comment       0x0000000000000000       0xee /Users/jkwang/Desktop/nacl_sdk/pepper_canary/toolchain/mac_pnacl/bin/../x86_64-nacl/lib32/libcrt_common.a(lib_a-getenv.o)
 .comment       0x0000000000000000       0xee /Users/jkwang/Desktop/nacl_sdk/pepper_canary/toolchain/mac_pnacl/bin/../x86_64-nacl/lib32/libcrt_common.a(lib_a-getenv_r.o)
 .comment       0x0000000000000000       0xee /Users/jkwang/Desktop/nacl_sdk/pepper_canary/toolchain/mac_pnacl/bin/../x86_64-nacl/lib32/libcrt_common.a(lib_a-impure.o)
 .comment       0x0000000000000000       0xee /Users/jkwang/Desktop/nacl_sdk/pepper_canary/toolchain/mac_pnacl/bin/../x86_64-nacl/lib32/libcrt_common.a(lib_a-init.o)
 .comment       0x0000000000000000       0xee /Users/jkwang/Desktop/nacl_sdk/pepper_canary/toolchain/mac_pnacl/bin/../x86_64-nacl/lib32/libcrt_common.a(lib_a-sleep.o)
 .comment       0x0000000000000000       0xee /Users/jkwang/Desktop/nacl_sdk/pepper_canary/toolchain/mac_pnacl/bin/../x86_64-nacl/lib32/libcrt_common.a(lib_a-stdio.o)
 .comment       0x0000000000000000       0xee /Users/jkwang/Desktop/nacl_sdk/pepper_canary/toolchain/mac_pnacl/bin/../x86_64-nacl/lib32/libcrt_common.a(lib_a-strcat.o)
 .comment       0x0000000000000000       0xee /Users/jkwang/Desktop/nacl_sdk/pepper_canary/toolchain/mac_pnacl/bin/../x86_64-nacl/lib32/libcrt_common.a(lib_a-strcmp.o)
 .comment       0x0000000000000000       0xee /Users/jkwang/Desktop/nacl_sdk/pepper_canary/toolchain/mac_pnacl/bin/../x86_64-nacl/lib32/libcrt_common.a(lib_a-strcpy.o)
 .comment       0x0000000000000000       0xee /Users/jkwang/Desktop/nacl_sdk/pepper_canary/toolchain/mac_pnacl/bin/../x86_64-nacl/lib32/libcrt_common.a(lib_a-strncmp.o)
 .comment       0x0000000000000000       0xee /Users/jkwang/Desktop/nacl_sdk/pepper_canary/toolchain/mac_pnacl/bin/../x86_64-nacl/lib32/libcrt_common.a(lib_a-vfprintf.o)
 .comment       0x0000000000000000       0xee /Users/jkwang/Desktop/nacl_sdk/pepper_canary/toolchain/mac_pnacl/bin/../x86_64-nacl/lib32/libcrt_common.a(lib_a-vsnprintf.o)
 .comment       0x0000000000000000       0xee /Users/jkwang/Desktop/nacl_sdk/pepper_canary/toolchain/mac_pnacl/bin/../x86_64-nacl/lib32/libcrt_common.a(lib_a-vsprintf.o)
 .comment       0x0000000000000000       0xee /Users/jkwang/Desktop/nacl_sdk/pepper_canary/toolchain/mac_pnacl/bin/../x86_64-nacl/lib32/libcrt_common.a(lib_a-wcrtomb.o)
 .comment       0x0000000000000000       0xee /Users/jkwang/Desktop/nacl_sdk/pepper_canary/toolchain/mac_pnacl/bin/../x86_64-nacl/lib32/libcrt_common.a(lib_a-wcsrtombs.o)
 .comment       0x0000000000000000       0xee /Users/jkwang/Desktop/nacl_sdk/pepper_canary/toolchain/mac_pnacl/bin/../x86_64-nacl/lib32/libcrt_common.a(lib_a-wctomb_r.o)
 .comment       0x0000000000000000       0xee /Users/jkwang/Desktop/nacl_sdk/pepper_canary/toolchain/mac_pnacl/bin/../x86_64-nacl/lib32/libcrt_common.a(lib_a-wsetup.o)
 .comment       0x0000000000000000       0xee /Users/jkwang/Desktop/nacl_sdk/pepper_canary/toolchain/mac_pnacl/bin/../x86_64-nacl/lib32/libcrt_common.a(lib_a-__atexit.o)
 .comment       0x0000000000000000       0xee /Users/jkwang/Desktop/nacl_sdk/pepper_canary/toolchain/mac_pnacl/bin/../x86_64-nacl/lib32/libcrt_common.a(lib_a-__call_atexit.o)
 .comment       0x0000000000000000       0xee /Users/jkwang/Desktop/nacl_sdk/pepper_canary/toolchain/mac_pnacl/bin/../x86_64-nacl/lib32/libcrt_common.a(lib_a-dtoa.o)
 .comment       0x0000000000000000       0xee /Users/jkwang/Desktop/nacl_sdk/pepper_canary/toolchain/mac_pnacl/bin/../x86_64-nacl/lib32/libcrt_common.a(lib_a-envlock.o)
 .comment       0x0000000000000000       0xee /Users/jkwang/Desktop/nacl_sdk/pepper_canary/toolchain/mac_pnacl/bin/../x86_64-nacl/lib32/libcrt_common.a(lib_a-fclose.o)
 .comment       0x0000000000000000       0xee /Users/jkwang/Desktop/nacl_sdk/pepper_canary/toolchain/mac_pnacl/bin/../x86_64-nacl/lib32/libcrt_common.a(lib_a-fvwrite.o)
 .comment       0x0000000000000000       0xee /Users/jkwang/Desktop/nacl_sdk/pepper_canary/toolchain/mac_pnacl/bin/../x86_64-nacl/lib32/libcrt_common.a(lib_a-locale.o)
 .comment       0x0000000000000000       0xee /Users/jkwang/Desktop/nacl_sdk/pepper_canary/toolchain/mac_pnacl/bin/../x86_64-nacl/lib32/libcrt_common.a(lib_a-makebuf.o)
 .comment       0x0000000000000000       0xee /Users/jkwang/Desktop/nacl_sdk/pepper_canary/toolchain/mac_pnacl/bin/../x86_64-nacl/lib32/libcrt_common.a(lib_a-mbtowc_r.o)
 .comment       0x0000000000000000       0xee /Users/jkwang/Desktop/nacl_sdk/pepper_canary/toolchain/mac_pnacl/bin/../x86_64-nacl/lib32/libcrt_common.a(lib_a-mprec.o)
 .comment       0x0000000000000000       0xee /Users/jkwang/Desktop/nacl_sdk/pepper_canary/toolchain/mac_pnacl/bin/../x86_64-nacl/lib32/libcrt_common.a(lib_a-s_fpclassify.o)
 .comment       0x0000000000000000       0xee /Users/jkwang/Desktop/nacl_sdk/pepper_canary/toolchain/mac_pnacl/bin/../x86_64-nacl/lib32/libcrt_common.a(lib_a-s_frexp.o)
 .comment       0x0000000000000000       0xee /Users/jkwang/Desktop/nacl_sdk/pepper_canary/toolchain/mac_pnacl/bin/../x86_64-nacl/lib32/libcrt_common.a(lib_a-strcasecmp.o)
 .comment       0x0000000000000000       0xee /Users/jkwang/Desktop/nacl_sdk/pepper_canary/toolchain/mac_pnacl/bin/../x86_64-nacl/lib32/libcrt_common.a(lib_a-strlcpy.o)
 .comment       0x0000000000000000       0xee /Users/jkwang/Desktop/nacl_sdk/pepper_canary/toolchain/mac_pnacl/bin/../x86_64-nacl/lib32/libcrt_common.a(lib_a-strncasecmp.o)
 .comment       0x0000000000000000       0xee /Users/jkwang/Desktop/nacl_sdk/pepper_canary/toolchain/mac_pnacl/bin/../x86_64-nacl/lib32/libcrt_common.a(lib_a-strncpy.o)
 .comment       0x0000000000000000       0xee /Users/jkwang/Desktop/nacl_sdk/pepper_canary/toolchain/mac_pnacl/bin/../x86_64-nacl/lib32/libcrt_common.a(lib_a-strtol.o)
 .comment       0x0000000000000000       0xee /Users/jkwang/Desktop/nacl_sdk/pepper_canary/toolchain/mac_pnacl/bin/../x86_64-nacl/lib32/libcrt_common.a(lib_a-svfprintf.o)
 .comment       0x0000000000000000       0xee /Users/jkwang/Desktop/nacl_sdk/pepper_canary/toolchain/mac_pnacl/bin/../x86_64-nacl/lib32/libcrt_common.a(lib_a-vfiprintf.o)
 .comment       0x0000000000000000       0xee /Users/jkwang/Desktop/nacl_sdk/pepper_canary/toolchain/mac_pnacl/bin/../x86_64-nacl/lib32/libcrt_common.a(lib_a-wcsnrtombs.o)
 .comment       0x0000000000000000       0xee /Users/jkwang/Desktop/nacl_sdk/pepper_canary/toolchain/mac_pnacl/bin/../x86_64-nacl/lib32/libcrt_common.a(lib_a-ctype_.o)
 .comment       0x0000000000000000       0xee /Users/jkwang/Desktop/nacl_sdk/pepper_canary/toolchain/mac_pnacl/bin/../x86_64-nacl/lib32/libcrt_common.a(lib_a-fputwc.o)
 .comment       0x0000000000000000       0xee /Users/jkwang/Desktop/nacl_sdk/pepper_canary/toolchain/mac_pnacl/bin/../x86_64-nacl/lib32/libcrt_common.a(lib_a-svfiprintf.o)
 .comment       0x0000000000000000       0xee /Users/jkwang/Desktop/nacl_sdk/pepper_canary/toolchain/mac_pnacl/bin/../x86_64-nacl/lib32/libcrt_common.a(lib_a-wbuf.o)
 .comment       0x0000000000000000       0xee /Users/jkwang/Desktop/nacl_sdk/pepper_canary/toolchain/mac_pnacl/bin/../x86_64-nacl/lib32/libnacl.a(close.o)
 .comment       0x0000000000000000       0xee /Users/jkwang/Desktop/nacl_sdk/pepper_canary/toolchain/mac_pnacl/bin/../x86_64-nacl/lib32/libnacl.a(fstat.o)
 .comment       0x0000000000000000       0xee /Users/jkwang/Desktop/nacl_sdk/pepper_canary/toolchain/mac_pnacl/bin/../x86_64-nacl/lib32/libnacl.a(isatty.o)
 .comment       0x0000000000000000       0xee /Users/jkwang/Desktop/nacl_sdk/pepper_canary/toolchain/mac_pnacl/bin/../x86_64-nacl/lib32/libnacl.a(lseek.o)
 .comment       0x0000000000000000       0xee /Users/jkwang/Desktop/nacl_sdk/pepper_canary/toolchain/mac_pnacl/bin/../x86_64-nacl/lib32/libnacl.a(nanosleep.o)
 .comment       0x0000000000000000       0xee /Users/jkwang/Desktop/nacl_sdk/pepper_canary/toolchain/mac_pnacl/bin/../x86_64-nacl/lib32/libnacl.a(nacl_irt_fdio.o)
 .comment       0x0000000000000000       0xee /Users/jkwang/Desktop/nacl_sdk/pepper_canary/toolchain/mac_pnacl/bin/../x86_64-nacl/lib32/libnacl.a(read.o)
 .comment       0x0000000000000000       0xee /Users/jkwang/Desktop/nacl_sdk/pepper_canary/toolchain/mac_pnacl/bin/../lib/clang/3.7.0/lib/i686-nacl/libgcc.a(udivdi3.o)
 .comment       0x0000000000000000       0xee /Users/jkwang/Desktop/nacl_sdk/pepper_canary/toolchain/mac_pnacl/bin/../lib/clang/3.7.0/lib/i686-nacl/libgcc.a(udivmoddi4.o)
 .comment       0x0000000000000000       0xee /Users/jkwang/Desktop/nacl_sdk/pepper_canary/toolchain/mac_pnacl/bin/../lib/clang/3.7.0/lib/i686-nacl/libgcc.a(umoddi3.o)
 .comment       0x00000000000000ed       0x88 /Users/jkwang/Desktop/nacl_sdk/pepper_canary/toolchain/mac_pnacl/bin/../lib/clang/3.7.0/lib/i686-nacl/libgcc_eh.a(unwind-dw2-fde-glibc.o)
                                         0x89 (size before relaxing)
 .comment       0x0000000000000000       0xee /Users/jkwang/Desktop/nacl_sdk/pepper_canary/toolchain/mac_pnacl/bin/../lib/clang/3.7.0/lib/i686-nacl/crtend.o

.debug
 *(.debug)

.line
 *(.line)

.debug_srcinfo
 *(.debug_srcinfo)

.debug_sfnames
 *(.debug_sfnames)

.debug_aranges  0x0000000000000000       0xe0
 *(.debug_aranges)
 .debug_aranges
                0x0000000000000000       0x20 /Users/jkwang/Desktop/nacl_sdk/pepper_canary/toolchain/mac_pnacl/bin/../x86_64-nacl/lib32/libcrt_common.a(lib_a-memcpy.o)
 .debug_aranges
                0x0000000000000020       0x20 /Users/jkwang/Desktop/nacl_sdk/pepper_canary/toolchain/mac_pnacl/bin/../x86_64-nacl/lib32/libcrt_common.a(lib_a-memset.o)
 .debug_aranges
                0x0000000000000040       0x20 /Users/jkwang/Desktop/nacl_sdk/pepper_canary/toolchain/mac_pnacl/bin/../x86_64-nacl/lib32/libcrt_common.a(lib_a-strlen.o)
 .debug_aranges
                0x0000000000000060       0x20 /Users/jkwang/Desktop/nacl_sdk/pepper_canary/toolchain/mac_pnacl/bin/../x86_64-nacl/lib32/libcrt_common.a(lib_a-memchr.o)
 .debug_aranges
                0x0000000000000080       0x20 /Users/jkwang/Desktop/nacl_sdk/pepper_canary/toolchain/mac_pnacl/bin/../x86_64-nacl/lib32/libcrt_common.a(lib_a-memmove.o)
 .debug_aranges
                0x00000000000000a0       0x20 /Users/jkwang/Desktop/nacl_sdk/pepper_canary/toolchain/mac_pnacl/bin/../x86_64-nacl/lib32/libcrt_common.a(lib_a-strchr.o)
 .debug_aranges
                0x00000000000000c0       0x20 /Users/jkwang/Desktop/nacl_sdk/pepper_canary/toolchain/mac_pnacl/bin/../lib/clang/3.7.0/lib/i686-nacl/libgcc_eh.a(unwind-dw2-fde-glibc.o)

.debug_pubnames
                0x0000000000000000     0x2c4a
 *(.debug_pubnames)
 .debug_pubnames
                0x0000000000000000      0x223 clang-newlib/Release/debugging_x86_32.o
 .debug_pubnames
                0x0000000000000223      0x1c3 /Users/jkwang/Desktop/nacl_sdk/pepper_canary/lib/clang-newlib_x86_32/Release/liberror_handling.a(error_handling_x86_32.o)
 .debug_pubnames
                0x00000000000003e6       0x43 /Users/jkwang/Desktop/nacl_sdk/pepper_canary/lib/clang-newlib_x86_32/Release/liberror_handling.a(string_stream_x86_32.o)
 .debug_pubnames
                0x0000000000000429      0x62f /Users/jkwang/Desktop/nacl_sdk/pepper_canary/toolchain/mac_pnacl/bin/../x86_64-nacl/lib32/libpthread.a(nc_thread.o)
 .debug_pubnames
                0x0000000000000a58      0x19c /Users/jkwang/Desktop/nacl_sdk/pepper_canary/toolchain/mac_pnacl/bin/../x86_64-nacl/lib32/libpthread.a(nc_mutex.o)
 .debug_pubnames
                0x0000000000000bf4      0x166 /Users/jkwang/Desktop/nacl_sdk/pepper_canary/toolchain/mac_pnacl/bin/../x86_64-nacl/lib32/libpthread.a(nc_condvar.o)
 .debug_pubnames
                0x0000000000000d5a      0x4d7 /Users/jkwang/Desktop/nacl_sdk/pepper_canary/toolchain/mac_pnacl/bin/../x86_64-nacl/lib32/libpthread.a(valgrind_annotations.o)
 .debug_pubnames
                0x0000000000001231       0x49 /Users/jkwang/Desktop/nacl_sdk/pepper_canary/toolchain/mac_pnacl/bin/../x86_64-nacl/lib32/libpthread.a(nc_init_irt.o)
 .debug_pubnames
                0x000000000000127a      0x1f6 /Users/jkwang/Desktop/nacl_sdk/pepper_canary/toolchain/mac_pnacl/bin/../x86_64-nacl/lib32/libnacl.a(nacl_irt.o)
 .debug_pubnames
                0x0000000000001470       0x1c /Users/jkwang/Desktop/nacl_sdk/pepper_canary/toolchain/mac_pnacl/bin/../x86_64-nacl/lib32/libnacl.a(_exit.o)
 .debug_pubnames
                0x000000000000148c       0x1b /Users/jkwang/Desktop/nacl_sdk/pepper_canary/toolchain/mac_pnacl/bin/../x86_64-nacl/lib32/libnacl.a(mmap.o)
 .debug_pubnames
                0x00000000000014a7       0x1d /Users/jkwang/Desktop/nacl_sdk/pepper_canary/toolchain/mac_pnacl/bin/../x86_64-nacl/lib32/libnacl.a(munmap.o)
 .debug_pubnames
                0x00000000000014c4       0x2b /Users/jkwang/Desktop/nacl_sdk/pepper_canary/toolchain/mac_pnacl/bin/../x86_64-nacl/lib32/libnacl.a(nacl_interface_query.o)
 .debug_pubnames
                0x00000000000014ef       0x1c /Users/jkwang/Desktop/nacl_sdk/pepper_canary/toolchain/mac_pnacl/bin/../x86_64-nacl/lib32/libnacl.a(write.o)
 .debug_pubnames
                0x000000000000150b       0x28 /Users/jkwang/Desktop/nacl_sdk/pepper_canary/toolchain/mac_pnacl/bin/../x86_64-nacl/lib32/libnacl.a(environ.o)
 .debug_pubnames
                0x0000000000001533      0x38d /Users/jkwang/Desktop/nacl_sdk/pepper_canary/toolchain/mac_pnacl/bin/../x86_64-nacl/lib32/libnacl.a(malloc.o)
 .debug_pubnames
                0x00000000000018c0       0xc5 /Users/jkwang/Desktop/nacl_sdk/pepper_canary/toolchain/mac_pnacl/bin/../x86_64-nacl/lib32/libnacl.a(start.o)
 .debug_pubnames
                0x0000000000001985       0x25 /Users/jkwang/Desktop/nacl_sdk/pepper_canary/toolchain/mac_pnacl/bin/../x86_64-nacl/lib32/libnacl.a(nacl_read_tp.o)
 .debug_pubnames
                0x00000000000019aa       0x33 /Users/jkwang/Desktop/nacl_sdk/pepper_canary/toolchain/mac_pnacl/bin/../x86_64-nacl/lib32/libnacl.a(pthread_initialize_minimal.o)
 .debug_pubnames
                0x00000000000019dd      0x109 /Users/jkwang/Desktop/nacl_sdk/pepper_canary/toolchain/mac_pnacl/bin/../x86_64-nacl/lib32/libnacl.a(tls.o)
 .debug_pubnames
                0x0000000000001ae6       0x52 /Users/jkwang/Desktop/nacl_sdk/pepper_canary/toolchain/mac_pnacl/bin/../x86_64-nacl/lib32/libnacl.a(nacl_irt_init.o)
 .debug_pubnames
                0x0000000000001b38       0x23 /Users/jkwang/Desktop/nacl_sdk/pepper_canary/toolchain/mac_pnacl/bin/../x86_64-nacl/lib32/libnacl.a(nacl_tls_get.o)
 .debug_pubnames
                0x0000000000001b5b       0x24 /Users/jkwang/Desktop/nacl_sdk/pepper_canary/toolchain/mac_pnacl/bin/../x86_64-nacl/lib32/libnacl.a(nacl_tls_init.o)
 .debug_pubnames
                0x0000000000001b7f       0x28 /Users/jkwang/Desktop/nacl_sdk/pepper_canary/toolchain/mac_pnacl/bin/../x86_64-nacl/lib32/libnacl.a(abort.o)
 .debug_pubnames
                0x0000000000001ba7       0x22 /Users/jkwang/Desktop/nacl_sdk/pepper_canary/toolchain/mac_pnacl/bin/../x86_64-nacl/lib32/libnacl.a(sched_yield.o)
 .debug_pubnames
                0x0000000000001bc9       0x1e /Users/jkwang/Desktop/nacl_sdk/pepper_canary/toolchain/mac_pnacl/bin/../x86_64-nacl/lib32/libnacl.a(sysconf.o)
 .debug_pubnames
                0x0000000000001be7       0x1d /Users/jkwang/Desktop/nacl_sdk/pepper_canary/toolchain/mac_pnacl/bin/../x86_64-nacl/lib32/libcrt_common.a(lib_a-atexit.o)
 .debug_pubnames
                0x0000000000001c04       0x1e /Users/jkwang/Desktop/nacl_sdk/pepper_canary/toolchain/mac_pnacl/bin/../x86_64-nacl/lib32/libcrt_common.a(lib_a-errno.o)
 .debug_pubnames
                0x0000000000001c22       0x1b /Users/jkwang/Desktop/nacl_sdk/pepper_canary/toolchain/mac_pnacl/bin/../x86_64-nacl/lib32/libcrt_common.a(lib_a-exit.o)
 .debug_pubnames
                0x0000000000001c3d       0x3a /Users/jkwang/Desktop/nacl_sdk/pepper_canary/toolchain/mac_pnacl/bin/../x86_64-nacl/lib32/libcrt_common.a(lib_a-fflush.o)
 .debug_pubnames
                0x0000000000001c77      0x121 /Users/jkwang/Desktop/nacl_sdk/pepper_canary/toolchain/mac_pnacl/bin/../x86_64-nacl/lib32/libcrt_common.a(lib_a-findfp.o)
 .debug_pubnames
                0x0000000000001d98       0x28 /Users/jkwang/Desktop/nacl_sdk/pepper_canary/toolchain/mac_pnacl/bin/../x86_64-nacl/lib32/libcrt_common.a(lib_a-fini.o)
 .debug_pubnames
                0x0000000000001dc0       0x2d /Users/jkwang/Desktop/nacl_sdk/pepper_canary/toolchain/mac_pnacl/bin/../x86_64-nacl/lib32/libcrt_common.a(lib_a-fprintf.o)
 .debug_pubnames
                0x0000000000001ded       0x4c /Users/jkwang/Desktop/nacl_sdk/pepper_canary/toolchain/mac_pnacl/bin/../x86_64-nacl/lib32/libcrt_common.a(lib_a-fwalk.o)
 .debug_pubnames
                0x0000000000001e39       0x2b /Users/jkwang/Desktop/nacl_sdk/pepper_canary/toolchain/mac_pnacl/bin/../x86_64-nacl/lib32/libcrt_common.a(lib_a-fwrite.o)
 .debug_pubnames
                0x0000000000001e64       0x2a /Users/jkwang/Desktop/nacl_sdk/pepper_canary/toolchain/mac_pnacl/bin/../x86_64-nacl/lib32/libcrt_common.a(lib_a-getenv.o)
 .debug_pubnames
                0x0000000000001e8e       0x3d /Users/jkwang/Desktop/nacl_sdk/pepper_canary/toolchain/mac_pnacl/bin/../x86_64-nacl/lib32/libcrt_common.a(lib_a-getenv_r.o)
 .debug_pubnames
                0x0000000000001ecb       0x92 /Users/jkwang/Desktop/nacl_sdk/pepper_canary/toolchain/mac_pnacl/bin/../x86_64-nacl/lib32/libcrt_common.a(lib_a-impure.o)
 .debug_pubnames
                0x0000000000001f5d       0x28 /Users/jkwang/Desktop/nacl_sdk/pepper_canary/toolchain/mac_pnacl/bin/../x86_64-nacl/lib32/libcrt_common.a(lib_a-init.o)
 .debug_pubnames
                0x0000000000001f85       0x1c /Users/jkwang/Desktop/nacl_sdk/pepper_canary/toolchain/mac_pnacl/bin/../x86_64-nacl/lib32/libcrt_common.a(lib_a-sleep.o)
 .debug_pubnames
                0x0000000000001fa1       0x53 /Users/jkwang/Desktop/nacl_sdk/pepper_canary/toolchain/mac_pnacl/bin/../x86_64-nacl/lib32/libcrt_common.a(lib_a-stdio.o)
 .debug_pubnames
                0x0000000000001ff4       0x1d /Users/jkwang/Desktop/nacl_sdk/pepper_canary/toolchain/mac_pnacl/bin/../x86_64-nacl/lib32/libcrt_common.a(lib_a-strcat.o)
 .debug_pubnames
                0x0000000000002011       0x1d /Users/jkwang/Desktop/nacl_sdk/pepper_canary/toolchain/mac_pnacl/bin/../x86_64-nacl/lib32/libcrt_common.a(lib_a-strcmp.o)
 .debug_pubnames
                0x000000000000202e       0x1d /Users/jkwang/Desktop/nacl_sdk/pepper_canary/toolchain/mac_pnacl/bin/../x86_64-nacl/lib32/libcrt_common.a(lib_a-strcpy.o)
 .debug_pubnames
                0x000000000000204b       0x1e /Users/jkwang/Desktop/nacl_sdk/pepper_canary/toolchain/mac_pnacl/bin/../x86_64-nacl/lib32/libcrt_common.a(lib_a-strncmp.o)
 .debug_pubnames
                0x0000000000002069       0x69 /Users/jkwang/Desktop/nacl_sdk/pepper_canary/toolchain/mac_pnacl/bin/../x86_64-nacl/lib32/libcrt_common.a(lib_a-vfprintf.o)
 .debug_pubnames
                0x00000000000020d2       0x31 /Users/jkwang/Desktop/nacl_sdk/pepper_canary/toolchain/mac_pnacl/bin/../x86_64-nacl/lib32/libcrt_common.a(lib_a-vsnprintf.o)
 .debug_pubnames
                0x0000000000002103       0x2f /Users/jkwang/Desktop/nacl_sdk/pepper_canary/toolchain/mac_pnacl/bin/../x86_64-nacl/lib32/libcrt_common.a(lib_a-vsprintf.o)
 .debug_pubnames
                0x0000000000002132       0x2d /Users/jkwang/Desktop/nacl_sdk/pepper_canary/toolchain/mac_pnacl/bin/../x86_64-nacl/lib32/libcrt_common.a(lib_a-wcrtomb.o)
 .debug_pubnames
                0x000000000000215f       0x31 /Users/jkwang/Desktop/nacl_sdk/pepper_canary/toolchain/mac_pnacl/bin/../x86_64-nacl/lib32/libcrt_common.a(lib_a-wcsrtombs.o)
 .debug_pubnames
                0x0000000000002190       0x88 /Users/jkwang/Desktop/nacl_sdk/pepper_canary/toolchain/mac_pnacl/bin/../x86_64-nacl/lib32/libcrt_common.a(lib_a-wctomb_r.o)
 .debug_pubnames
                0x0000000000002218       0x22 /Users/jkwang/Desktop/nacl_sdk/pepper_canary/toolchain/mac_pnacl/bin/../x86_64-nacl/lib32/libcrt_common.a(lib_a-wsetup.o)
 .debug_pubnames
                0x000000000000223a       0x2a /Users/jkwang/Desktop/nacl_sdk/pepper_canary/toolchain/mac_pnacl/bin/../x86_64-nacl/lib32/libcrt_common.a(lib_a-__atexit.o)
 .debug_pubnames
                0x0000000000002264       0x39 /Users/jkwang/Desktop/nacl_sdk/pepper_canary/toolchain/mac_pnacl/bin/../x86_64-nacl/lib32/libcrt_common.a(lib_a-__call_atexit.o)
 .debug_pubnames
                0x000000000000229d       0x29 /Users/jkwang/Desktop/nacl_sdk/pepper_canary/toolchain/mac_pnacl/bin/../x86_64-nacl/lib32/libcrt_common.a(lib_a-dtoa.o)
 .debug_pubnames
                0x00000000000022c6       0x48 /Users/jkwang/Desktop/nacl_sdk/pepper_canary/toolchain/mac_pnacl/bin/../x86_64-nacl/lib32/libcrt_common.a(lib_a-envlock.o)
 .debug_pubnames
                0x000000000000230e       0x2b /Users/jkwang/Desktop/nacl_sdk/pepper_canary/toolchain/mac_pnacl/bin/../x86_64-nacl/lib32/libcrt_common.a(lib_a-fclose.o)
 .debug_pubnames
                0x0000000000002339       0x23 /Users/jkwang/Desktop/nacl_sdk/pepper_canary/toolchain/mac_pnacl/bin/../x86_64-nacl/lib32/libcrt_common.a(lib_a-fvwrite.o)
 .debug_pubnames
                0x000000000000235c      0x1f9 /Users/jkwang/Desktop/nacl_sdk/pepper_canary/toolchain/mac_pnacl/bin/../x86_64-nacl/lib32/libcrt_common.a(lib_a-locale.o)
 .debug_pubnames
                0x0000000000002555       0x23 /Users/jkwang/Desktop/nacl_sdk/pepper_canary/toolchain/mac_pnacl/bin/../x86_64-nacl/lib32/libcrt_common.a(lib_a-makebuf.o)
 .debug_pubnames
                0x0000000000002578       0xb1 /Users/jkwang/Desktop/nacl_sdk/pepper_canary/toolchain/mac_pnacl/bin/../x86_64-nacl/lib32/libcrt_common.a(lib_a-mbtowc_r.o)
 .debug_pubnames
                0x0000000000002629      0x142 /Users/jkwang/Desktop/nacl_sdk/pepper_canary/toolchain/mac_pnacl/bin/../x86_64-nacl/lib32/libcrt_common.a(lib_a-mprec.o)
 .debug_pubnames
                0x000000000000276b       0x24 /Users/jkwang/Desktop/nacl_sdk/pepper_canary/toolchain/mac_pnacl/bin/../x86_64-nacl/lib32/libcrt_common.a(lib_a-s_fpclassify.o)
 .debug_pubnames
                0x000000000000278f       0x26 /Users/jkwang/Desktop/nacl_sdk/pepper_canary/toolchain/mac_pnacl/bin/../x86_64-nacl/lib32/libcrt_common.a(lib_a-s_frexp.o)
 .debug_pubnames
                0x00000000000027b5       0x21 /Users/jkwang/Desktop/nacl_sdk/pepper_canary/toolchain/mac_pnacl/bin/../x86_64-nacl/lib32/libcrt_common.a(lib_a-strcasecmp.o)
 .debug_pubnames
                0x00000000000027d6       0x1e /Users/jkwang/Desktop/nacl_sdk/pepper_canary/toolchain/mac_pnacl/bin/../x86_64-nacl/lib32/libcrt_common.a(lib_a-strlcpy.o)
 .debug_pubnames
                0x00000000000027f4       0x22 /Users/jkwang/Desktop/nacl_sdk/pepper_canary/toolchain/mac_pnacl/bin/../x86_64-nacl/lib32/libcrt_common.a(lib_a-strncasecmp.o)
 .debug_pubnames
                0x0000000000002816       0x1e /Users/jkwang/Desktop/nacl_sdk/pepper_canary/toolchain/mac_pnacl/bin/../x86_64-nacl/lib32/libcrt_common.a(lib_a-strncpy.o)
 .debug_pubnames
                0x0000000000002834       0x2b /Users/jkwang/Desktop/nacl_sdk/pepper_canary/toolchain/mac_pnacl/bin/../x86_64-nacl/lib32/libcrt_common.a(lib_a-strtol.o)
 .debug_pubnames
                0x000000000000285f       0x4e /Users/jkwang/Desktop/nacl_sdk/pepper_canary/toolchain/mac_pnacl/bin/../x86_64-nacl/lib32/libcrt_common.a(lib_a-svfprintf.o)
 .debug_pubnames
                0x00000000000028ad       0x65 /Users/jkwang/Desktop/nacl_sdk/pepper_canary/toolchain/mac_pnacl/bin/../x86_64-nacl/lib32/libcrt_common.a(lib_a-vfiprintf.o)
 .debug_pubnames
                0x0000000000002912       0x33 /Users/jkwang/Desktop/nacl_sdk/pepper_canary/toolchain/mac_pnacl/bin/../x86_64-nacl/lib32/libcrt_common.a(lib_a-wcsnrtombs.o)
 .debug_pubnames
                0x0000000000002945       0x4d /Users/jkwang/Desktop/nacl_sdk/pepper_canary/toolchain/mac_pnacl/bin/../x86_64-nacl/lib32/libcrt_common.a(lib_a-ctype_.o)
 .debug_pubnames
                0x0000000000002992       0x38 /Users/jkwang/Desktop/nacl_sdk/pepper_canary/toolchain/mac_pnacl/bin/../x86_64-nacl/lib32/libcrt_common.a(lib_a-fputwc.o)
 .debug_pubnames
                0x00000000000029ca       0x4a /Users/jkwang/Desktop/nacl_sdk/pepper_canary/toolchain/mac_pnacl/bin/../x86_64-nacl/lib32/libcrt_common.a(lib_a-svfiprintf.o)
 .debug_pubnames
                0x0000000000002a14       0x2c /Users/jkwang/Desktop/nacl_sdk/pepper_canary/toolchain/mac_pnacl/bin/../x86_64-nacl/lib32/libcrt_common.a(lib_a-wbuf.o)
 .debug_pubnames
                0x0000000000002a40       0x1c /Users/jkwang/Desktop/nacl_sdk/pepper_canary/toolchain/mac_pnacl/bin/../x86_64-nacl/lib32/libnacl.a(close.o)
 .debug_pubnames
                0x0000000000002a5c       0x1c /Users/jkwang/Desktop/nacl_sdk/pepper_canary/toolchain/mac_pnacl/bin/../x86_64-nacl/lib32/libnacl.a(fstat.o)
 .debug_pubnames
                0x0000000000002a78       0x1d /Users/jkwang/Desktop/nacl_sdk/pepper_canary/toolchain/mac_pnacl/bin/../x86_64-nacl/lib32/libnacl.a(isatty.o)
 .debug_pubnames
                0x0000000000002a95       0x1c /Users/jkwang/Desktop/nacl_sdk/pepper_canary/toolchain/mac_pnacl/bin/../x86_64-nacl/lib32/libnacl.a(lseek.o)
 .debug_pubnames
                0x0000000000002ab1       0x20 /Users/jkwang/Desktop/nacl_sdk/pepper_canary/toolchain/mac_pnacl/bin/../x86_64-nacl/lib32/libnacl.a(nanosleep.o)
 .debug_pubnames
                0x0000000000002ad1       0x32 /Users/jkwang/Desktop/nacl_sdk/pepper_canary/toolchain/mac_pnacl/bin/../x86_64-nacl/lib32/libnacl.a(nacl_irt_fdio.o)
 .debug_pubnames
                0x0000000000002b03       0x1b /Users/jkwang/Desktop/nacl_sdk/pepper_canary/toolchain/mac_pnacl/bin/../x86_64-nacl/lib32/libnacl.a(read.o)
 .debug_pubnames
                0x0000000000002b1e      0x12c /Users/jkwang/Desktop/nacl_sdk/pepper_canary/toolchain/mac_pnacl/bin/../lib/clang/3.7.0/lib/i686-nacl/libgcc_eh.a(unwind-dw2-fde-glibc.o)

.debug_info     0x0000000000000000    0x22245
 *(.debug_info .gnu.linkonce.wi.*)
 .debug_info    0x0000000000000000      0xbeb clang-newlib/Release/debugging_x86_32.o
 .debug_info    0x0000000000000beb      0x755 /Users/jkwang/Desktop/nacl_sdk/pepper_canary/lib/clang-newlib_x86_32/Release/liberror_handling.a(error_handling_x86_32.o)
 .debug_info    0x0000000000001340      0x194 /Users/jkwang/Desktop/nacl_sdk/pepper_canary/lib/clang-newlib_x86_32/Release/liberror_handling.a(string_stream_x86_32.o)
 .debug_info    0x00000000000014d4     0x13de /Users/jkwang/Desktop/nacl_sdk/pepper_canary/toolchain/mac_pnacl/bin/../x86_64-nacl/lib32/libpthread.a(nc_thread.o)
 .debug_info    0x00000000000028b2      0x84d /Users/jkwang/Desktop/nacl_sdk/pepper_canary/toolchain/mac_pnacl/bin/../x86_64-nacl/lib32/libpthread.a(nc_mutex.o)
 .debug_info    0x00000000000030ff      0x60e /Users/jkwang/Desktop/nacl_sdk/pepper_canary/toolchain/mac_pnacl/bin/../x86_64-nacl/lib32/libpthread.a(nc_condvar.o)
 .debug_info    0x000000000000370d      0xa19 /Users/jkwang/Desktop/nacl_sdk/pepper_canary/toolchain/mac_pnacl/bin/../x86_64-nacl/lib32/libpthread.a(valgrind_annotations.o)
 .debug_info    0x0000000000004126      0x111 /Users/jkwang/Desktop/nacl_sdk/pepper_canary/toolchain/mac_pnacl/bin/../x86_64-nacl/lib32/libpthread.a(nc_init_irt.o)
 .debug_info    0x0000000000004237      0xb91 /Users/jkwang/Desktop/nacl_sdk/pepper_canary/toolchain/mac_pnacl/bin/../x86_64-nacl/lib32/libnacl.a(nacl_irt.o)
 .debug_info    0x0000000000004dc8       0x4e /Users/jkwang/Desktop/nacl_sdk/pepper_canary/toolchain/mac_pnacl/bin/../x86_64-nacl/lib32/libnacl.a(_exit.o)
 .debug_info    0x0000000000004e16       0xe8 /Users/jkwang/Desktop/nacl_sdk/pepper_canary/toolchain/mac_pnacl/bin/../x86_64-nacl/lib32/libnacl.a(mmap.o)
 .debug_info    0x0000000000004efe       0x84 /Users/jkwang/Desktop/nacl_sdk/pepper_canary/toolchain/mac_pnacl/bin/../x86_64-nacl/lib32/libnacl.a(munmap.o)
 .debug_info    0x0000000000004f82       0x82 /Users/jkwang/Desktop/nacl_sdk/pepper_canary/toolchain/mac_pnacl/bin/../x86_64-nacl/lib32/libnacl.a(nacl_interface_query.o)
 .debug_info    0x0000000000005004       0xa7 /Users/jkwang/Desktop/nacl_sdk/pepper_canary/toolchain/mac_pnacl/bin/../x86_64-nacl/lib32/libnacl.a(write.o)
 .debug_info    0x00000000000050ab       0x65 /Users/jkwang/Desktop/nacl_sdk/pepper_canary/toolchain/mac_pnacl/bin/../x86_64-nacl/lib32/libnacl.a(environ.o)
 .debug_info    0x0000000000005110     0x3a1c /Users/jkwang/Desktop/nacl_sdk/pepper_canary/toolchain/mac_pnacl/bin/../x86_64-nacl/lib32/libnacl.a(malloc.o)
 .debug_info    0x0000000000008b2c      0x29c /Users/jkwang/Desktop/nacl_sdk/pepper_canary/toolchain/mac_pnacl/bin/../x86_64-nacl/lib32/libnacl.a(start.o)
 .debug_info    0x0000000000008dc8       0x3d /Users/jkwang/Desktop/nacl_sdk/pepper_canary/toolchain/mac_pnacl/bin/../x86_64-nacl/lib32/libnacl.a(nacl_read_tp.o)
 .debug_info    0x0000000000008e05       0x88 /Users/jkwang/Desktop/nacl_sdk/pepper_canary/toolchain/mac_pnacl/bin/../x86_64-nacl/lib32/libnacl.a(pthread_initialize_minimal.o)
 .debug_info    0x0000000000008e8d      0x4a2 /Users/jkwang/Desktop/nacl_sdk/pepper_canary/toolchain/mac_pnacl/bin/../x86_64-nacl/lib32/libnacl.a(tls.o)
 .debug_info    0x000000000000932f      0x268 /Users/jkwang/Desktop/nacl_sdk/pepper_canary/toolchain/mac_pnacl/bin/../x86_64-nacl/lib32/libnacl.a(nacl_irt_init.o)
 .debug_info    0x0000000000009597       0x3d /Users/jkwang/Desktop/nacl_sdk/pepper_canary/toolchain/mac_pnacl/bin/../x86_64-nacl/lib32/libnacl.a(nacl_tls_get.o)
 .debug_info    0x00000000000095d4       0x53 /Users/jkwang/Desktop/nacl_sdk/pepper_canary/toolchain/mac_pnacl/bin/../x86_64-nacl/lib32/libnacl.a(nacl_tls_init.o)
 .debug_info    0x0000000000009627       0x69 /Users/jkwang/Desktop/nacl_sdk/pepper_canary/toolchain/mac_pnacl/bin/../x86_64-nacl/lib32/libnacl.a(abort.o)
 .debug_info    0x0000000000009690       0x53 /Users/jkwang/Desktop/nacl_sdk/pepper_canary/toolchain/mac_pnacl/bin/../x86_64-nacl/lib32/libnacl.a(sched_yield.o)
 .debug_info    0x00000000000096e3       0x78 /Users/jkwang/Desktop/nacl_sdk/pepper_canary/toolchain/mac_pnacl/bin/../x86_64-nacl/lib32/libnacl.a(sysconf.o)
 .debug_info    0x000000000000975b       0x75 /Users/jkwang/Desktop/nacl_sdk/pepper_canary/toolchain/mac_pnacl/bin/../x86_64-nacl/lib32/libcrt_common.a(lib_a-atexit.o)
 .debug_info    0x00000000000097d0       0x48 /Users/jkwang/Desktop/nacl_sdk/pepper_canary/toolchain/mac_pnacl/bin/../x86_64-nacl/lib32/libcrt_common.a(lib_a-errno.o)
 .debug_info    0x0000000000009818       0x50 /Users/jkwang/Desktop/nacl_sdk/pepper_canary/toolchain/mac_pnacl/bin/../x86_64-nacl/lib32/libcrt_common.a(lib_a-exit.o)
 .debug_info    0x0000000000009868      0x9b6 /Users/jkwang/Desktop/nacl_sdk/pepper_canary/toolchain/mac_pnacl/bin/../x86_64-nacl/lib32/libcrt_common.a(lib_a-fflush.o)
 .debug_info    0x000000000000a21e      0xb6d /Users/jkwang/Desktop/nacl_sdk/pepper_canary/toolchain/mac_pnacl/bin/../x86_64-nacl/lib32/libcrt_common.a(lib_a-findfp.o)
 .debug_info    0x000000000000ad8b       0x65 /Users/jkwang/Desktop/nacl_sdk/pepper_canary/toolchain/mac_pnacl/bin/../x86_64-nacl/lib32/libcrt_common.a(lib_a-fini.o)
 .debug_info    0x000000000000adf0      0x8fe /Users/jkwang/Desktop/nacl_sdk/pepper_canary/toolchain/mac_pnacl/bin/../x86_64-nacl/lib32/libcrt_common.a(lib_a-fprintf.o)
 .debug_info    0x000000000000b6ee      0xa46 /Users/jkwang/Desktop/nacl_sdk/pepper_canary/toolchain/mac_pnacl/bin/../x86_64-nacl/lib32/libcrt_common.a(lib_a-fwalk.o)
 .debug_info    0x000000000000c134      0x998 /Users/jkwang/Desktop/nacl_sdk/pepper_canary/toolchain/mac_pnacl/bin/../x86_64-nacl/lib32/libcrt_common.a(lib_a-fwrite.o)
 .debug_info    0x000000000000cacc       0xb0 /Users/jkwang/Desktop/nacl_sdk/pepper_canary/toolchain/mac_pnacl/bin/../x86_64-nacl/lib32/libcrt_common.a(lib_a-getenv.o)
 .debug_info    0x000000000000cb7c      0x8ed /Users/jkwang/Desktop/nacl_sdk/pepper_canary/toolchain/mac_pnacl/bin/../x86_64-nacl/lib32/libcrt_common.a(lib_a-getenv_r.o)
 .debug_info    0x000000000000d469      0x892 /Users/jkwang/Desktop/nacl_sdk/pepper_canary/toolchain/mac_pnacl/bin/../x86_64-nacl/lib32/libcrt_common.a(lib_a-impure.o)
 .debug_info    0x000000000000dcfb       0x65 /Users/jkwang/Desktop/nacl_sdk/pepper_canary/toolchain/mac_pnacl/bin/../x86_64-nacl/lib32/libcrt_common.a(lib_a-init.o)
 .debug_info    0x000000000000dd60      0x1ea /Users/jkwang/Desktop/nacl_sdk/pepper_canary/toolchain/mac_pnacl/bin/../x86_64-nacl/lib32/libcrt_common.a(lib_a-memcpy.o)
 .debug_info    0x000000000000df4a      0x1ea /Users/jkwang/Desktop/nacl_sdk/pepper_canary/toolchain/mac_pnacl/bin/../x86_64-nacl/lib32/libcrt_common.a(lib_a-memset.o)
 .debug_info    0x000000000000e134       0xb2 /Users/jkwang/Desktop/nacl_sdk/pepper_canary/toolchain/mac_pnacl/bin/../x86_64-nacl/lib32/libcrt_common.a(lib_a-sleep.o)
 .debug_info    0x000000000000e1e6      0xa1a /Users/jkwang/Desktop/nacl_sdk/pepper_canary/toolchain/mac_pnacl/bin/../x86_64-nacl/lib32/libcrt_common.a(lib_a-stdio.o)
 .debug_info    0x000000000000ec00       0xb2 /Users/jkwang/Desktop/nacl_sdk/pepper_canary/toolchain/mac_pnacl/bin/../x86_64-nacl/lib32/libcrt_common.a(lib_a-strcat.o)
 .debug_info    0x000000000000ecb2       0xb5 /Users/jkwang/Desktop/nacl_sdk/pepper_canary/toolchain/mac_pnacl/bin/../x86_64-nacl/lib32/libcrt_common.a(lib_a-strcmp.o)
 .debug_info    0x000000000000ed67       0xc3 /Users/jkwang/Desktop/nacl_sdk/pepper_canary/toolchain/mac_pnacl/bin/../x86_64-nacl/lib32/libcrt_common.a(lib_a-strcpy.o)
 .debug_info    0x000000000000ee2a      0x225 /Users/jkwang/Desktop/nacl_sdk/pepper_canary/toolchain/mac_pnacl/bin/../x86_64-nacl/lib32/libcrt_common.a(lib_a-strlen.o)
 .debug_info    0x000000000000f04f       0xd6 /Users/jkwang/Desktop/nacl_sdk/pepper_canary/toolchain/mac_pnacl/bin/../x86_64-nacl/lib32/libcrt_common.a(lib_a-strncmp.o)
 .debug_info    0x000000000000f125     0x102c /Users/jkwang/Desktop/nacl_sdk/pepper_canary/toolchain/mac_pnacl/bin/../x86_64-nacl/lib32/libcrt_common.a(lib_a-vfprintf.o)
 .debug_info    0x0000000000010151      0x9a3 /Users/jkwang/Desktop/nacl_sdk/pepper_canary/toolchain/mac_pnacl/bin/../x86_64-nacl/lib32/libcrt_common.a(lib_a-vsnprintf.o)
 .debug_info    0x0000000000010af4      0x966 /Users/jkwang/Desktop/nacl_sdk/pepper_canary/toolchain/mac_pnacl/bin/../x86_64-nacl/lib32/libcrt_common.a(lib_a-vsprintf.o)
 .debug_info    0x000000000001145a      0x937 /Users/jkwang/Desktop/nacl_sdk/pepper_canary/toolchain/mac_pnacl/bin/../x86_64-nacl/lib32/libcrt_common.a(lib_a-wcrtomb.o)
 .debug_info    0x0000000000011d91      0x91c /Users/jkwang/Desktop/nacl_sdk/pepper_canary/toolchain/mac_pnacl/bin/../x86_64-nacl/lib32/libcrt_common.a(lib_a-wcsrtombs.o)
 .debug_info    0x00000000000126ad      0xb77 /Users/jkwang/Desktop/nacl_sdk/pepper_canary/toolchain/mac_pnacl/bin/../x86_64-nacl/lib32/libcrt_common.a(lib_a-wctomb_r.o)
 .debug_info    0x0000000000013224      0x882 /Users/jkwang/Desktop/nacl_sdk/pepper_canary/toolchain/mac_pnacl/bin/../x86_64-nacl/lib32/libcrt_common.a(lib_a-wsetup.o)
 .debug_info    0x0000000000013aa6      0x16d /Users/jkwang/Desktop/nacl_sdk/pepper_canary/toolchain/mac_pnacl/bin/../x86_64-nacl/lib32/libcrt_common.a(lib_a-__atexit.o)
 .debug_info    0x0000000000013c13      0x203 /Users/jkwang/Desktop/nacl_sdk/pepper_canary/toolchain/mac_pnacl/bin/../x86_64-nacl/lib32/libcrt_common.a(lib_a-__call_atexit.o)
 .debug_info    0x0000000000013e16      0xc0f /Users/jkwang/Desktop/nacl_sdk/pepper_canary/toolchain/mac_pnacl/bin/../x86_64-nacl/lib32/libcrt_common.a(lib_a-dtoa.o)
 .debug_info    0x0000000000014a25      0x878 /Users/jkwang/Desktop/nacl_sdk/pepper_canary/toolchain/mac_pnacl/bin/../x86_64-nacl/lib32/libcrt_common.a(lib_a-envlock.o)
 .debug_info    0x000000000001529d      0x8b6 /Users/jkwang/Desktop/nacl_sdk/pepper_canary/toolchain/mac_pnacl/bin/../x86_64-nacl/lib32/libcrt_common.a(lib_a-fclose.o)
 .debug_info    0x0000000000015b53      0x989 /Users/jkwang/Desktop/nacl_sdk/pepper_canary/toolchain/mac_pnacl/bin/../x86_64-nacl/lib32/libcrt_common.a(lib_a-fvwrite.o)
 .debug_info    0x00000000000164dc      0xe0f /Users/jkwang/Desktop/nacl_sdk/pepper_canary/toolchain/mac_pnacl/bin/../x86_64-nacl/lib32/libcrt_common.a(lib_a-locale.o)
 .debug_info    0x00000000000172eb      0xa62 /Users/jkwang/Desktop/nacl_sdk/pepper_canary/toolchain/mac_pnacl/bin/../x86_64-nacl/lib32/libcrt_common.a(lib_a-makebuf.o)
 .debug_info    0x0000000000017d4d      0xda2 /Users/jkwang/Desktop/nacl_sdk/pepper_canary/toolchain/mac_pnacl/bin/../x86_64-nacl/lib32/libcrt_common.a(lib_a-mbtowc_r.o)
 .debug_info    0x0000000000018aef      0x25f /Users/jkwang/Desktop/nacl_sdk/pepper_canary/toolchain/mac_pnacl/bin/../x86_64-nacl/lib32/libcrt_common.a(lib_a-memchr.o)
 .debug_info    0x0000000000018d4e      0x1ec /Users/jkwang/Desktop/nacl_sdk/pepper_canary/toolchain/mac_pnacl/bin/../x86_64-nacl/lib32/libcrt_common.a(lib_a-memmove.o)
 .debug_info    0x0000000000018f3a     0x16ca /Users/jkwang/Desktop/nacl_sdk/pepper_canary/toolchain/mac_pnacl/bin/../x86_64-nacl/lib32/libcrt_common.a(lib_a-mprec.o)
 .debug_info    0x000000000001a604       0xe7 /Users/jkwang/Desktop/nacl_sdk/pepper_canary/toolchain/mac_pnacl/bin/../x86_64-nacl/lib32/libcrt_common.a(lib_a-s_fpclassify.o)
 .debug_info    0x000000000001a6eb      0x15b /Users/jkwang/Desktop/nacl_sdk/pepper_canary/toolchain/mac_pnacl/bin/../x86_64-nacl/lib32/libcrt_common.a(lib_a-s_frexp.o)
 .debug_info    0x000000000001a846      0x100 /Users/jkwang/Desktop/nacl_sdk/pepper_canary/toolchain/mac_pnacl/bin/../x86_64-nacl/lib32/libcrt_common.a(lib_a-strcasecmp.o)
 .debug_info    0x000000000001a946      0x29c /Users/jkwang/Desktop/nacl_sdk/pepper_canary/toolchain/mac_pnacl/bin/../x86_64-nacl/lib32/libcrt_common.a(lib_a-strchr.o)
 .debug_info    0x000000000001abe2       0xbf /Users/jkwang/Desktop/nacl_sdk/pepper_canary/toolchain/mac_pnacl/bin/../x86_64-nacl/lib32/libcrt_common.a(lib_a-strlcpy.o)
 .debug_info    0x000000000001aca1      0x11e /Users/jkwang/Desktop/nacl_sdk/pepper_canary/toolchain/mac_pnacl/bin/../x86_64-nacl/lib32/libcrt_common.a(lib_a-strncasecmp.o)
 .debug_info    0x000000000001adbf       0xee /Users/jkwang/Desktop/nacl_sdk/pepper_canary/toolchain/mac_pnacl/bin/../x86_64-nacl/lib32/libcrt_common.a(lib_a-strncpy.o)
 .debug_info    0x000000000001aead      0x934 /Users/jkwang/Desktop/nacl_sdk/pepper_canary/toolchain/mac_pnacl/bin/../x86_64-nacl/lib32/libcrt_common.a(lib_a-strtol.o)
 .debug_info    0x000000000001b7e1      0xf20 /Users/jkwang/Desktop/nacl_sdk/pepper_canary/toolchain/mac_pnacl/bin/../x86_64-nacl/lib32/libcrt_common.a(lib_a-svfprintf.o)
 .debug_info    0x000000000001c701     0x1262 /Users/jkwang/Desktop/nacl_sdk/pepper_canary/toolchain/mac_pnacl/bin/../x86_64-nacl/lib32/libcrt_common.a(lib_a-vfiprintf.o)
 .debug_info    0x000000000001d963      0x9c4 /Users/jkwang/Desktop/nacl_sdk/pepper_canary/toolchain/mac_pnacl/bin/../x86_64-nacl/lib32/libcrt_common.a(lib_a-wcsnrtombs.o)
 .debug_info    0x000000000001e327       0xb2 /Users/jkwang/Desktop/nacl_sdk/pepper_canary/toolchain/mac_pnacl/bin/../x86_64-nacl/lib32/libcrt_common.a(lib_a-ctype_.o)
 .debug_info    0x000000000001e3d9      0x97d /Users/jkwang/Desktop/nacl_sdk/pepper_canary/toolchain/mac_pnacl/bin/../x86_64-nacl/lib32/libcrt_common.a(lib_a-fputwc.o)
 .debug_info    0x000000000001ed56      0xca1 /Users/jkwang/Desktop/nacl_sdk/pepper_canary/toolchain/mac_pnacl/bin/../x86_64-nacl/lib32/libcrt_common.a(lib_a-svfiprintf.o)
 .debug_info    0x000000000001f9f7      0x8d4 /Users/jkwang/Desktop/nacl_sdk/pepper_canary/toolchain/mac_pnacl/bin/../x86_64-nacl/lib32/libcrt_common.a(lib_a-wbuf.o)
 .debug_info    0x00000000000202cb       0x62 /Users/jkwang/Desktop/nacl_sdk/pepper_canary/toolchain/mac_pnacl/bin/../x86_64-nacl/lib32/libnacl.a(close.o)
 .debug_info    0x000000000002032d      0x25c /Users/jkwang/Desktop/nacl_sdk/pepper_canary/toolchain/mac_pnacl/bin/../x86_64-nacl/lib32/libnacl.a(fstat.o)
 .debug_info    0x0000000000020589       0x71 /Users/jkwang/Desktop/nacl_sdk/pepper_canary/toolchain/mac_pnacl/bin/../x86_64-nacl/lib32/libnacl.a(isatty.o)
 .debug_info    0x00000000000205fa       0xb7 /Users/jkwang/Desktop/nacl_sdk/pepper_canary/toolchain/mac_pnacl/bin/../x86_64-nacl/lib32/libnacl.a(lseek.o)
 .debug_info    0x00000000000206b1       0xd0 /Users/jkwang/Desktop/nacl_sdk/pepper_canary/toolchain/mac_pnacl/bin/../x86_64-nacl/lib32/libnacl.a(nanosleep.o)
 .debug_info    0x0000000000020781       0x38 /Users/jkwang/Desktop/nacl_sdk/pepper_canary/toolchain/mac_pnacl/bin/../x86_64-nacl/lib32/libnacl.a(nacl_irt_fdio.o)
 .debug_info    0x00000000000207b9       0xa2 /Users/jkwang/Desktop/nacl_sdk/pepper_canary/toolchain/mac_pnacl/bin/../x86_64-nacl/lib32/libnacl.a(read.o)
 .debug_info    0x000000000002085b     0x19ea /Users/jkwang/Desktop/nacl_sdk/pepper_canary/toolchain/mac_pnacl/bin/../lib/clang/3.7.0/lib/i686-nacl/libgcc_eh.a(unwind-dw2-fde-glibc.o)

.debug_abbrev   0x0000000000000000     0x627c
 *(.debug_abbrev)
 .debug_abbrev  0x0000000000000000      0x221 clang-newlib/Release/debugging_x86_32.o
 .debug_abbrev  0x0000000000000221      0x235 /Users/jkwang/Desktop/nacl_sdk/pepper_canary/lib/clang-newlib_x86_32/Release/liberror_handling.a(error_handling_x86_32.o)
 .debug_abbrev  0x0000000000000456       0xc8 /Users/jkwang/Desktop/nacl_sdk/pepper_canary/lib/clang-newlib_x86_32/Release/liberror_handling.a(string_stream_x86_32.o)
 .debug_abbrev  0x000000000000051e      0x3aa /Users/jkwang/Desktop/nacl_sdk/pepper_canary/toolchain/mac_pnacl/bin/../x86_64-nacl/lib32/libpthread.a(nc_thread.o)
 .debug_abbrev  0x00000000000008c8      0x207 /Users/jkwang/Desktop/nacl_sdk/pepper_canary/toolchain/mac_pnacl/bin/../x86_64-nacl/lib32/libpthread.a(nc_mutex.o)
 .debug_abbrev  0x0000000000000acf      0x166 /Users/jkwang/Desktop/nacl_sdk/pepper_canary/toolchain/mac_pnacl/bin/../x86_64-nacl/lib32/libpthread.a(nc_condvar.o)
 .debug_abbrev  0x0000000000000c35       0xda /Users/jkwang/Desktop/nacl_sdk/pepper_canary/toolchain/mac_pnacl/bin/../x86_64-nacl/lib32/libpthread.a(valgrind_annotations.o)
 .debug_abbrev  0x0000000000000d0f       0xb8 /Users/jkwang/Desktop/nacl_sdk/pepper_canary/toolchain/mac_pnacl/bin/../x86_64-nacl/lib32/libpthread.a(nc_init_irt.o)
 .debug_abbrev  0x0000000000000dc7      0x1e7 /Users/jkwang/Desktop/nacl_sdk/pepper_canary/toolchain/mac_pnacl/bin/../x86_64-nacl/lib32/libnacl.a(nacl_irt.o)
 .debug_abbrev  0x0000000000000fae       0x4c /Users/jkwang/Desktop/nacl_sdk/pepper_canary/toolchain/mac_pnacl/bin/../x86_64-nacl/lib32/libnacl.a(_exit.o)
 .debug_abbrev  0x0000000000000ffa       0x6f /Users/jkwang/Desktop/nacl_sdk/pepper_canary/toolchain/mac_pnacl/bin/../x86_64-nacl/lib32/libnacl.a(mmap.o)
 .debug_abbrev  0x0000000000001069       0x6f /Users/jkwang/Desktop/nacl_sdk/pepper_canary/toolchain/mac_pnacl/bin/../x86_64-nacl/lib32/libnacl.a(munmap.o)
 .debug_abbrev  0x00000000000010d8       0x6c /Users/jkwang/Desktop/nacl_sdk/pepper_canary/toolchain/mac_pnacl/bin/../x86_64-nacl/lib32/libnacl.a(nacl_interface_query.o)
 .debug_abbrev  0x0000000000001144       0x76 /Users/jkwang/Desktop/nacl_sdk/pepper_canary/toolchain/mac_pnacl/bin/../x86_64-nacl/lib32/libnacl.a(write.o)
 .debug_abbrev  0x00000000000011ba       0x60 /Users/jkwang/Desktop/nacl_sdk/pepper_canary/toolchain/mac_pnacl/bin/../x86_64-nacl/lib32/libnacl.a(environ.o)
 .debug_abbrev  0x000000000000121a      0x34b /Users/jkwang/Desktop/nacl_sdk/pepper_canary/toolchain/mac_pnacl/bin/../x86_64-nacl/lib32/libnacl.a(malloc.o)
 .debug_abbrev  0x0000000000001565      0x136 /Users/jkwang/Desktop/nacl_sdk/pepper_canary/toolchain/mac_pnacl/bin/../x86_64-nacl/lib32/libnacl.a(start.o)
 .debug_abbrev  0x000000000000169b       0x39 /Users/jkwang/Desktop/nacl_sdk/pepper_canary/toolchain/mac_pnacl/bin/../x86_64-nacl/lib32/libnacl.a(nacl_read_tp.o)
 .debug_abbrev  0x00000000000016d4       0x6d /Users/jkwang/Desktop/nacl_sdk/pepper_canary/toolchain/mac_pnacl/bin/../x86_64-nacl/lib32/libnacl.a(pthread_initialize_minimal.o)
 .debug_abbrev  0x0000000000001741      0x1d8 /Users/jkwang/Desktop/nacl_sdk/pepper_canary/toolchain/mac_pnacl/bin/../x86_64-nacl/lib32/libnacl.a(tls.o)
 .debug_abbrev  0x0000000000001919      0x11f /Users/jkwang/Desktop/nacl_sdk/pepper_canary/toolchain/mac_pnacl/bin/../x86_64-nacl/lib32/libnacl.a(nacl_irt_init.o)
 .debug_abbrev  0x0000000000001a38       0x39 /Users/jkwang/Desktop/nacl_sdk/pepper_canary/toolchain/mac_pnacl/bin/../x86_64-nacl/lib32/libnacl.a(nacl_tls_get.o)
 .debug_abbrev  0x0000000000001a71       0x53 /Users/jkwang/Desktop/nacl_sdk/pepper_canary/toolchain/mac_pnacl/bin/../x86_64-nacl/lib32/libnacl.a(nacl_tls_init.o)
 .debug_abbrev  0x0000000000001ac4       0x6e /Users/jkwang/Desktop/nacl_sdk/pepper_canary/toolchain/mac_pnacl/bin/../x86_64-nacl/lib32/libnacl.a(abort.o)
 .debug_abbrev  0x0000000000001b32       0x4e /Users/jkwang/Desktop/nacl_sdk/pepper_canary/toolchain/mac_pnacl/bin/../x86_64-nacl/lib32/libnacl.a(sched_yield.o)
 .debug_abbrev  0x0000000000001b80       0x5d /Users/jkwang/Desktop/nacl_sdk/pepper_canary/toolchain/mac_pnacl/bin/../x86_64-nacl/lib32/libnacl.a(sysconf.o)
 .debug_abbrev  0x0000000000001bdd       0x74 /Users/jkwang/Desktop/nacl_sdk/pepper_canary/toolchain/mac_pnacl/bin/../x86_64-nacl/lib32/libcrt_common.a(lib_a-atexit.o)
 .debug_abbrev  0x0000000000001c51       0x43 /Users/jkwang/Desktop/nacl_sdk/pepper_canary/toolchain/mac_pnacl/bin/../x86_64-nacl/lib32/libcrt_common.a(lib_a-errno.o)
 .debug_abbrev  0x0000000000001c94       0x4e /Users/jkwang/Desktop/nacl_sdk/pepper_canary/toolchain/mac_pnacl/bin/../x86_64-nacl/lib32/libcrt_common.a(lib_a-exit.o)
 .debug_abbrev  0x0000000000001ce2      0x207 /Users/jkwang/Desktop/nacl_sdk/pepper_canary/toolchain/mac_pnacl/bin/../x86_64-nacl/lib32/libcrt_common.a(lib_a-fflush.o)
 .debug_abbrev  0x0000000000001ee9      0x2a9 /Users/jkwang/Desktop/nacl_sdk/pepper_canary/toolchain/mac_pnacl/bin/../x86_64-nacl/lib32/libcrt_common.a(lib_a-findfp.o)
 .debug_abbrev  0x0000000000002192       0x63 /Users/jkwang/Desktop/nacl_sdk/pepper_canary/toolchain/mac_pnacl/bin/../x86_64-nacl/lib32/libcrt_common.a(lib_a-fini.o)
 .debug_abbrev  0x00000000000021f5      0x175 /Users/jkwang/Desktop/nacl_sdk/pepper_canary/toolchain/mac_pnacl/bin/../x86_64-nacl/lib32/libcrt_common.a(lib_a-fprintf.o)
 .debug_abbrev  0x000000000000236a      0x1cd /Users/jkwang/Desktop/nacl_sdk/pepper_canary/toolchain/mac_pnacl/bin/../x86_64-nacl/lib32/libcrt_common.a(lib_a-fwalk.o)
 .debug_abbrev  0x0000000000002537      0x17e /Users/jkwang/Desktop/nacl_sdk/pepper_canary/toolchain/mac_pnacl/bin/../x86_64-nacl/lib32/libcrt_common.a(lib_a-fwrite.o)
 .debug_abbrev  0x00000000000026b5       0x68 /Users/jkwang/Desktop/nacl_sdk/pepper_canary/toolchain/mac_pnacl/bin/../x86_64-nacl/lib32/libcrt_common.a(lib_a-getenv.o)
 .debug_abbrev  0x000000000000271d      0x185 /Users/jkwang/Desktop/nacl_sdk/pepper_canary/toolchain/mac_pnacl/bin/../x86_64-nacl/lib32/libcrt_common.a(lib_a-getenv_r.o)
 .debug_abbrev  0x00000000000028a2      0x15a /Users/jkwang/Desktop/nacl_sdk/pepper_canary/toolchain/mac_pnacl/bin/../x86_64-nacl/lib32/libcrt_common.a(lib_a-impure.o)
 .debug_abbrev  0x00000000000029fc       0x63 /Users/jkwang/Desktop/nacl_sdk/pepper_canary/toolchain/mac_pnacl/bin/../x86_64-nacl/lib32/libcrt_common.a(lib_a-init.o)
 .debug_abbrev  0x0000000000002a5f       0x28 /Users/jkwang/Desktop/nacl_sdk/pepper_canary/toolchain/mac_pnacl/bin/../x86_64-nacl/lib32/libcrt_common.a(lib_a-memcpy.o)
 .debug_abbrev  0x0000000000002a87       0x28 /Users/jkwang/Desktop/nacl_sdk/pepper_canary/toolchain/mac_pnacl/bin/../x86_64-nacl/lib32/libcrt_common.a(lib_a-memset.o)
 .debug_abbrev  0x0000000000002aaf       0x83 /Users/jkwang/Desktop/nacl_sdk/pepper_canary/toolchain/mac_pnacl/bin/../x86_64-nacl/lib32/libcrt_common.a(lib_a-sleep.o)
 .debug_abbrev  0x0000000000002b32      0x178 /Users/jkwang/Desktop/nacl_sdk/pepper_canary/toolchain/mac_pnacl/bin/../x86_64-nacl/lib32/libcrt_common.a(lib_a-stdio.o)
 .debug_abbrev  0x0000000000002caa       0x85 /Users/jkwang/Desktop/nacl_sdk/pepper_canary/toolchain/mac_pnacl/bin/../x86_64-nacl/lib32/libcrt_common.a(lib_a-strcat.o)
 .debug_abbrev  0x0000000000002d2f       0x68 /Users/jkwang/Desktop/nacl_sdk/pepper_canary/toolchain/mac_pnacl/bin/../x86_64-nacl/lib32/libcrt_common.a(lib_a-strcmp.o)
 .debug_abbrev  0x0000000000002d97       0x68 /Users/jkwang/Desktop/nacl_sdk/pepper_canary/toolchain/mac_pnacl/bin/../x86_64-nacl/lib32/libcrt_common.a(lib_a-strcpy.o)
 .debug_abbrev  0x0000000000002dff       0x28 /Users/jkwang/Desktop/nacl_sdk/pepper_canary/toolchain/mac_pnacl/bin/../x86_64-nacl/lib32/libcrt_common.a(lib_a-strlen.o)
 .debug_abbrev  0x0000000000002e27       0x75 /Users/jkwang/Desktop/nacl_sdk/pepper_canary/toolchain/mac_pnacl/bin/../x86_64-nacl/lib32/libcrt_common.a(lib_a-strncmp.o)
 .debug_abbrev  0x0000000000002e9c      0x246 /Users/jkwang/Desktop/nacl_sdk/pepper_canary/toolchain/mac_pnacl/bin/../x86_64-nacl/lib32/libcrt_common.a(lib_a-vfprintf.o)
 .debug_abbrev  0x00000000000030e2      0x1bb /Users/jkwang/Desktop/nacl_sdk/pepper_canary/toolchain/mac_pnacl/bin/../x86_64-nacl/lib32/libcrt_common.a(lib_a-vsnprintf.o)
 .debug_abbrev  0x000000000000329d      0x1cd /Users/jkwang/Desktop/nacl_sdk/pepper_canary/toolchain/mac_pnacl/bin/../x86_64-nacl/lib32/libcrt_common.a(lib_a-vsprintf.o)
 .debug_abbrev  0x000000000000346a      0x17f /Users/jkwang/Desktop/nacl_sdk/pepper_canary/toolchain/mac_pnacl/bin/../x86_64-nacl/lib32/libcrt_common.a(lib_a-wcrtomb.o)
 .debug_abbrev  0x00000000000035e9      0x154 /Users/jkwang/Desktop/nacl_sdk/pepper_canary/toolchain/mac_pnacl/bin/../x86_64-nacl/lib32/libcrt_common.a(lib_a-wcsrtombs.o)
 .debug_abbrev  0x000000000000373d      0x17c /Users/jkwang/Desktop/nacl_sdk/pepper_canary/toolchain/mac_pnacl/bin/../x86_64-nacl/lib32/libcrt_common.a(lib_a-wctomb_r.o)
 .debug_abbrev  0x00000000000038b9      0x165 /Users/jkwang/Desktop/nacl_sdk/pepper_canary/toolchain/mac_pnacl/bin/../x86_64-nacl/lib32/libcrt_common.a(lib_a-wsetup.o)
 .debug_abbrev  0x0000000000003a1e       0xe3 /Users/jkwang/Desktop/nacl_sdk/pepper_canary/toolchain/mac_pnacl/bin/../x86_64-nacl/lib32/libcrt_common.a(lib_a-__atexit.o)
 .debug_abbrev  0x0000000000003b01       0xfe /Users/jkwang/Desktop/nacl_sdk/pepper_canary/toolchain/mac_pnacl/bin/../x86_64-nacl/lib32/libcrt_common.a(lib_a-__call_atexit.o)
 .debug_abbrev  0x0000000000003bff      0x19d /Users/jkwang/Desktop/nacl_sdk/pepper_canary/toolchain/mac_pnacl/bin/../x86_64-nacl/lib32/libcrt_common.a(lib_a-dtoa.o)
 .debug_abbrev  0x0000000000003d9c      0x158 /Users/jkwang/Desktop/nacl_sdk/pepper_canary/toolchain/mac_pnacl/bin/../x86_64-nacl/lib32/libcrt_common.a(lib_a-envlock.o)
 .debug_abbrev  0x0000000000003ef4      0x165 /Users/jkwang/Desktop/nacl_sdk/pepper_canary/toolchain/mac_pnacl/bin/../x86_64-nacl/lib32/libcrt_common.a(lib_a-fclose.o)
 .debug_abbrev  0x0000000000004059      0x177 /Users/jkwang/Desktop/nacl_sdk/pepper_canary/toolchain/mac_pnacl/bin/../x86_64-nacl/lib32/libcrt_common.a(lib_a-fvwrite.o)
 .debug_abbrev  0x00000000000041d0      0x224 /Users/jkwang/Desktop/nacl_sdk/pepper_canary/toolchain/mac_pnacl/bin/../x86_64-nacl/lib32/libcrt_common.a(lib_a-locale.o)
 .debug_abbrev  0x00000000000043f4      0x169 /Users/jkwang/Desktop/nacl_sdk/pepper_canary/toolchain/mac_pnacl/bin/../x86_64-nacl/lib32/libcrt_common.a(lib_a-makebuf.o)
 .debug_abbrev  0x000000000000455d      0x20a /Users/jkwang/Desktop/nacl_sdk/pepper_canary/toolchain/mac_pnacl/bin/../x86_64-nacl/lib32/libcrt_common.a(lib_a-mbtowc_r.o)
 .debug_abbrev  0x0000000000004767       0x28 /Users/jkwang/Desktop/nacl_sdk/pepper_canary/toolchain/mac_pnacl/bin/../x86_64-nacl/lib32/libcrt_common.a(lib_a-memchr.o)
 .debug_abbrev  0x000000000000478f       0x28 /Users/jkwang/Desktop/nacl_sdk/pepper_canary/toolchain/mac_pnacl/bin/../x86_64-nacl/lib32/libcrt_common.a(lib_a-memmove.o)
 .debug_abbrev  0x00000000000047b7      0x2d5 /Users/jkwang/Desktop/nacl_sdk/pepper_canary/toolchain/mac_pnacl/bin/../x86_64-nacl/lib32/libcrt_common.a(lib_a-mprec.o)
 .debug_abbrev  0x0000000000004a8c       0xaf /Users/jkwang/Desktop/nacl_sdk/pepper_canary/toolchain/mac_pnacl/bin/../x86_64-nacl/lib32/libcrt_common.a(lib_a-s_fpclassify.o)
 .debug_abbrev  0x0000000000004b3b       0xca /Users/jkwang/Desktop/nacl_sdk/pepper_canary/toolchain/mac_pnacl/bin/../x86_64-nacl/lib32/libcrt_common.a(lib_a-s_frexp.o)
 .debug_abbrev  0x0000000000004c05       0x85 /Users/jkwang/Desktop/nacl_sdk/pepper_canary/toolchain/mac_pnacl/bin/../x86_64-nacl/lib32/libcrt_common.a(lib_a-strcasecmp.o)
 .debug_abbrev  0x0000000000004c8a       0x28 /Users/jkwang/Desktop/nacl_sdk/pepper_canary/toolchain/mac_pnacl/bin/../x86_64-nacl/lib32/libcrt_common.a(lib_a-strchr.o)
 .debug_abbrev  0x0000000000004cb2       0x75 /Users/jkwang/Desktop/nacl_sdk/pepper_canary/toolchain/mac_pnacl/bin/../x86_64-nacl/lib32/libcrt_common.a(lib_a-strlcpy.o)
 .debug_abbrev  0x0000000000004d27       0xa1 /Users/jkwang/Desktop/nacl_sdk/pepper_canary/toolchain/mac_pnacl/bin/../x86_64-nacl/lib32/libcrt_common.a(lib_a-strncasecmp.o)
 .debug_abbrev  0x0000000000004dc8       0x7c /Users/jkwang/Desktop/nacl_sdk/pepper_canary/toolchain/mac_pnacl/bin/../x86_64-nacl/lib32/libcrt_common.a(lib_a-strncpy.o)
 .debug_abbrev  0x0000000000004e44      0x17d /Users/jkwang/Desktop/nacl_sdk/pepper_canary/toolchain/mac_pnacl/bin/../x86_64-nacl/lib32/libcrt_common.a(lib_a-strtol.o)
 .debug_abbrev  0x0000000000004fc1      0x225 /Users/jkwang/Desktop/nacl_sdk/pepper_canary/toolchain/mac_pnacl/bin/../x86_64-nacl/lib32/libcrt_common.a(lib_a-svfprintf.o)
 .debug_abbrev  0x00000000000051e6      0x23b /Users/jkwang/Desktop/nacl_sdk/pepper_canary/toolchain/mac_pnacl/bin/../x86_64-nacl/lib32/libcrt_common.a(lib_a-vfiprintf.o)
 .debug_abbrev  0x0000000000005421      0x186 /Users/jkwang/Desktop/nacl_sdk/pepper_canary/toolchain/mac_pnacl/bin/../x86_64-nacl/lib32/libcrt_common.a(lib_a-wcsnrtombs.o)
 .debug_abbrev  0x00000000000055a7       0x92 /Users/jkwang/Desktop/nacl_sdk/pepper_canary/toolchain/mac_pnacl/bin/../x86_64-nacl/lib32/libcrt_common.a(lib_a-ctype_.o)
 .debug_abbrev  0x0000000000005639      0x1c2 /Users/jkwang/Desktop/nacl_sdk/pepper_canary/toolchain/mac_pnacl/bin/../x86_64-nacl/lib32/libcrt_common.a(lib_a-fputwc.o)
 .debug_abbrev  0x00000000000057fb      0x1bf /Users/jkwang/Desktop/nacl_sdk/pepper_canary/toolchain/mac_pnacl/bin/../x86_64-nacl/lib32/libcrt_common.a(lib_a-svfiprintf.o)
 .debug_abbrev  0x00000000000059ba      0x165 /Users/jkwang/Desktop/nacl_sdk/pepper_canary/toolchain/mac_pnacl/bin/../x86_64-nacl/lib32/libcrt_common.a(lib_a-wbuf.o)
 .debug_abbrev  0x0000000000005b1f       0x5d /Users/jkwang/Desktop/nacl_sdk/pepper_canary/toolchain/mac_pnacl/bin/../x86_64-nacl/lib32/libnacl.a(close.o)
 .debug_abbrev  0x0000000000005b7c       0x8d /Users/jkwang/Desktop/nacl_sdk/pepper_canary/toolchain/mac_pnacl/bin/../x86_64-nacl/lib32/libnacl.a(fstat.o)
 .debug_abbrev  0x0000000000005c09       0x5d /Users/jkwang/Desktop/nacl_sdk/pepper_canary/toolchain/mac_pnacl/bin/../x86_64-nacl/lib32/libnacl.a(isatty.o)
 .debug_abbrev  0x0000000000005c66       0x6a /Users/jkwang/Desktop/nacl_sdk/pepper_canary/toolchain/mac_pnacl/bin/../x86_64-nacl/lib32/libnacl.a(lseek.o)
 .debug_abbrev  0x0000000000005cd0       0x94 /Users/jkwang/Desktop/nacl_sdk/pepper_canary/toolchain/mac_pnacl/bin/../x86_64-nacl/lib32/libnacl.a(nanosleep.o)
 .debug_abbrev  0x0000000000005d64       0x32 /Users/jkwang/Desktop/nacl_sdk/pepper_canary/toolchain/mac_pnacl/bin/../x86_64-nacl/lib32/libnacl.a(nacl_irt_fdio.o)
 .debug_abbrev  0x0000000000005d96       0x6f /Users/jkwang/Desktop/nacl_sdk/pepper_canary/toolchain/mac_pnacl/bin/../x86_64-nacl/lib32/libnacl.a(read.o)
 .debug_abbrev  0x0000000000005e05      0x477 /Users/jkwang/Desktop/nacl_sdk/pepper_canary/toolchain/mac_pnacl/bin/../lib/clang/3.7.0/lib/i686-nacl/libgcc_eh.a(unwind-dw2-fde-glibc.o)

.debug_line     0x0000000000000000    0x14b66
 *(.debug_line .debug_line.* .debug_line_end)
 .debug_line    0x0000000000000000      0x447 clang-newlib/Release/debugging_x86_32.o
 .debug_line    0x0000000000000447      0x4ae /Users/jkwang/Desktop/nacl_sdk/pepper_canary/lib/clang-newlib_x86_32/Release/liberror_handling.a(error_handling_x86_32.o)
 .debug_line    0x00000000000008f5      0x181 /Users/jkwang/Desktop/nacl_sdk/pepper_canary/lib/clang-newlib_x86_32/Release/liberror_handling.a(string_stream_x86_32.o)
 .debug_line    0x0000000000000a76      0xb63 /Users/jkwang/Desktop/nacl_sdk/pepper_canary/toolchain/mac_pnacl/bin/../x86_64-nacl/lib32/libpthread.a(nc_thread.o)
 .debug_line    0x00000000000015d9      0x444 /Users/jkwang/Desktop/nacl_sdk/pepper_canary/toolchain/mac_pnacl/bin/../x86_64-nacl/lib32/libpthread.a(nc_mutex.o)
 .debug_line    0x0000000000001a1d      0x37a /Users/jkwang/Desktop/nacl_sdk/pepper_canary/toolchain/mac_pnacl/bin/../x86_64-nacl/lib32/libpthread.a(nc_condvar.o)
 .debug_line    0x0000000000001d97      0x1a7 /Users/jkwang/Desktop/nacl_sdk/pepper_canary/toolchain/mac_pnacl/bin/../x86_64-nacl/lib32/libpthread.a(valgrind_annotations.o)
 .debug_line    0x0000000000001f3e      0x169 /Users/jkwang/Desktop/nacl_sdk/pepper_canary/toolchain/mac_pnacl/bin/../x86_64-nacl/lib32/libpthread.a(nc_init_irt.o)
 .debug_line    0x00000000000020a7      0x40b /Users/jkwang/Desktop/nacl_sdk/pepper_canary/toolchain/mac_pnacl/bin/../x86_64-nacl/lib32/libnacl.a(nacl_irt.o)
 .debug_line    0x00000000000024b2       0x55 /Users/jkwang/Desktop/nacl_sdk/pepper_canary/toolchain/mac_pnacl/bin/../x86_64-nacl/lib32/libnacl.a(_exit.o)
 .debug_line    0x0000000000002507      0x256 /Users/jkwang/Desktop/nacl_sdk/pepper_canary/toolchain/mac_pnacl/bin/../x86_64-nacl/lib32/libnacl.a(mmap.o)
 .debug_line    0x000000000000275d      0x100 /Users/jkwang/Desktop/nacl_sdk/pepper_canary/toolchain/mac_pnacl/bin/../x86_64-nacl/lib32/libnacl.a(munmap.o)
 .debug_line    0x000000000000285d      0x104 /Users/jkwang/Desktop/nacl_sdk/pepper_canary/toolchain/mac_pnacl/bin/../x86_64-nacl/lib32/libnacl.a(nacl_interface_query.o)
 .debug_line    0x0000000000002961      0x107 /Users/jkwang/Desktop/nacl_sdk/pepper_canary/toolchain/mac_pnacl/bin/../x86_64-nacl/lib32/libnacl.a(write.o)
 .debug_line    0x0000000000002a68       0x43 /Users/jkwang/Desktop/nacl_sdk/pepper_canary/toolchain/mac_pnacl/bin/../x86_64-nacl/lib32/libnacl.a(environ.o)
 .debug_line    0x0000000000002aab     0x26a9 /Users/jkwang/Desktop/nacl_sdk/pepper_canary/toolchain/mac_pnacl/bin/../x86_64-nacl/lib32/libnacl.a(malloc.o)
 .debug_line    0x0000000000005154      0x278 /Users/jkwang/Desktop/nacl_sdk/pepper_canary/toolchain/mac_pnacl/bin/../x86_64-nacl/lib32/libnacl.a(start.o)
 .debug_line    0x00000000000053cc       0x55 /Users/jkwang/Desktop/nacl_sdk/pepper_canary/toolchain/mac_pnacl/bin/../x86_64-nacl/lib32/libnacl.a(nacl_read_tp.o)
 .debug_line    0x0000000000005421      0x115 /Users/jkwang/Desktop/nacl_sdk/pepper_canary/toolchain/mac_pnacl/bin/../x86_64-nacl/lib32/libnacl.a(pthread_initialize_minimal.o)
 .debug_line    0x0000000000005536      0x41a /Users/jkwang/Desktop/nacl_sdk/pepper_canary/toolchain/mac_pnacl/bin/../x86_64-nacl/lib32/libnacl.a(tls.o)
 .debug_line    0x0000000000005950      0x33d /Users/jkwang/Desktop/nacl_sdk/pepper_canary/toolchain/mac_pnacl/bin/../x86_64-nacl/lib32/libnacl.a(nacl_irt_init.o)
 .debug_line    0x0000000000005c8d       0x59 /Users/jkwang/Desktop/nacl_sdk/pepper_canary/toolchain/mac_pnacl/bin/../x86_64-nacl/lib32/libnacl.a(nacl_tls_get.o)
 .debug_line    0x0000000000005ce6       0x5a /Users/jkwang/Desktop/nacl_sdk/pepper_canary/toolchain/mac_pnacl/bin/../x86_64-nacl/lib32/libnacl.a(nacl_tls_init.o)
 .debug_line    0x0000000000005d40       0x50 /Users/jkwang/Desktop/nacl_sdk/pepper_canary/toolchain/mac_pnacl/bin/../x86_64-nacl/lib32/libnacl.a(abort.o)
 .debug_line    0x0000000000005d90       0x69 /Users/jkwang/Desktop/nacl_sdk/pepper_canary/toolchain/mac_pnacl/bin/../x86_64-nacl/lib32/libnacl.a(sched_yield.o)
 .debug_line    0x0000000000005df9       0x6a /Users/jkwang/Desktop/nacl_sdk/pepper_canary/toolchain/mac_pnacl/bin/../x86_64-nacl/lib32/libnacl.a(sysconf.o)
 .debug_line    0x0000000000005e63       0x86 /Users/jkwang/Desktop/nacl_sdk/pepper_canary/toolchain/mac_pnacl/bin/../x86_64-nacl/lib32/libcrt_common.a(lib_a-atexit.o)
 .debug_line    0x0000000000005ee9       0x74 /Users/jkwang/Desktop/nacl_sdk/pepper_canary/toolchain/mac_pnacl/bin/../x86_64-nacl/lib32/libcrt_common.a(lib_a-errno.o)
 .debug_line    0x0000000000005f5d       0x83 /Users/jkwang/Desktop/nacl_sdk/pepper_canary/toolchain/mac_pnacl/bin/../x86_64-nacl/lib32/libcrt_common.a(lib_a-exit.o)
 .debug_line    0x0000000000005fe0      0x4e9 /Users/jkwang/Desktop/nacl_sdk/pepper_canary/toolchain/mac_pnacl/bin/../x86_64-nacl/lib32/libcrt_common.a(lib_a-fflush.o)
 .debug_line    0x00000000000064c9      0x680 /Users/jkwang/Desktop/nacl_sdk/pepper_canary/toolchain/mac_pnacl/bin/../x86_64-nacl/lib32/libcrt_common.a(lib_a-findfp.o)
 .debug_line    0x0000000000006b49      0x126 /Users/jkwang/Desktop/nacl_sdk/pepper_canary/toolchain/mac_pnacl/bin/../x86_64-nacl/lib32/libcrt_common.a(lib_a-fini.o)
 .debug_line    0x0000000000006c6f      0x380 /Users/jkwang/Desktop/nacl_sdk/pepper_canary/toolchain/mac_pnacl/bin/../x86_64-nacl/lib32/libcrt_common.a(lib_a-fprintf.o)
 .debug_line    0x0000000000006fef      0x3ff /Users/jkwang/Desktop/nacl_sdk/pepper_canary/toolchain/mac_pnacl/bin/../x86_64-nacl/lib32/libcrt_common.a(lib_a-fwalk.o)
 .debug_line    0x00000000000073ee      0x3e1 /Users/jkwang/Desktop/nacl_sdk/pepper_canary/toolchain/mac_pnacl/bin/../x86_64-nacl/lib32/libcrt_common.a(lib_a-fwrite.o)
 .debug_line    0x00000000000077cf       0x9a /Users/jkwang/Desktop/nacl_sdk/pepper_canary/toolchain/mac_pnacl/bin/../x86_64-nacl/lib32/libcrt_common.a(lib_a-getenv.o)
 .debug_line    0x0000000000007869      0x35b /Users/jkwang/Desktop/nacl_sdk/pepper_canary/toolchain/mac_pnacl/bin/../x86_64-nacl/lib32/libcrt_common.a(lib_a-getenv_r.o)
 .debug_line    0x0000000000007bc4      0x2e9 /Users/jkwang/Desktop/nacl_sdk/pepper_canary/toolchain/mac_pnacl/bin/../x86_64-nacl/lib32/libcrt_common.a(lib_a-impure.o)
 .debug_line    0x0000000000007ead      0x13e /Users/jkwang/Desktop/nacl_sdk/pepper_canary/toolchain/mac_pnacl/bin/../x86_64-nacl/lib32/libcrt_common.a(lib_a-init.o)
 .debug_line    0x0000000000007feb       0xa8 /Users/jkwang/Desktop/nacl_sdk/pepper_canary/toolchain/mac_pnacl/bin/../x86_64-nacl/lib32/libcrt_common.a(lib_a-memcpy.o)
 .debug_line    0x0000000000008093       0xc1 /Users/jkwang/Desktop/nacl_sdk/pepper_canary/toolchain/mac_pnacl/bin/../x86_64-nacl/lib32/libcrt_common.a(lib_a-memset.o)
 .debug_line    0x0000000000008154      0x1ae /Users/jkwang/Desktop/nacl_sdk/pepper_canary/toolchain/mac_pnacl/bin/../x86_64-nacl/lib32/libcrt_common.a(lib_a-sleep.o)
 .debug_line    0x0000000000008302      0x3f3 /Users/jkwang/Desktop/nacl_sdk/pepper_canary/toolchain/mac_pnacl/bin/../x86_64-nacl/lib32/libcrt_common.a(lib_a-stdio.o)
 .debug_line    0x00000000000086f5       0x92 /Users/jkwang/Desktop/nacl_sdk/pepper_canary/toolchain/mac_pnacl/bin/../x86_64-nacl/lib32/libcrt_common.a(lib_a-strcat.o)
 .debug_line    0x0000000000008787       0xc1 /Users/jkwang/Desktop/nacl_sdk/pepper_canary/toolchain/mac_pnacl/bin/../x86_64-nacl/lib32/libcrt_common.a(lib_a-strcmp.o)
 .debug_line    0x0000000000008848       0xd0 /Users/jkwang/Desktop/nacl_sdk/pepper_canary/toolchain/mac_pnacl/bin/../x86_64-nacl/lib32/libcrt_common.a(lib_a-strcpy.o)
 .debug_line    0x0000000000008918       0xb8 /Users/jkwang/Desktop/nacl_sdk/pepper_canary/toolchain/mac_pnacl/bin/../x86_64-nacl/lib32/libcrt_common.a(lib_a-strlen.o)
 .debug_line    0x00000000000089d0      0x1a2 /Users/jkwang/Desktop/nacl_sdk/pepper_canary/toolchain/mac_pnacl/bin/../x86_64-nacl/lib32/libcrt_common.a(lib_a-strncmp.o)
 .debug_line    0x0000000000008b72     0x137d /Users/jkwang/Desktop/nacl_sdk/pepper_canary/toolchain/mac_pnacl/bin/../x86_64-nacl/lib32/libcrt_common.a(lib_a-vfprintf.o)
 .debug_line    0x0000000000009eef      0x3ee /Users/jkwang/Desktop/nacl_sdk/pepper_canary/toolchain/mac_pnacl/bin/../x86_64-nacl/lib32/libcrt_common.a(lib_a-vsnprintf.o)
 .debug_line    0x000000000000a2dd      0x3b9 /Users/jkwang/Desktop/nacl_sdk/pepper_canary/toolchain/mac_pnacl/bin/../x86_64-nacl/lib32/libcrt_common.a(lib_a-vsprintf.o)
 .debug_line    0x000000000000a696      0x3c2 /Users/jkwang/Desktop/nacl_sdk/pepper_canary/toolchain/mac_pnacl/bin/../x86_64-nacl/lib32/libcrt_common.a(lib_a-wcrtomb.o)
 .debug_line    0x000000000000aa58      0x376 /Users/jkwang/Desktop/nacl_sdk/pepper_canary/toolchain/mac_pnacl/bin/../x86_64-nacl/lib32/libcrt_common.a(lib_a-wcsrtombs.o)
 .debug_line    0x000000000000adce      0x538 /Users/jkwang/Desktop/nacl_sdk/pepper_canary/toolchain/mac_pnacl/bin/../x86_64-nacl/lib32/libcrt_common.a(lib_a-wctomb_r.o)
 .debug_line    0x000000000000b306      0x3dd /Users/jkwang/Desktop/nacl_sdk/pepper_canary/toolchain/mac_pnacl/bin/../x86_64-nacl/lib32/libcrt_common.a(lib_a-wsetup.o)
 .debug_line    0x000000000000b6e3      0x16c /Users/jkwang/Desktop/nacl_sdk/pepper_canary/toolchain/mac_pnacl/bin/../x86_64-nacl/lib32/libcrt_common.a(lib_a-__atexit.o)
 .debug_line    0x000000000000b84f      0x181 /Users/jkwang/Desktop/nacl_sdk/pepper_canary/toolchain/mac_pnacl/bin/../x86_64-nacl/lib32/libcrt_common.a(lib_a-__call_atexit.o)
 .debug_line    0x000000000000b9d0      0xa27 /Users/jkwang/Desktop/nacl_sdk/pepper_canary/toolchain/mac_pnacl/bin/../x86_64-nacl/lib32/libcrt_common.a(lib_a-dtoa.o)
 .debug_line    0x000000000000c3f7      0x2ef /Users/jkwang/Desktop/nacl_sdk/pepper_canary/toolchain/mac_pnacl/bin/../x86_64-nacl/lib32/libcrt_common.a(lib_a-envlock.o)
 .debug_line    0x000000000000c6e6      0x3f9 /Users/jkwang/Desktop/nacl_sdk/pepper_canary/toolchain/mac_pnacl/bin/../x86_64-nacl/lib32/libcrt_common.a(lib_a-fclose.o)
 .debug_line    0x000000000000cadf      0x542 /Users/jkwang/Desktop/nacl_sdk/pepper_canary/toolchain/mac_pnacl/bin/../x86_64-nacl/lib32/libcrt_common.a(lib_a-fvwrite.o)
 .debug_line    0x000000000000d021      0x8b8 /Users/jkwang/Desktop/nacl_sdk/pepper_canary/toolchain/mac_pnacl/bin/../x86_64-nacl/lib32/libcrt_common.a(lib_a-locale.o)
 .debug_line    0x000000000000d8d9      0x491 /Users/jkwang/Desktop/nacl_sdk/pepper_canary/toolchain/mac_pnacl/bin/../x86_64-nacl/lib32/libcrt_common.a(lib_a-makebuf.o)
 .debug_line    0x000000000000dd6a      0x701 /Users/jkwang/Desktop/nacl_sdk/pepper_canary/toolchain/mac_pnacl/bin/../x86_64-nacl/lib32/libcrt_common.a(lib_a-mbtowc_r.o)
 .debug_line    0x000000000000e46b       0xc5 /Users/jkwang/Desktop/nacl_sdk/pepper_canary/toolchain/mac_pnacl/bin/../x86_64-nacl/lib32/libcrt_common.a(lib_a-memchr.o)
 .debug_line    0x000000000000e530       0xd2 /Users/jkwang/Desktop/nacl_sdk/pepper_canary/toolchain/mac_pnacl/bin/../x86_64-nacl/lib32/libcrt_common.a(lib_a-memmove.o)
 .debug_line    0x000000000000e602      0xf10 /Users/jkwang/Desktop/nacl_sdk/pepper_canary/toolchain/mac_pnacl/bin/../x86_64-nacl/lib32/libcrt_common.a(lib_a-mprec.o)
 .debug_line    0x000000000000f512      0x132 /Users/jkwang/Desktop/nacl_sdk/pepper_canary/toolchain/mac_pnacl/bin/../x86_64-nacl/lib32/libcrt_common.a(lib_a-s_fpclassify.o)
 .debug_line    0x000000000000f644      0x194 /Users/jkwang/Desktop/nacl_sdk/pepper_canary/toolchain/mac_pnacl/bin/../x86_64-nacl/lib32/libcrt_common.a(lib_a-s_frexp.o)
 .debug_line    0x000000000000f7d8       0x9c /Users/jkwang/Desktop/nacl_sdk/pepper_canary/toolchain/mac_pnacl/bin/../x86_64-nacl/lib32/libcrt_common.a(lib_a-strcasecmp.o)
 .debug_line    0x000000000000f874       0xec /Users/jkwang/Desktop/nacl_sdk/pepper_canary/toolchain/mac_pnacl/bin/../x86_64-nacl/lib32/libcrt_common.a(lib_a-strchr.o)
 .debug_line    0x000000000000f960      0x159 /Users/jkwang/Desktop/nacl_sdk/pepper_canary/toolchain/mac_pnacl/bin/../x86_64-nacl/lib32/libcrt_common.a(lib_a-strlcpy.o)
 .debug_line    0x000000000000fab9      0x14c /Users/jkwang/Desktop/nacl_sdk/pepper_canary/toolchain/mac_pnacl/bin/../x86_64-nacl/lib32/libcrt_common.a(lib_a-strncasecmp.o)
 .debug_line    0x000000000000fc05      0x18c /Users/jkwang/Desktop/nacl_sdk/pepper_canary/toolchain/mac_pnacl/bin/../x86_64-nacl/lib32/libcrt_common.a(lib_a-strncpy.o)
 .debug_line    0x000000000000fd91      0x383 /Users/jkwang/Desktop/nacl_sdk/pepper_canary/toolchain/mac_pnacl/bin/../x86_64-nacl/lib32/libcrt_common.a(lib_a-strtol.o)
 .debug_line    0x0000000000010114     0x1249 /Users/jkwang/Desktop/nacl_sdk/pepper_canary/toolchain/mac_pnacl/bin/../x86_64-nacl/lib32/libcrt_common.a(lib_a-svfprintf.o)
 .debug_line    0x000000000001135d     0x1136 /Users/jkwang/Desktop/nacl_sdk/pepper_canary/toolchain/mac_pnacl/bin/../x86_64-nacl/lib32/libcrt_common.a(lib_a-vfiprintf.o)
 .debug_line    0x0000000000012493      0x40a /Users/jkwang/Desktop/nacl_sdk/pepper_canary/toolchain/mac_pnacl/bin/../x86_64-nacl/lib32/libcrt_common.a(lib_a-wcsnrtombs.o)
 .debug_line    0x000000000001289d       0x77 /Users/jkwang/Desktop/nacl_sdk/pepper_canary/toolchain/mac_pnacl/bin/../x86_64-nacl/lib32/libcrt_common.a(lib_a-ctype_.o)
 .debug_line    0x0000000000012914      0x414 /Users/jkwang/Desktop/nacl_sdk/pepper_canary/toolchain/mac_pnacl/bin/../x86_64-nacl/lib32/libcrt_common.a(lib_a-fputwc.o)
 .debug_line    0x0000000000012d28      0xbd7 /Users/jkwang/Desktop/nacl_sdk/pepper_canary/toolchain/mac_pnacl/bin/../x86_64-nacl/lib32/libcrt_common.a(lib_a-svfiprintf.o)
 .debug_line    0x00000000000138ff      0x3ee /Users/jkwang/Desktop/nacl_sdk/pepper_canary/toolchain/mac_pnacl/bin/../x86_64-nacl/lib32/libcrt_common.a(lib_a-wbuf.o)
 .debug_line    0x0000000000013ced       0x63 /Users/jkwang/Desktop/nacl_sdk/pepper_canary/toolchain/mac_pnacl/bin/../x86_64-nacl/lib32/libnacl.a(close.o)
 .debug_line    0x0000000000013d50      0x2e5 /Users/jkwang/Desktop/nacl_sdk/pepper_canary/toolchain/mac_pnacl/bin/../x86_64-nacl/lib32/libnacl.a(fstat.o)
 .debug_line    0x0000000000014035       0x6e /Users/jkwang/Desktop/nacl_sdk/pepper_canary/toolchain/mac_pnacl/bin/../x86_64-nacl/lib32/libnacl.a(isatty.o)
 .debug_line    0x00000000000140a3      0x1bc /Users/jkwang/Desktop/nacl_sdk/pepper_canary/toolchain/mac_pnacl/bin/../x86_64-nacl/lib32/libnacl.a(lseek.o)
 .debug_line    0x000000000001425f      0x11b /Users/jkwang/Desktop/nacl_sdk/pepper_canary/toolchain/mac_pnacl/bin/../x86_64-nacl/lib32/libnacl.a(nanosleep.o)
 .debug_line    0x000000000001437a       0x6a /Users/jkwang/Desktop/nacl_sdk/pepper_canary/toolchain/mac_pnacl/bin/../x86_64-nacl/lib32/libnacl.a(nacl_irt_fdio.o)
 .debug_line    0x00000000000143e4      0x106 /Users/jkwang/Desktop/nacl_sdk/pepper_canary/toolchain/mac_pnacl/bin/../x86_64-nacl/lib32/libnacl.a(read.o)
 .debug_line    0x00000000000144ea      0x67c /Users/jkwang/Desktop/nacl_sdk/pepper_canary/toolchain/mac_pnacl/bin/../lib/clang/3.7.0/lib/i686-nacl/libgcc_eh.a(unwind-dw2-fde-glibc.o)

.debug_frame    0x0000000000000000     0x15e4
 *(.debug_frame)
 .debug_frame   0x0000000000000000      0x1c4 clang-newlib/Release/debugging_x86_32.o
 .debug_frame   0x00000000000001c4       0xf8 /Users/jkwang/Desktop/nacl_sdk/pepper_canary/lib/clang-newlib_x86_32/Release/liberror_handling.a(error_handling_x86_32.o)
 .debug_frame   0x00000000000002bc       0x80 /Users/jkwang/Desktop/nacl_sdk/pepper_canary/lib/clang-newlib_x86_32/Release/liberror_handling.a(string_stream_x86_32.o)
 .debug_frame   0x000000000000033c       0x2c /Users/jkwang/Desktop/nacl_sdk/pepper_canary/toolchain/mac_pnacl/bin/../x86_64-nacl/lib32/libcrt_common.a(lib_a-atexit.o)
 .debug_frame   0x0000000000000368       0x2c /Users/jkwang/Desktop/nacl_sdk/pepper_canary/toolchain/mac_pnacl/bin/../x86_64-nacl/lib32/libcrt_common.a(lib_a-errno.o)
 .debug_frame   0x0000000000000394       0x30 /Users/jkwang/Desktop/nacl_sdk/pepper_canary/toolchain/mac_pnacl/bin/../x86_64-nacl/lib32/libcrt_common.a(lib_a-exit.o)
 .debug_frame   0x00000000000003c4       0x74 /Users/jkwang/Desktop/nacl_sdk/pepper_canary/toolchain/mac_pnacl/bin/../x86_64-nacl/lib32/libcrt_common.a(lib_a-fflush.o)
 .debug_frame   0x0000000000000438      0x164 /Users/jkwang/Desktop/nacl_sdk/pepper_canary/toolchain/mac_pnacl/bin/../x86_64-nacl/lib32/libcrt_common.a(lib_a-findfp.o)
 .debug_frame   0x000000000000059c       0x30 /Users/jkwang/Desktop/nacl_sdk/pepper_canary/toolchain/mac_pnacl/bin/../x86_64-nacl/lib32/libcrt_common.a(lib_a-fini.o)
 .debug_frame   0x00000000000005cc       0x50 /Users/jkwang/Desktop/nacl_sdk/pepper_canary/toolchain/mac_pnacl/bin/../x86_64-nacl/lib32/libcrt_common.a(lib_a-fprintf.o)
 .debug_frame   0x000000000000061c       0x54 /Users/jkwang/Desktop/nacl_sdk/pepper_canary/toolchain/mac_pnacl/bin/../x86_64-nacl/lib32/libcrt_common.a(lib_a-fwalk.o)
 .debug_frame   0x0000000000000670       0x54 /Users/jkwang/Desktop/nacl_sdk/pepper_canary/toolchain/mac_pnacl/bin/../x86_64-nacl/lib32/libcrt_common.a(lib_a-fwrite.o)
 .debug_frame   0x00000000000006c4       0x48 /Users/jkwang/Desktop/nacl_sdk/pepper_canary/toolchain/mac_pnacl/bin/../x86_64-nacl/lib32/libcrt_common.a(lib_a-getenv.o)
 .debug_frame   0x000000000000070c       0x4c /Users/jkwang/Desktop/nacl_sdk/pepper_canary/toolchain/mac_pnacl/bin/../x86_64-nacl/lib32/libcrt_common.a(lib_a-getenv_r.o)
 .debug_frame   0x0000000000000758       0x44 /Users/jkwang/Desktop/nacl_sdk/pepper_canary/toolchain/mac_pnacl/bin/../x86_64-nacl/lib32/libcrt_common.a(lib_a-impure.o)
 .debug_frame   0x000000000000079c       0x34 /Users/jkwang/Desktop/nacl_sdk/pepper_canary/toolchain/mac_pnacl/bin/../x86_64-nacl/lib32/libcrt_common.a(lib_a-init.o)
 .debug_frame   0x00000000000007d0       0x2c /Users/jkwang/Desktop/nacl_sdk/pepper_canary/toolchain/mac_pnacl/bin/../x86_64-nacl/lib32/libcrt_common.a(lib_a-sleep.o)
 .debug_frame   0x00000000000007fc       0xa0 /Users/jkwang/Desktop/nacl_sdk/pepper_canary/toolchain/mac_pnacl/bin/../x86_64-nacl/lib32/libcrt_common.a(lib_a-stdio.o)
 .debug_frame   0x000000000000089c       0x30 /Users/jkwang/Desktop/nacl_sdk/pepper_canary/toolchain/mac_pnacl/bin/../x86_64-nacl/lib32/libcrt_common.a(lib_a-strcat.o)
 .debug_frame   0x00000000000008cc       0x34 /Users/jkwang/Desktop/nacl_sdk/pepper_canary/toolchain/mac_pnacl/bin/../x86_64-nacl/lib32/libcrt_common.a(lib_a-strcmp.o)
 .debug_frame   0x0000000000000900       0x34 /Users/jkwang/Desktop/nacl_sdk/pepper_canary/toolchain/mac_pnacl/bin/../x86_64-nacl/lib32/libcrt_common.a(lib_a-strcpy.o)
 .debug_frame   0x0000000000000934       0x34 /Users/jkwang/Desktop/nacl_sdk/pepper_canary/toolchain/mac_pnacl/bin/../x86_64-nacl/lib32/libcrt_common.a(lib_a-strncmp.o)
 .debug_frame   0x0000000000000968       0x74 /Users/jkwang/Desktop/nacl_sdk/pepper_canary/toolchain/mac_pnacl/bin/../x86_64-nacl/lib32/libcrt_common.a(lib_a-vfprintf.o)
 .debug_frame   0x00000000000009dc       0x54 /Users/jkwang/Desktop/nacl_sdk/pepper_canary/toolchain/mac_pnacl/bin/../x86_64-nacl/lib32/libcrt_common.a(lib_a-vsnprintf.o)
 .debug_frame   0x0000000000000a30       0x50 /Users/jkwang/Desktop/nacl_sdk/pepper_canary/toolchain/mac_pnacl/bin/../x86_64-nacl/lib32/libcrt_common.a(lib_a-vsprintf.o)
 .debug_frame   0x0000000000000a80       0x54 /Users/jkwang/Desktop/nacl_sdk/pepper_canary/toolchain/mac_pnacl/bin/../x86_64-nacl/lib32/libcrt_common.a(lib_a-wcrtomb.o)
 .debug_frame   0x0000000000000ad4       0x54 /Users/jkwang/Desktop/nacl_sdk/pepper_canary/toolchain/mac_pnacl/bin/../x86_64-nacl/lib32/libcrt_common.a(lib_a-wcsrtombs.o)
 .debug_frame   0x0000000000000b28       0xc4 /Users/jkwang/Desktop/nacl_sdk/pepper_canary/toolchain/mac_pnacl/bin/../x86_64-nacl/lib32/libcrt_common.a(lib_a-wctomb_r.o)
 .debug_frame   0x0000000000000bec       0x34 /Users/jkwang/Desktop/nacl_sdk/pepper_canary/toolchain/mac_pnacl/bin/../x86_64-nacl/lib32/libcrt_common.a(lib_a-wsetup.o)
 .debug_frame   0x0000000000000c20       0x34 /Users/jkwang/Desktop/nacl_sdk/pepper_canary/toolchain/mac_pnacl/bin/../x86_64-nacl/lib32/libcrt_common.a(lib_a-__atexit.o)
 .debug_frame   0x0000000000000c54       0x34 /Users/jkwang/Desktop/nacl_sdk/pepper_canary/toolchain/mac_pnacl/bin/../x86_64-nacl/lib32/libcrt_common.a(lib_a-__call_atexit.o)
 .debug_frame   0x0000000000000c88       0x54 /Users/jkwang/Desktop/nacl_sdk/pepper_canary/toolchain/mac_pnacl/bin/../x86_64-nacl/lib32/libcrt_common.a(lib_a-dtoa.o)
 .debug_frame   0x0000000000000cdc       0x44 /Users/jkwang/Desktop/nacl_sdk/pepper_canary/toolchain/mac_pnacl/bin/../x86_64-nacl/lib32/libcrt_common.a(lib_a-envlock.o)
 .debug_frame   0x0000000000000d20       0x4c /Users/jkwang/Desktop/nacl_sdk/pepper_canary/toolchain/mac_pnacl/bin/../x86_64-nacl/lib32/libcrt_common.a(lib_a-fclose.o)
 .debug_frame   0x0000000000000d6c       0x34 /Users/jkwang/Desktop/nacl_sdk/pepper_canary/toolchain/mac_pnacl/bin/../x86_64-nacl/lib32/libcrt_common.a(lib_a-fvwrite.o)
 .debug_frame   0x0000000000000da0      0x118 /Users/jkwang/Desktop/nacl_sdk/pepper_canary/toolchain/mac_pnacl/bin/../x86_64-nacl/lib32/libcrt_common.a(lib_a-locale.o)
 .debug_frame   0x0000000000000eb8       0x34 /Users/jkwang/Desktop/nacl_sdk/pepper_canary/toolchain/mac_pnacl/bin/../x86_64-nacl/lib32/libcrt_common.a(lib_a-makebuf.o)
 .debug_frame   0x0000000000000eec       0xd0 /Users/jkwang/Desktop/nacl_sdk/pepper_canary/toolchain/mac_pnacl/bin/../x86_64-nacl/lib32/libcrt_common.a(lib_a-mbtowc_r.o)
 .debug_frame   0x0000000000000fbc      0x260 /Users/jkwang/Desktop/nacl_sdk/pepper_canary/toolchain/mac_pnacl/bin/../x86_64-nacl/lib32/libcrt_common.a(lib_a-mprec.o)
 .debug_frame   0x000000000000121c       0x34 /Users/jkwang/Desktop/nacl_sdk/pepper_canary/toolchain/mac_pnacl/bin/../x86_64-nacl/lib32/libcrt_common.a(lib_a-s_fpclassify.o)
 .debug_frame   0x0000000000001250       0x30 /Users/jkwang/Desktop/nacl_sdk/pepper_canary/toolchain/mac_pnacl/bin/../x86_64-nacl/lib32/libcrt_common.a(lib_a-s_frexp.o)
 .debug_frame   0x0000000000001280       0x34 /Users/jkwang/Desktop/nacl_sdk/pepper_canary/toolchain/mac_pnacl/bin/../x86_64-nacl/lib32/libcrt_common.a(lib_a-strcasecmp.o)
 .debug_frame   0x00000000000012b4       0x34 /Users/jkwang/Desktop/nacl_sdk/pepper_canary/toolchain/mac_pnacl/bin/../x86_64-nacl/lib32/libcrt_common.a(lib_a-strlcpy.o)
 .debug_frame   0x00000000000012e8       0x34 /Users/jkwang/Desktop/nacl_sdk/pepper_canary/toolchain/mac_pnacl/bin/../x86_64-nacl/lib32/libcrt_common.a(lib_a-strncasecmp.o)
 .debug_frame   0x000000000000131c       0x34 /Users/jkwang/Desktop/nacl_sdk/pepper_canary/toolchain/mac_pnacl/bin/../x86_64-nacl/lib32/libcrt_common.a(lib_a-strncpy.o)
 .debug_frame   0x0000000000001350       0x54 /Users/jkwang/Desktop/nacl_sdk/pepper_canary/toolchain/mac_pnacl/bin/../x86_64-nacl/lib32/libcrt_common.a(lib_a-strtol.o)
 .debug_frame   0x00000000000013a4       0x34 /Users/jkwang/Desktop/nacl_sdk/pepper_canary/toolchain/mac_pnacl/bin/../x86_64-nacl/lib32/libcrt_common.a(lib_a-svfprintf.o)
 .debug_frame   0x00000000000013d8       0x94 /Users/jkwang/Desktop/nacl_sdk/pepper_canary/toolchain/mac_pnacl/bin/../x86_64-nacl/lib32/libcrt_common.a(lib_a-vfiprintf.o)
 .debug_frame   0x000000000000146c       0x54 /Users/jkwang/Desktop/nacl_sdk/pepper_canary/toolchain/mac_pnacl/bin/../x86_64-nacl/lib32/libcrt_common.a(lib_a-wcsnrtombs.o)
 .debug_frame   0x00000000000014c0       0x2c /Users/jkwang/Desktop/nacl_sdk/pepper_canary/toolchain/mac_pnacl/bin/../x86_64-nacl/lib32/libcrt_common.a(lib_a-ctype_.o)
 .debug_frame   0x00000000000014ec       0x54 /Users/jkwang/Desktop/nacl_sdk/pepper_canary/toolchain/mac_pnacl/bin/../x86_64-nacl/lib32/libcrt_common.a(lib_a-fputwc.o)
 .debug_frame   0x0000000000001540       0x54 /Users/jkwang/Desktop/nacl_sdk/pepper_canary/toolchain/mac_pnacl/bin/../x86_64-nacl/lib32/libcrt_common.a(lib_a-svfiprintf.o)
 .debug_frame   0x0000000000001594       0x50 /Users/jkwang/Desktop/nacl_sdk/pepper_canary/toolchain/mac_pnacl/bin/../x86_64-nacl/lib32/libcrt_common.a(lib_a-wbuf.o)

.debug_str      0x0000000000000000     0x59cd
 *(.debug_str)
 .debug_str     0x0000000000000000      0xa0a clang-newlib/Release/debugging_x86_32.o
                                        0xb1a (size before relaxing)
 .debug_str     0x0000000000000a0a      0x3a6 /Users/jkwang/Desktop/nacl_sdk/pepper_canary/lib/clang-newlib_x86_32/Release/liberror_handling.a(error_handling_x86_32.o)
                                        0x52a (size before relaxing)
 .debug_str     0x0000000000000db0       0x58 /Users/jkwang/Desktop/nacl_sdk/pepper_canary/lib/clang-newlib_x86_32/Release/liberror_handling.a(string_stream_x86_32.o)
                                        0x1d0 (size before relaxing)
 .debug_str     0x0000000000000e08      0x942 /Users/jkwang/Desktop/nacl_sdk/pepper_canary/toolchain/mac_pnacl/bin/../x86_64-nacl/lib32/libpthread.a(nc_thread.o)
                                        0xb8f (size before relaxing)
 .debug_str     0x000000000000174a      0x22b /Users/jkwang/Desktop/nacl_sdk/pepper_canary/toolchain/mac_pnacl/bin/../x86_64-nacl/lib32/libpthread.a(nc_mutex.o)
                                        0x673 (size before relaxing)
 .debug_str     0x0000000000001975      0x18c /Users/jkwang/Desktop/nacl_sdk/pepper_canary/toolchain/mac_pnacl/bin/../x86_64-nacl/lib32/libpthread.a(nc_condvar.o)
                                        0x53b (size before relaxing)
 .debug_str     0x0000000000001b01      0x4aa /Users/jkwang/Desktop/nacl_sdk/pepper_canary/toolchain/mac_pnacl/bin/../x86_64-nacl/lib32/libpthread.a(valgrind_annotations.o)
                                        0x634 (size before relaxing)
 .debug_str     0x0000000000001fab       0x6d /Users/jkwang/Desktop/nacl_sdk/pepper_canary/toolchain/mac_pnacl/bin/../x86_64-nacl/lib32/libpthread.a(nc_init_irt.o)
                                        0x1f1 (size before relaxing)
 .debug_str     0x0000000000002018      0x341 /Users/jkwang/Desktop/nacl_sdk/pepper_canary/toolchain/mac_pnacl/bin/../x86_64-nacl/lib32/libnacl.a(nacl_irt.o)
                                        0x642 (size before relaxing)
 .debug_str     0x0000000000002359       0x1b /Users/jkwang/Desktop/nacl_sdk/pepper_canary/toolchain/mac_pnacl/bin/../x86_64-nacl/lib32/libnacl.a(_exit.o)
                                        0x154 (size before relaxing)
 .debug_str     0x0000000000002374       0x2a /Users/jkwang/Desktop/nacl_sdk/pepper_canary/toolchain/mac_pnacl/bin/../x86_64-nacl/lib32/libnacl.a(mmap.o)
                                        0x1ae (size before relaxing)
 .debug_str     0x000000000000239e       0x1c /Users/jkwang/Desktop/nacl_sdk/pepper_canary/toolchain/mac_pnacl/bin/../x86_64-nacl/lib32/libnacl.a(munmap.o)
                                        0x176 (size before relaxing)
 .debug_str     0x00000000000023ba       0x59 /Users/jkwang/Desktop/nacl_sdk/pepper_canary/toolchain/mac_pnacl/bin/../x86_64-nacl/lib32/libnacl.a(nacl_interface_query.o)
                                        0x1a0 (size before relaxing)
 .debug_str     0x0000000000002413       0x1b /Users/jkwang/Desktop/nacl_sdk/pepper_canary/toolchain/mac_pnacl/bin/../x86_64-nacl/lib32/libnacl.a(write.o)
                                        0x17d (size before relaxing)
 .debug_str     0x000000000000242e       0x29 /Users/jkwang/Desktop/nacl_sdk/pepper_canary/toolchain/mac_pnacl/bin/../x86_64-nacl/lib32/libnacl.a(environ.o)
                                        0x167 (size before relaxing)
 .debug_str     0x0000000000002457      0xabc /Users/jkwang/Desktop/nacl_sdk/pepper_canary/toolchain/mac_pnacl/bin/../x86_64-nacl/lib32/libnacl.a(malloc.o)
                                        0xe84 (size before relaxing)
 .debug_str     0x0000000000002f13      0x157 /Users/jkwang/Desktop/nacl_sdk/pepper_canary/toolchain/mac_pnacl/bin/../x86_64-nacl/lib32/libnacl.a(start.o)
                                        0x2ce (size before relaxing)
 .debug_str     0x000000000000306a       0x31 /Users/jkwang/Desktop/nacl_sdk/pepper_canary/toolchain/mac_pnacl/bin/../x86_64-nacl/lib32/libnacl.a(nacl_read_tp.o)
                                        0x159 (size before relaxing)
 .debug_str     0x000000000000309b       0x4d /Users/jkwang/Desktop/nacl_sdk/pepper_canary/toolchain/mac_pnacl/bin/../x86_64-nacl/lib32/libnacl.a(pthread_initialize_minimal.o)
                                        0x1b1 (size before relaxing)
 .debug_str     0x00000000000030e8      0x196 /Users/jkwang/Desktop/nacl_sdk/pepper_canary/toolchain/mac_pnacl/bin/../x86_64-nacl/lib32/libnacl.a(tls.o)
                                        0x385 (size before relaxing)
 .debug_str     0x000000000000327e       0x85 /Users/jkwang/Desktop/nacl_sdk/pepper_canary/toolchain/mac_pnacl/bin/../x86_64-nacl/lib32/libnacl.a(nacl_irt_init.o)
                                        0x273 (size before relaxing)
 .debug_str     0x0000000000003303       0x2f /Users/jkwang/Desktop/nacl_sdk/pepper_canary/toolchain/mac_pnacl/bin/../x86_64-nacl/lib32/libnacl.a(nacl_tls_get.o)
                                        0x157 (size before relaxing)
 .debug_str     0x0000000000003332       0x3c /Users/jkwang/Desktop/nacl_sdk/pepper_canary/toolchain/mac_pnacl/bin/../x86_64-nacl/lib32/libnacl.a(nacl_tls_init.o)
                                        0x168 (size before relaxing)
 .debug_str     0x000000000000336e       0x21 /Users/jkwang/Desktop/nacl_sdk/pepper_canary/toolchain/mac_pnacl/bin/../x86_64-nacl/lib32/libnacl.a(abort.o)
                                        0x15f (size before relaxing)
 .debug_str     0x000000000000338f       0x21 /Users/jkwang/Desktop/nacl_sdk/pepper_canary/toolchain/mac_pnacl/bin/../x86_64-nacl/lib32/libnacl.a(sched_yield.o)
                                        0x15f (size before relaxing)
 .debug_str     0x00000000000033b0       0x1d /Users/jkwang/Desktop/nacl_sdk/pepper_canary/toolchain/mac_pnacl/bin/../x86_64-nacl/lib32/libnacl.a(sysconf.o)
                                        0x16b (size before relaxing)
 .debug_str     0x00000000000033cd       0xec /Users/jkwang/Desktop/nacl_sdk/pepper_canary/toolchain/mac_pnacl/bin/../x86_64-nacl/lib32/libcrt_common.a(lib_a-atexit.o)
                                        0x1e7 (size before relaxing)
 .debug_str     0x00000000000034b9       0xc1 /Users/jkwang/Desktop/nacl_sdk/pepper_canary/toolchain/mac_pnacl/bin/../x86_64-nacl/lib32/libcrt_common.a(lib_a-errno.o)
                                        0x1b2 (size before relaxing)
 .debug_str     0x000000000000357a       0x42 /Users/jkwang/Desktop/nacl_sdk/pepper_canary/toolchain/mac_pnacl/bin/../x86_64-nacl/lib32/libcrt_common.a(lib_a-exit.o)
                                        0x1b5 (size before relaxing)
 .debug_str     0x00000000000035bc       0xfb /Users/jkwang/Desktop/nacl_sdk/pepper_canary/toolchain/mac_pnacl/bin/../x86_64-nacl/lib32/libcrt_common.a(lib_a-fflush.o)
                                        0x6cf (size before relaxing)
 .debug_str     0x00000000000036b7      0x113 /Users/jkwang/Desktop/nacl_sdk/pepper_canary/toolchain/mac_pnacl/bin/../x86_64-nacl/lib32/libcrt_common.a(lib_a-findfp.o)
                                        0x786 (size before relaxing)
 .debug_str     0x00000000000037ca       0xc8 /Users/jkwang/Desktop/nacl_sdk/pepper_canary/toolchain/mac_pnacl/bin/../x86_64-nacl/lib32/libcrt_common.a(lib_a-fini.o)
                                        0x1d1 (size before relaxing)
 .debug_str     0x0000000000003892       0x4e /Users/jkwang/Desktop/nacl_sdk/pepper_canary/toolchain/mac_pnacl/bin/../x86_64-nacl/lib32/libcrt_common.a(lib_a-fprintf.o)
                                        0x6b4 (size before relaxing)
 .debug_str     0x00000000000038e0       0x62 /Users/jkwang/Desktop/nacl_sdk/pepper_canary/toolchain/mac_pnacl/bin/../x86_64-nacl/lib32/libcrt_common.a(lib_a-fwalk.o)
                                        0x6d4 (size before relaxing)
 .debug_str     0x0000000000003942       0x8b /Users/jkwang/Desktop/nacl_sdk/pepper_canary/toolchain/mac_pnacl/bin/../x86_64-nacl/lib32/libcrt_common.a(lib_a-fwrite.o)
                                        0x6f8 (size before relaxing)
 .debug_str     0x00000000000039cd       0x4f /Users/jkwang/Desktop/nacl_sdk/pepper_canary/toolchain/mac_pnacl/bin/../x86_64-nacl/lib32/libcrt_common.a(lib_a-getenv.o)
                                        0x1ce (size before relaxing)
 .debug_str     0x0000000000003a1c       0x6a /Users/jkwang/Desktop/nacl_sdk/pepper_canary/toolchain/mac_pnacl/bin/../x86_64-nacl/lib32/libcrt_common.a(lib_a-getenv_r.o)
                                        0x6b0 (size before relaxing)
 .debug_str     0x0000000000003a86      0x10a /Users/jkwang/Desktop/nacl_sdk/pepper_canary/toolchain/mac_pnacl/bin/../x86_64-nacl/lib32/libcrt_common.a(lib_a-impure.o)
                                        0x6d7 (size before relaxing)
 .debug_str     0x0000000000003b90       0x4d /Users/jkwang/Desktop/nacl_sdk/pepper_canary/toolchain/mac_pnacl/bin/../x86_64-nacl/lib32/libcrt_common.a(lib_a-init.o)
                                        0x1d1 (size before relaxing)
 .debug_str     0x0000000000003bdd       0xc1 /Users/jkwang/Desktop/nacl_sdk/pepper_canary/toolchain/mac_pnacl/bin/../x86_64-nacl/lib32/libcrt_common.a(lib_a-sleep.o)
                                        0x20d (size before relaxing)
 .debug_str     0x0000000000003c9e       0x73 /Users/jkwang/Desktop/nacl_sdk/pepper_canary/toolchain/mac_pnacl/bin/../x86_64-nacl/lib32/libcrt_common.a(lib_a-stdio.o)
                                        0x6e2 (size before relaxing)
 .debug_str     0x0000000000003d11       0xce /Users/jkwang/Desktop/nacl_sdk/pepper_canary/toolchain/mac_pnacl/bin/../x86_64-nacl/lib32/libcrt_common.a(lib_a-strcat.o)
                                        0x1e3 (size before relaxing)
 .debug_str     0x0000000000003ddf       0x4c /Users/jkwang/Desktop/nacl_sdk/pepper_canary/toolchain/mac_pnacl/bin/../x86_64-nacl/lib32/libcrt_common.a(lib_a-strcmp.o)
                                        0x1ee (size before relaxing)
 .debug_str     0x0000000000003e2b       0x68 /Users/jkwang/Desktop/nacl_sdk/pepper_canary/toolchain/mac_pnacl/bin/../x86_64-nacl/lib32/libcrt_common.a(lib_a-strcpy.o)
                                        0x1e8 (size before relaxing)
 .debug_str     0x0000000000003e93       0x48 /Users/jkwang/Desktop/nacl_sdk/pepper_canary/toolchain/mac_pnacl/bin/../x86_64-nacl/lib32/libcrt_common.a(lib_a-strncmp.o)
                                        0x206 (size before relaxing)
 .debug_str     0x0000000000003edb      0x181 /Users/jkwang/Desktop/nacl_sdk/pepper_canary/toolchain/mac_pnacl/bin/../x86_64-nacl/lib32/libcrt_common.a(lib_a-vfprintf.o)
                                        0x909 (size before relaxing)
 .debug_str     0x000000000000405c       0x58 /Users/jkwang/Desktop/nacl_sdk/pepper_canary/toolchain/mac_pnacl/bin/../x86_64-nacl/lib32/libcrt_common.a(lib_a-vsnprintf.o)
                                        0x6c9 (size before relaxing)
 .debug_str     0x00000000000040b4       0x55 /Users/jkwang/Desktop/nacl_sdk/pepper_canary/toolchain/mac_pnacl/bin/../x86_64-nacl/lib32/libcrt_common.a(lib_a-vsprintf.o)
                                        0x6ba (size before relaxing)
 .debug_str     0x0000000000004109       0x53 /Users/jkwang/Desktop/nacl_sdk/pepper_canary/toolchain/mac_pnacl/bin/../x86_64-nacl/lib32/libcrt_common.a(lib_a-wcrtomb.o)
                                        0x6bb (size before relaxing)
 .debug_str     0x000000000000415c       0x59 /Users/jkwang/Desktop/nacl_sdk/pepper_canary/toolchain/mac_pnacl/bin/../x86_64-nacl/lib32/libcrt_common.a(lib_a-wcsrtombs.o)
                                        0x6b5 (size before relaxing)
 .debug_str     0x00000000000041b5       0xae /Users/jkwang/Desktop/nacl_sdk/pepper_canary/toolchain/mac_pnacl/bin/../x86_64-nacl/lib32/libcrt_common.a(lib_a-wctomb_r.o)
                                        0x719 (size before relaxing)
 .debug_str     0x0000000000004263       0x4a /Users/jkwang/Desktop/nacl_sdk/pepper_canary/toolchain/mac_pnacl/bin/../x86_64-nacl/lib32/libcrt_common.a(lib_a-wsetup.o)
                                        0x697 (size before relaxing)
 .debug_str     0x00000000000042ad       0x55 /Users/jkwang/Desktop/nacl_sdk/pepper_canary/toolchain/mac_pnacl/bin/../x86_64-nacl/lib32/libcrt_common.a(lib_a-__atexit.o)
                                        0x276 (size before relaxing)
 .debug_str     0x0000000000004302       0x6b /Users/jkwang/Desktop/nacl_sdk/pepper_canary/toolchain/mac_pnacl/bin/../x86_64-nacl/lib32/libcrt_common.a(lib_a-__call_atexit.o)
                                        0x2d5 (size before relaxing)
 .debug_str     0x000000000000436d       0xd6 /Users/jkwang/Desktop/nacl_sdk/pepper_canary/toolchain/mac_pnacl/bin/../x86_64-nacl/lib32/libcrt_common.a(lib_a-dtoa.o)
                                        0x784 (size before relaxing)
 .debug_str     0x0000000000004443       0x6a /Users/jkwang/Desktop/nacl_sdk/pepper_canary/toolchain/mac_pnacl/bin/../x86_64-nacl/lib32/libcrt_common.a(lib_a-envlock.o)
                                        0x6a0 (size before relaxing)
 .debug_str     0x00000000000044ad       0x4f /Users/jkwang/Desktop/nacl_sdk/pepper_canary/toolchain/mac_pnacl/bin/../x86_64-nacl/lib32/libcrt_common.a(lib_a-fclose.o)
                                        0x69f (size before relaxing)
 .debug_str     0x00000000000044fc       0x65 /Users/jkwang/Desktop/nacl_sdk/pepper_canary/toolchain/mac_pnacl/bin/../x86_64-nacl/lib32/libcrt_common.a(lib_a-fvwrite.o)
                                        0x703 (size before relaxing)
 .debug_str     0x0000000000004561      0x34a /Users/jkwang/Desktop/nacl_sdk/pepper_canary/toolchain/mac_pnacl/bin/../x86_64-nacl/lib32/libcrt_common.a(lib_a-locale.o)
                                        0x9dd (size before relaxing)
 .debug_str     0x00000000000048ab      0x137 /Users/jkwang/Desktop/nacl_sdk/pepper_canary/toolchain/mac_pnacl/bin/../x86_64-nacl/lib32/libcrt_common.a(lib_a-makebuf.o)
                                        0x7f7 (size before relaxing)
 .debug_str     0x00000000000049e2      0x19e /Users/jkwang/Desktop/nacl_sdk/pepper_canary/toolchain/mac_pnacl/bin/../x86_64-nacl/lib32/libcrt_common.a(lib_a-mbtowc_r.o)
                                        0x816 (size before relaxing)
 .debug_str     0x0000000000004b80      0x166 /Users/jkwang/Desktop/nacl_sdk/pepper_canary/toolchain/mac_pnacl/bin/../x86_64-nacl/lib32/libcrt_common.a(lib_a-mprec.o)
                                        0x812 (size before relaxing)
 .debug_str     0x0000000000004ce6       0xfa /Users/jkwang/Desktop/nacl_sdk/pepper_canary/toolchain/mac_pnacl/bin/../x86_64-nacl/lib32/libcrt_common.a(lib_a-s_fpclassify.o)
                                        0x212 (size before relaxing)
 .debug_str     0x0000000000004de0       0xda /Users/jkwang/Desktop/nacl_sdk/pepper_canary/toolchain/mac_pnacl/bin/../x86_64-nacl/lib32/libcrt_common.a(lib_a-s_frexp.o)
                                        0x229 (size before relaxing)
 .debug_str     0x0000000000004eba       0x62 /Users/jkwang/Desktop/nacl_sdk/pepper_canary/toolchain/mac_pnacl/bin/../x86_64-nacl/lib32/libcrt_common.a(lib_a-strcasecmp.o)
                                        0x1eb (size before relaxing)
 .debug_str     0x0000000000004f1c       0x4c /Users/jkwang/Desktop/nacl_sdk/pepper_canary/toolchain/mac_pnacl/bin/../x86_64-nacl/lib32/libcrt_common.a(lib_a-strlcpy.o)
                                        0x1dd (size before relaxing)
 .debug_str     0x0000000000004f68       0x50 /Users/jkwang/Desktop/nacl_sdk/pepper_canary/toolchain/mac_pnacl/bin/../x86_64-nacl/lib32/libcrt_common.a(lib_a-strncasecmp.o)
                                        0x203 (size before relaxing)
 .debug_str     0x0000000000004fb8       0x48 /Users/jkwang/Desktop/nacl_sdk/pepper_canary/toolchain/mac_pnacl/bin/../x86_64-nacl/lib32/libcrt_common.a(lib_a-strncpy.o)
                                        0x204 (size before relaxing)
 .debug_str     0x0000000000005000       0x6d /Users/jkwang/Desktop/nacl_sdk/pepper_canary/toolchain/mac_pnacl/bin/../x86_64-nacl/lib32/libcrt_common.a(lib_a-strtol.o)
                                        0x6ba (size before relaxing)
 .debug_str     0x000000000000506d        0xd /Users/jkwang/Desktop/nacl_sdk/pepper_canary/toolchain/mac_pnacl/bin/../x86_64-nacl/lib32/libcrt_common.a(lib_a-svfprintf.o)
                                        0x8d5 (size before relaxing)
 .debug_str     0x000000000000507a       0x22 /Users/jkwang/Desktop/nacl_sdk/pepper_canary/toolchain/mac_pnacl/bin/../x86_64-nacl/lib32/libcrt_common.a(lib_a-vfiprintf.o)
                                        0x84a (size before relaxing)
 .debug_str     0x000000000000509c       0x6a /Users/jkwang/Desktop/nacl_sdk/pepper_canary/toolchain/mac_pnacl/bin/../x86_64-nacl/lib32/libcrt_common.a(lib_a-wcsnrtombs.o)
                                        0x6de (size before relaxing)
 .debug_str     0x0000000000005106       0xe5 /Users/jkwang/Desktop/nacl_sdk/pepper_canary/toolchain/mac_pnacl/bin/../x86_64-nacl/lib32/libcrt_common.a(lib_a-ctype_.o)
                                        0x1e8 (size before relaxing)
 .debug_str     0x00000000000051eb       0x51 /Users/jkwang/Desktop/nacl_sdk/pepper_canary/toolchain/mac_pnacl/bin/../x86_64-nacl/lib32/libcrt_common.a(lib_a-fputwc.o)
                                        0x6c9 (size before relaxing)
 .debug_str     0x000000000000523c       0x1a /Users/jkwang/Desktop/nacl_sdk/pepper_canary/toolchain/mac_pnacl/bin/../x86_64-nacl/lib32/libcrt_common.a(lib_a-svfiprintf.o)
                                        0x825 (size before relaxing)
 .debug_str     0x0000000000005256       0x4e /Users/jkwang/Desktop/nacl_sdk/pepper_canary/toolchain/mac_pnacl/bin/../x86_64-nacl/lib32/libcrt_common.a(lib_a-wbuf.o)
                                        0x69f (size before relaxing)
 .debug_str     0x00000000000052a4       0x1b /Users/jkwang/Desktop/nacl_sdk/pepper_canary/toolchain/mac_pnacl/bin/../x86_64-nacl/lib32/libnacl.a(close.o)
                                        0x158 (size before relaxing)
 .debug_str     0x00000000000052bf       0x1b /Users/jkwang/Desktop/nacl_sdk/pepper_canary/toolchain/mac_pnacl/bin/../x86_64-nacl/lib32/libnacl.a(fstat.o)
                                        0x2ee (size before relaxing)
 .debug_str     0x00000000000052da       0x1c /Users/jkwang/Desktop/nacl_sdk/pepper_canary/toolchain/mac_pnacl/bin/../x86_64-nacl/lib32/libnacl.a(isatty.o)
                                        0x15f (size before relaxing)
 .debug_str     0x00000000000052f6       0x21 /Users/jkwang/Desktop/nacl_sdk/pepper_canary/toolchain/mac_pnacl/bin/../x86_64-nacl/lib32/libnacl.a(lseek.o)
                                        0x192 (size before relaxing)
 .debug_str     0x0000000000005317       0x1f /Users/jkwang/Desktop/nacl_sdk/pepper_canary/toolchain/mac_pnacl/bin/../x86_64-nacl/lib32/libnacl.a(nanosleep.o)
                                        0x1ac (size before relaxing)
 .debug_str     0x0000000000005336       0x3f /Users/jkwang/Desktop/nacl_sdk/pepper_canary/toolchain/mac_pnacl/bin/../x86_64-nacl/lib32/libnacl.a(nacl_irt_fdio.o)
                                        0x167 (size before relaxing)
 .debug_str     0x0000000000005375       0x1a /Users/jkwang/Desktop/nacl_sdk/pepper_canary/toolchain/mac_pnacl/bin/../x86_64-nacl/lib32/libnacl.a(read.o)
                                        0x17a (size before relaxing)
 .debug_str     0x000000000000538f      0x63e /Users/jkwang/Desktop/nacl_sdk/pepper_canary/toolchain/mac_pnacl/bin/../lib/clang/3.7.0/lib/i686-nacl/libgcc_eh.a(unwind-dw2-fde-glibc.o)
                                        0x71e (size before relaxing)

.debug_loc      0x0000000000000000    0x156f7
 *(.debug_loc)
 .debug_loc     0x0000000000000000      0x2a0 clang-newlib/Release/debugging_x86_32.o
 .debug_loc     0x00000000000002a0      0x22a /Users/jkwang/Desktop/nacl_sdk/pepper_canary/lib/clang-newlib_x86_32/Release/liberror_handling.a(error_handling_x86_32.o)
 .debug_loc     0x00000000000004ca       0xe8 /Users/jkwang/Desktop/nacl_sdk/pepper_canary/lib/clang-newlib_x86_32/Release/liberror_handling.a(string_stream_x86_32.o)
 .debug_loc     0x00000000000005b2      0x9c0 /Users/jkwang/Desktop/nacl_sdk/pepper_canary/toolchain/mac_pnacl/bin/../x86_64-nacl/lib32/libpthread.a(nc_thread.o)
 .debug_loc     0x0000000000000f72      0x48b /Users/jkwang/Desktop/nacl_sdk/pepper_canary/toolchain/mac_pnacl/bin/../x86_64-nacl/lib32/libpthread.a(nc_mutex.o)
 .debug_loc     0x00000000000013fd      0x239 /Users/jkwang/Desktop/nacl_sdk/pepper_canary/toolchain/mac_pnacl/bin/../x86_64-nacl/lib32/libpthread.a(nc_condvar.o)
 .debug_loc     0x0000000000001636      0x922 /Users/jkwang/Desktop/nacl_sdk/pepper_canary/toolchain/mac_pnacl/bin/../x86_64-nacl/lib32/libpthread.a(valgrind_annotations.o)
 .debug_loc     0x0000000000001f58        0x0 /Users/jkwang/Desktop/nacl_sdk/pepper_canary/toolchain/mac_pnacl/bin/../x86_64-nacl/lib32/libpthread.a(nc_init_irt.o)
 .debug_loc     0x0000000000001f58      0x2e4 /Users/jkwang/Desktop/nacl_sdk/pepper_canary/toolchain/mac_pnacl/bin/../x86_64-nacl/lib32/libnacl.a(nacl_irt.o)
 .debug_loc     0x000000000000223c        0x0 /Users/jkwang/Desktop/nacl_sdk/pepper_canary/toolchain/mac_pnacl/bin/../x86_64-nacl/lib32/libnacl.a(_exit.o)
 .debug_loc     0x000000000000223c      0x146 /Users/jkwang/Desktop/nacl_sdk/pepper_canary/toolchain/mac_pnacl/bin/../x86_64-nacl/lib32/libnacl.a(mmap.o)
 .debug_loc     0x0000000000002382       0x53 /Users/jkwang/Desktop/nacl_sdk/pepper_canary/toolchain/mac_pnacl/bin/../x86_64-nacl/lib32/libnacl.a(munmap.o)
 .debug_loc     0x00000000000023d5        0x0 /Users/jkwang/Desktop/nacl_sdk/pepper_canary/toolchain/mac_pnacl/bin/../x86_64-nacl/lib32/libnacl.a(nacl_interface_query.o)
 .debug_loc     0x00000000000023d5       0xab /Users/jkwang/Desktop/nacl_sdk/pepper_canary/toolchain/mac_pnacl/bin/../x86_64-nacl/lib32/libnacl.a(write.o)
 .debug_loc     0x0000000000002480        0x0 /Users/jkwang/Desktop/nacl_sdk/pepper_canary/toolchain/mac_pnacl/bin/../x86_64-nacl/lib32/libnacl.a(environ.o)
 .debug_loc     0x0000000000002480     0x2fce /Users/jkwang/Desktop/nacl_sdk/pepper_canary/toolchain/mac_pnacl/bin/../x86_64-nacl/lib32/libnacl.a(malloc.o)
 .debug_loc     0x000000000000544e       0xed /Users/jkwang/Desktop/nacl_sdk/pepper_canary/toolchain/mac_pnacl/bin/../x86_64-nacl/lib32/libnacl.a(start.o)
 .debug_loc     0x000000000000553b        0x0 /Users/jkwang/Desktop/nacl_sdk/pepper_canary/toolchain/mac_pnacl/bin/../x86_64-nacl/lib32/libnacl.a(nacl_read_tp.o)
 .debug_loc     0x000000000000553b       0x62 /Users/jkwang/Desktop/nacl_sdk/pepper_canary/toolchain/mac_pnacl/bin/../x86_64-nacl/lib32/libnacl.a(pthread_initialize_minimal.o)
 .debug_loc     0x000000000000559d      0x210 /Users/jkwang/Desktop/nacl_sdk/pepper_canary/toolchain/mac_pnacl/bin/../x86_64-nacl/lib32/libnacl.a(tls.o)
 .debug_loc     0x00000000000057ad       0xa6 /Users/jkwang/Desktop/nacl_sdk/pepper_canary/toolchain/mac_pnacl/bin/../x86_64-nacl/lib32/libnacl.a(nacl_irt_init.o)
 .debug_loc     0x0000000000005853        0x0 /Users/jkwang/Desktop/nacl_sdk/pepper_canary/toolchain/mac_pnacl/bin/../x86_64-nacl/lib32/libnacl.a(nacl_tls_get.o)
 .debug_loc     0x0000000000005853        0x0 /Users/jkwang/Desktop/nacl_sdk/pepper_canary/toolchain/mac_pnacl/bin/../x86_64-nacl/lib32/libnacl.a(nacl_tls_init.o)
 .debug_loc     0x0000000000005853        0x0 /Users/jkwang/Desktop/nacl_sdk/pepper_canary/toolchain/mac_pnacl/bin/../x86_64-nacl/lib32/libnacl.a(abort.o)
 .debug_loc     0x0000000000005853       0x13 /Users/jkwang/Desktop/nacl_sdk/pepper_canary/toolchain/mac_pnacl/bin/../x86_64-nacl/lib32/libnacl.a(sched_yield.o)
 .debug_loc     0x0000000000005866       0x53 /Users/jkwang/Desktop/nacl_sdk/pepper_canary/toolchain/mac_pnacl/bin/../x86_64-nacl/lib32/libnacl.a(sysconf.o)
 .debug_loc     0x00000000000058b9       0x14 /Users/jkwang/Desktop/nacl_sdk/pepper_canary/toolchain/mac_pnacl/bin/../x86_64-nacl/lib32/libcrt_common.a(lib_a-atexit.o)
 .debug_loc     0x00000000000058cd        0x0 /Users/jkwang/Desktop/nacl_sdk/pepper_canary/toolchain/mac_pnacl/bin/../x86_64-nacl/lib32/libcrt_common.a(lib_a-errno.o)
 .debug_loc     0x00000000000058cd       0x13 /Users/jkwang/Desktop/nacl_sdk/pepper_canary/toolchain/mac_pnacl/bin/../x86_64-nacl/lib32/libcrt_common.a(lib_a-exit.o)
 .debug_loc     0x00000000000058e0      0x20f /Users/jkwang/Desktop/nacl_sdk/pepper_canary/toolchain/mac_pnacl/bin/../x86_64-nacl/lib32/libcrt_common.a(lib_a-fflush.o)
 .debug_loc     0x0000000000005aef       0xdf /Users/jkwang/Desktop/nacl_sdk/pepper_canary/toolchain/mac_pnacl/bin/../x86_64-nacl/lib32/libcrt_common.a(lib_a-findfp.o)
 .debug_loc     0x0000000000005bce       0x13 /Users/jkwang/Desktop/nacl_sdk/pepper_canary/toolchain/mac_pnacl/bin/../x86_64-nacl/lib32/libcrt_common.a(lib_a-fini.o)
 .debug_loc     0x0000000000005be1       0x64 /Users/jkwang/Desktop/nacl_sdk/pepper_canary/toolchain/mac_pnacl/bin/../x86_64-nacl/lib32/libcrt_common.a(lib_a-fprintf.o)
 .debug_loc     0x0000000000005c45      0x192 /Users/jkwang/Desktop/nacl_sdk/pepper_canary/toolchain/mac_pnacl/bin/../x86_64-nacl/lib32/libcrt_common.a(lib_a-fwalk.o)
 .debug_loc     0x0000000000005dd7      0x138 /Users/jkwang/Desktop/nacl_sdk/pepper_canary/toolchain/mac_pnacl/bin/../x86_64-nacl/lib32/libcrt_common.a(lib_a-fwrite.o)
 .debug_loc     0x0000000000005f0f       0x3c /Users/jkwang/Desktop/nacl_sdk/pepper_canary/toolchain/mac_pnacl/bin/../x86_64-nacl/lib32/libcrt_common.a(lib_a-getenv.o)
 .debug_loc     0x0000000000005f4b       0xb3 /Users/jkwang/Desktop/nacl_sdk/pepper_canary/toolchain/mac_pnacl/bin/../x86_64-nacl/lib32/libcrt_common.a(lib_a-getenv_r.o)
 .debug_loc     0x0000000000005ffe        0x0 /Users/jkwang/Desktop/nacl_sdk/pepper_canary/toolchain/mac_pnacl/bin/../x86_64-nacl/lib32/libcrt_common.a(lib_a-impure.o)
 .debug_loc     0x0000000000005ffe       0x45 /Users/jkwang/Desktop/nacl_sdk/pepper_canary/toolchain/mac_pnacl/bin/../x86_64-nacl/lib32/libcrt_common.a(lib_a-init.o)
 .debug_loc     0x0000000000006043       0x34 /Users/jkwang/Desktop/nacl_sdk/pepper_canary/toolchain/mac_pnacl/bin/../x86_64-nacl/lib32/libcrt_common.a(lib_a-sleep.o)
 .debug_loc     0x0000000000006077      0x1c9 /Users/jkwang/Desktop/nacl_sdk/pepper_canary/toolchain/mac_pnacl/bin/../x86_64-nacl/lib32/libcrt_common.a(lib_a-stdio.o)
 .debug_loc     0x0000000000006240       0x39 /Users/jkwang/Desktop/nacl_sdk/pepper_canary/toolchain/mac_pnacl/bin/../x86_64-nacl/lib32/libcrt_common.a(lib_a-strcat.o)
 .debug_loc     0x0000000000006279       0x6d /Users/jkwang/Desktop/nacl_sdk/pepper_canary/toolchain/mac_pnacl/bin/../x86_64-nacl/lib32/libcrt_common.a(lib_a-strcmp.o)
 .debug_loc     0x00000000000062e6       0x9e /Users/jkwang/Desktop/nacl_sdk/pepper_canary/toolchain/mac_pnacl/bin/../x86_64-nacl/lib32/libcrt_common.a(lib_a-strcpy.o)
 .debug_loc     0x0000000000006384       0x96 /Users/jkwang/Desktop/nacl_sdk/pepper_canary/toolchain/mac_pnacl/bin/../x86_64-nacl/lib32/libcrt_common.a(lib_a-strncmp.o)
 .debug_loc     0x000000000000641a     0x2202 /Users/jkwang/Desktop/nacl_sdk/pepper_canary/toolchain/mac_pnacl/bin/../x86_64-nacl/lib32/libcrt_common.a(lib_a-vfprintf.o)
 .debug_loc     0x000000000000861c      0x179 /Users/jkwang/Desktop/nacl_sdk/pepper_canary/toolchain/mac_pnacl/bin/../x86_64-nacl/lib32/libcrt_common.a(lib_a-vsnprintf.o)
 .debug_loc     0x0000000000008795       0xed /Users/jkwang/Desktop/nacl_sdk/pepper_canary/toolchain/mac_pnacl/bin/../x86_64-nacl/lib32/libcrt_common.a(lib_a-vsprintf.o)
 .debug_loc     0x0000000000008882      0x112 /Users/jkwang/Desktop/nacl_sdk/pepper_canary/toolchain/mac_pnacl/bin/../x86_64-nacl/lib32/libcrt_common.a(lib_a-wcrtomb.o)
 .debug_loc     0x0000000000008994       0xb4 /Users/jkwang/Desktop/nacl_sdk/pepper_canary/toolchain/mac_pnacl/bin/../x86_64-nacl/lib32/libcrt_common.a(lib_a-wcsrtombs.o)
 .debug_loc     0x0000000000008a48      0x533 /Users/jkwang/Desktop/nacl_sdk/pepper_canary/toolchain/mac_pnacl/bin/../x86_64-nacl/lib32/libcrt_common.a(lib_a-wctomb_r.o)
 .debug_loc     0x0000000000008f7b       0x39 /Users/jkwang/Desktop/nacl_sdk/pepper_canary/toolchain/mac_pnacl/bin/../x86_64-nacl/lib32/libcrt_common.a(lib_a-wsetup.o)
 .debug_loc     0x0000000000008fb4       0x75 /Users/jkwang/Desktop/nacl_sdk/pepper_canary/toolchain/mac_pnacl/bin/../x86_64-nacl/lib32/libcrt_common.a(lib_a-__atexit.o)
 .debug_loc     0x0000000000009029       0xb6 /Users/jkwang/Desktop/nacl_sdk/pepper_canary/toolchain/mac_pnacl/bin/../x86_64-nacl/lib32/libcrt_common.a(lib_a-__call_atexit.o)
 .debug_loc     0x00000000000090df     0x15a6 /Users/jkwang/Desktop/nacl_sdk/pepper_canary/toolchain/mac_pnacl/bin/../x86_64-nacl/lib32/libcrt_common.a(lib_a-dtoa.o)
 .debug_loc     0x000000000000a685       0x28 /Users/jkwang/Desktop/nacl_sdk/pepper_canary/toolchain/mac_pnacl/bin/../x86_64-nacl/lib32/libcrt_common.a(lib_a-envlock.o)
 .debug_loc     0x000000000000a6ad       0x78 /Users/jkwang/Desktop/nacl_sdk/pepper_canary/toolchain/mac_pnacl/bin/../x86_64-nacl/lib32/libcrt_common.a(lib_a-fclose.o)
 .debug_loc     0x000000000000a725      0x4f3 /Users/jkwang/Desktop/nacl_sdk/pepper_canary/toolchain/mac_pnacl/bin/../x86_64-nacl/lib32/libcrt_common.a(lib_a-fvwrite.o)
 .debug_loc     0x000000000000ac18      0x72b /Users/jkwang/Desktop/nacl_sdk/pepper_canary/toolchain/mac_pnacl/bin/../x86_64-nacl/lib32/libcrt_common.a(lib_a-locale.o)
 .debug_loc     0x000000000000b343       0x63 /Users/jkwang/Desktop/nacl_sdk/pepper_canary/toolchain/mac_pnacl/bin/../x86_64-nacl/lib32/libcrt_common.a(lib_a-makebuf.o)
 .debug_loc     0x000000000000b3a6      0x8a5 /Users/jkwang/Desktop/nacl_sdk/pepper_canary/toolchain/mac_pnacl/bin/../x86_64-nacl/lib32/libcrt_common.a(lib_a-mbtowc_r.o)
 .debug_loc     0x000000000000bc4b     0x1dfe /Users/jkwang/Desktop/nacl_sdk/pepper_canary/toolchain/mac_pnacl/bin/../x86_64-nacl/lib32/libcrt_common.a(lib_a-mprec.o)
 .debug_loc     0x000000000000da49       0x28 /Users/jkwang/Desktop/nacl_sdk/pepper_canary/toolchain/mac_pnacl/bin/../x86_64-nacl/lib32/libcrt_common.a(lib_a-s_fpclassify.o)
 .debug_loc     0x000000000000da71       0x90 /Users/jkwang/Desktop/nacl_sdk/pepper_canary/toolchain/mac_pnacl/bin/../x86_64-nacl/lib32/libcrt_common.a(lib_a-s_frexp.o)
 .debug_loc     0x000000000000db01       0xa8 /Users/jkwang/Desktop/nacl_sdk/pepper_canary/toolchain/mac_pnacl/bin/../x86_64-nacl/lib32/libcrt_common.a(lib_a-strcasecmp.o)
 .debug_loc     0x000000000000dba9       0xb4 /Users/jkwang/Desktop/nacl_sdk/pepper_canary/toolchain/mac_pnacl/bin/../x86_64-nacl/lib32/libcrt_common.a(lib_a-strlcpy.o)
 .debug_loc     0x000000000000dc5d       0xa6 /Users/jkwang/Desktop/nacl_sdk/pepper_canary/toolchain/mac_pnacl/bin/../x86_64-nacl/lib32/libcrt_common.a(lib_a-strncasecmp.o)
 .debug_loc     0x000000000000dd03      0x15f /Users/jkwang/Desktop/nacl_sdk/pepper_canary/toolchain/mac_pnacl/bin/../x86_64-nacl/lib32/libcrt_common.a(lib_a-strncpy.o)
 .debug_loc     0x000000000000de62      0x23d /Users/jkwang/Desktop/nacl_sdk/pepper_canary/toolchain/mac_pnacl/bin/../x86_64-nacl/lib32/libcrt_common.a(lib_a-strtol.o)
 .debug_loc     0x000000000000e09f     0x247c /Users/jkwang/Desktop/nacl_sdk/pepper_canary/toolchain/mac_pnacl/bin/../x86_64-nacl/lib32/libcrt_common.a(lib_a-svfprintf.o)
 .debug_loc     0x000000000001051b     0x22c1 /Users/jkwang/Desktop/nacl_sdk/pepper_canary/toolchain/mac_pnacl/bin/../x86_64-nacl/lib32/libcrt_common.a(lib_a-vfiprintf.o)
 .debug_loc     0x00000000000127dc      0x206 /Users/jkwang/Desktop/nacl_sdk/pepper_canary/toolchain/mac_pnacl/bin/../x86_64-nacl/lib32/libcrt_common.a(lib_a-wcsnrtombs.o)
 .debug_loc     0x00000000000129e2       0x14 /Users/jkwang/Desktop/nacl_sdk/pepper_canary/toolchain/mac_pnacl/bin/../x86_64-nacl/lib32/libcrt_common.a(lib_a-ctype_.o)
 .debug_loc     0x00000000000129f6      0x1a1 /Users/jkwang/Desktop/nacl_sdk/pepper_canary/toolchain/mac_pnacl/bin/../x86_64-nacl/lib32/libcrt_common.a(lib_a-fputwc.o)
 .debug_loc     0x0000000000012b97     0x1292 /Users/jkwang/Desktop/nacl_sdk/pepper_canary/toolchain/mac_pnacl/bin/../x86_64-nacl/lib32/libcrt_common.a(lib_a-svfiprintf.o)
 .debug_loc     0x0000000000013e29       0xa9 /Users/jkwang/Desktop/nacl_sdk/pepper_canary/toolchain/mac_pnacl/bin/../x86_64-nacl/lib32/libcrt_common.a(lib_a-wbuf.o)
 .debug_loc     0x0000000000013ed2       0x33 /Users/jkwang/Desktop/nacl_sdk/pepper_canary/toolchain/mac_pnacl/bin/../x86_64-nacl/lib32/libnacl.a(close.o)
 .debug_loc     0x0000000000013f05       0x53 /Users/jkwang/Desktop/nacl_sdk/pepper_canary/toolchain/mac_pnacl/bin/../x86_64-nacl/lib32/libnacl.a(fstat.o)
 .debug_loc     0x0000000000013f58       0x3a /Users/jkwang/Desktop/nacl_sdk/pepper_canary/toolchain/mac_pnacl/bin/../x86_64-nacl/lib32/libnacl.a(isatty.o)
 .debug_loc     0x0000000000013f92       0xab /Users/jkwang/Desktop/nacl_sdk/pepper_canary/toolchain/mac_pnacl/bin/../x86_64-nacl/lib32/libnacl.a(lseek.o)
 .debug_loc     0x000000000001403d       0x53 /Users/jkwang/Desktop/nacl_sdk/pepper_canary/toolchain/mac_pnacl/bin/../x86_64-nacl/lib32/libnacl.a(nanosleep.o)
 .debug_loc     0x0000000000014090        0x0 /Users/jkwang/Desktop/nacl_sdk/pepper_canary/toolchain/mac_pnacl/bin/../x86_64-nacl/lib32/libnacl.a(nacl_irt_fdio.o)
 .debug_loc     0x0000000000014090       0xab /Users/jkwang/Desktop/nacl_sdk/pepper_canary/toolchain/mac_pnacl/bin/../x86_64-nacl/lib32/libnacl.a(read.o)
 .debug_loc     0x000000000001413b     0x15bc /Users/jkwang/Desktop/nacl_sdk/pepper_canary/toolchain/mac_pnacl/bin/../lib/clang/3.7.0/lib/i686-nacl/libgcc_eh.a(unwind-dw2-fde-glibc.o)

.debug_macinfo
 *(.debug_macinfo)

.debug_weaknames
 *(.debug_weaknames)

.debug_funcnames
 *(.debug_funcnames)

.debug_typenames
 *(.debug_typenames)

.debug_varnames
 *(.debug_varnames)

.debug_pubtypes
                0x0000000000000000     0x572e
 *(.debug_pubtypes)
 .debug_pubtypes
                0x0000000000000000      0x254 clang-newlib/Release/debugging_x86_32.o
 .debug_pubtypes
                0x0000000000000254      0x184 /Users/jkwang/Desktop/nacl_sdk/pepper_canary/lib/clang-newlib_x86_32/Release/liberror_handling.a(error_handling_x86_32.o)
 .debug_pubtypes
                0x00000000000003d8       0x6f /Users/jkwang/Desktop/nacl_sdk/pepper_canary/lib/clang-newlib_x86_32/Release/liberror_handling.a(string_stream_x86_32.o)
 .debug_pubtypes
                0x0000000000000447      0x22c /Users/jkwang/Desktop/nacl_sdk/pepper_canary/toolchain/mac_pnacl/bin/../x86_64-nacl/lib32/libpthread.a(nc_thread.o)
 .debug_pubtypes
                0x0000000000000673      0x1bf /Users/jkwang/Desktop/nacl_sdk/pepper_canary/toolchain/mac_pnacl/bin/../x86_64-nacl/lib32/libpthread.a(nc_mutex.o)
 .debug_pubtypes
                0x0000000000000832      0x1a2 /Users/jkwang/Desktop/nacl_sdk/pepper_canary/toolchain/mac_pnacl/bin/../x86_64-nacl/lib32/libpthread.a(nc_condvar.o)
 .debug_pubtypes
                0x00000000000009d4       0x30 /Users/jkwang/Desktop/nacl_sdk/pepper_canary/toolchain/mac_pnacl/bin/../x86_64-nacl/lib32/libpthread.a(valgrind_annotations.o)
 .debug_pubtypes
                0x0000000000000a04       0x7f /Users/jkwang/Desktop/nacl_sdk/pepper_canary/toolchain/mac_pnacl/bin/../x86_64-nacl/lib32/libpthread.a(nc_init_irt.o)
 .debug_pubtypes
                0x0000000000000a83      0x21f /Users/jkwang/Desktop/nacl_sdk/pepper_canary/toolchain/mac_pnacl/bin/../x86_64-nacl/lib32/libnacl.a(nacl_irt.o)
 .debug_pubtypes
                0x0000000000000ca2       0x1a /Users/jkwang/Desktop/nacl_sdk/pepper_canary/toolchain/mac_pnacl/bin/../x86_64-nacl/lib32/libnacl.a(_exit.o)
 .debug_pubtypes
                0x0000000000000cbc       0x6b /Users/jkwang/Desktop/nacl_sdk/pepper_canary/toolchain/mac_pnacl/bin/../x86_64-nacl/lib32/libnacl.a(mmap.o)
 .debug_pubtypes
                0x0000000000000d27       0x36 /Users/jkwang/Desktop/nacl_sdk/pepper_canary/toolchain/mac_pnacl/bin/../x86_64-nacl/lib32/libnacl.a(munmap.o)
 .debug_pubtypes
                0x0000000000000d5d       0x37 /Users/jkwang/Desktop/nacl_sdk/pepper_canary/toolchain/mac_pnacl/bin/../x86_64-nacl/lib32/libnacl.a(nacl_interface_query.o)
 .debug_pubtypes
                0x0000000000000d94       0x36 /Users/jkwang/Desktop/nacl_sdk/pepper_canary/toolchain/mac_pnacl/bin/../x86_64-nacl/lib32/libnacl.a(write.o)
 .debug_pubtypes
                0x0000000000000dca       0x1b /Users/jkwang/Desktop/nacl_sdk/pepper_canary/toolchain/mac_pnacl/bin/../x86_64-nacl/lib32/libnacl.a(environ.o)
 .debug_pubtypes
                0x0000000000000de5      0x2b5 /Users/jkwang/Desktop/nacl_sdk/pepper_canary/toolchain/mac_pnacl/bin/../x86_64-nacl/lib32/libnacl.a(malloc.o)
 .debug_pubtypes
                0x000000000000109a       0xa6 /Users/jkwang/Desktop/nacl_sdk/pepper_canary/toolchain/mac_pnacl/bin/../x86_64-nacl/lib32/libnacl.a(start.o)
 .debug_pubtypes
                0x0000000000001140       0x2e /Users/jkwang/Desktop/nacl_sdk/pepper_canary/toolchain/mac_pnacl/bin/../x86_64-nacl/lib32/libnacl.a(pthread_initialize_minimal.o)
 .debug_pubtypes
                0x000000000000116e       0xcf /Users/jkwang/Desktop/nacl_sdk/pepper_canary/toolchain/mac_pnacl/bin/../x86_64-nacl/lib32/libnacl.a(tls.o)
 .debug_pubtypes
                0x000000000000123d       0xeb /Users/jkwang/Desktop/nacl_sdk/pepper_canary/toolchain/mac_pnacl/bin/../x86_64-nacl/lib32/libnacl.a(nacl_irt_init.o)
 .debug_pubtypes
                0x0000000000001328       0x1a /Users/jkwang/Desktop/nacl_sdk/pepper_canary/toolchain/mac_pnacl/bin/../x86_64-nacl/lib32/libnacl.a(nacl_tls_init.o)
 .debug_pubtypes
                0x0000000000001342       0x1b /Users/jkwang/Desktop/nacl_sdk/pepper_canary/toolchain/mac_pnacl/bin/../x86_64-nacl/lib32/libnacl.a(abort.o)
 .debug_pubtypes
                0x000000000000135d       0x1a /Users/jkwang/Desktop/nacl_sdk/pepper_canary/toolchain/mac_pnacl/bin/../x86_64-nacl/lib32/libnacl.a(sched_yield.o)
 .debug_pubtypes
                0x0000000000001377       0x27 /Users/jkwang/Desktop/nacl_sdk/pepper_canary/toolchain/mac_pnacl/bin/../x86_64-nacl/lib32/libnacl.a(sysconf.o)
 .debug_pubtypes
                0x000000000000139e       0x2d /Users/jkwang/Desktop/nacl_sdk/pepper_canary/toolchain/mac_pnacl/bin/../x86_64-nacl/lib32/libcrt_common.a(lib_a-atexit.o)
 .debug_pubtypes
                0x00000000000013cb       0x1a /Users/jkwang/Desktop/nacl_sdk/pepper_canary/toolchain/mac_pnacl/bin/../x86_64-nacl/lib32/libcrt_common.a(lib_a-errno.o)
 .debug_pubtypes
                0x00000000000013e5       0x1a /Users/jkwang/Desktop/nacl_sdk/pepper_canary/toolchain/mac_pnacl/bin/../x86_64-nacl/lib32/libcrt_common.a(lib_a-exit.o)
 .debug_pubtypes
                0x00000000000013ff      0x1c8 /Users/jkwang/Desktop/nacl_sdk/pepper_canary/toolchain/mac_pnacl/bin/../x86_64-nacl/lib32/libcrt_common.a(lib_a-fflush.o)
 .debug_pubtypes
                0x00000000000015c7      0x1db /Users/jkwang/Desktop/nacl_sdk/pepper_canary/toolchain/mac_pnacl/bin/../x86_64-nacl/lib32/libcrt_common.a(lib_a-findfp.o)
 .debug_pubtypes
                0x00000000000017a2       0x2e /Users/jkwang/Desktop/nacl_sdk/pepper_canary/toolchain/mac_pnacl/bin/../x86_64-nacl/lib32/libcrt_common.a(lib_a-fini.o)
 .debug_pubtypes
                0x00000000000017d0      0x1ea /Users/jkwang/Desktop/nacl_sdk/pepper_canary/toolchain/mac_pnacl/bin/../x86_64-nacl/lib32/libcrt_common.a(lib_a-fprintf.o)
 .debug_pubtypes
                0x00000000000019ba      0x1c8 /Users/jkwang/Desktop/nacl_sdk/pepper_canary/toolchain/mac_pnacl/bin/../x86_64-nacl/lib32/libcrt_common.a(lib_a-fwalk.o)
 .debug_pubtypes
                0x0000000000001b82      0x1e9 /Users/jkwang/Desktop/nacl_sdk/pepper_canary/toolchain/mac_pnacl/bin/../x86_64-nacl/lib32/libcrt_common.a(lib_a-fwrite.o)
 .debug_pubtypes
                0x0000000000001d6b       0x23 /Users/jkwang/Desktop/nacl_sdk/pepper_canary/toolchain/mac_pnacl/bin/../x86_64-nacl/lib32/libcrt_common.a(lib_a-getenv.o)
 .debug_pubtypes
                0x0000000000001d8e      0x1bf /Users/jkwang/Desktop/nacl_sdk/pepper_canary/toolchain/mac_pnacl/bin/../x86_64-nacl/lib32/libcrt_common.a(lib_a-getenv_r.o)
 .debug_pubtypes
                0x0000000000001f4d      0x1bf /Users/jkwang/Desktop/nacl_sdk/pepper_canary/toolchain/mac_pnacl/bin/../x86_64-nacl/lib32/libcrt_common.a(lib_a-impure.o)
 .debug_pubtypes
                0x000000000000210c       0x2e /Users/jkwang/Desktop/nacl_sdk/pepper_canary/toolchain/mac_pnacl/bin/../x86_64-nacl/lib32/libcrt_common.a(lib_a-init.o)
 .debug_pubtypes
                0x000000000000213a       0x75 /Users/jkwang/Desktop/nacl_sdk/pepper_canary/toolchain/mac_pnacl/bin/../x86_64-nacl/lib32/libcrt_common.a(lib_a-sleep.o)
 .debug_pubtypes
                0x00000000000021af      0x1e1 /Users/jkwang/Desktop/nacl_sdk/pepper_canary/toolchain/mac_pnacl/bin/../x86_64-nacl/lib32/libcrt_common.a(lib_a-stdio.o)
 .debug_pubtypes
                0x0000000000002390       0x3e /Users/jkwang/Desktop/nacl_sdk/pepper_canary/toolchain/mac_pnacl/bin/../x86_64-nacl/lib32/libcrt_common.a(lib_a-strcat.o)
 .debug_pubtypes
                0x00000000000023ce       0x58 /Users/jkwang/Desktop/nacl_sdk/pepper_canary/toolchain/mac_pnacl/bin/../x86_64-nacl/lib32/libcrt_common.a(lib_a-strcmp.o)
 .debug_pubtypes
                0x0000000000002426       0x28 /Users/jkwang/Desktop/nacl_sdk/pepper_canary/toolchain/mac_pnacl/bin/../x86_64-nacl/lib32/libcrt_common.a(lib_a-strcpy.o)
 .debug_pubtypes
                0x000000000000244e       0x74 /Users/jkwang/Desktop/nacl_sdk/pepper_canary/toolchain/mac_pnacl/bin/../x86_64-nacl/lib32/libcrt_common.a(lib_a-strncmp.o)
 .debug_pubtypes
                0x00000000000024c2      0x295 /Users/jkwang/Desktop/nacl_sdk/pepper_canary/toolchain/mac_pnacl/bin/../x86_64-nacl/lib32/libcrt_common.a(lib_a-vfprintf.o)
 .debug_pubtypes
                0x0000000000002757      0x1f5 /Users/jkwang/Desktop/nacl_sdk/pepper_canary/toolchain/mac_pnacl/bin/../x86_64-nacl/lib32/libcrt_common.a(lib_a-vsnprintf.o)
 .debug_pubtypes
                0x000000000000294c      0x1ea /Users/jkwang/Desktop/nacl_sdk/pepper_canary/toolchain/mac_pnacl/bin/../x86_64-nacl/lib32/libcrt_common.a(lib_a-vsprintf.o)
 .debug_pubtypes
                0x0000000000002b36      0x1e4 /Users/jkwang/Desktop/nacl_sdk/pepper_canary/toolchain/mac_pnacl/bin/../x86_64-nacl/lib32/libcrt_common.a(lib_a-wcrtomb.o)
 .debug_pubtypes
                0x0000000000002d1a      0x1e4 /Users/jkwang/Desktop/nacl_sdk/pepper_canary/toolchain/mac_pnacl/bin/../x86_64-nacl/lib32/libcrt_common.a(lib_a-wcsrtombs.o)
 .debug_pubtypes
                0x0000000000002efe      0x1e4 /Users/jkwang/Desktop/nacl_sdk/pepper_canary/toolchain/mac_pnacl/bin/../x86_64-nacl/lib32/libcrt_common.a(lib_a-wctomb_r.o)
 .debug_pubtypes
                0x00000000000030e2      0x1c8 /Users/jkwang/Desktop/nacl_sdk/pepper_canary/toolchain/mac_pnacl/bin/../x86_64-nacl/lib32/libcrt_common.a(lib_a-wsetup.o)
 .debug_pubtypes
                0x00000000000032aa       0x6d /Users/jkwang/Desktop/nacl_sdk/pepper_canary/toolchain/mac_pnacl/bin/../x86_64-nacl/lib32/libcrt_common.a(lib_a-__atexit.o)
 .debug_pubtypes
                0x0000000000003317       0x98 /Users/jkwang/Desktop/nacl_sdk/pepper_canary/toolchain/mac_pnacl/bin/../x86_64-nacl/lib32/libcrt_common.a(lib_a-__call_atexit.o)
 .debug_pubtypes
                0x00000000000033af      0x1ea /Users/jkwang/Desktop/nacl_sdk/pepper_canary/toolchain/mac_pnacl/bin/../x86_64-nacl/lib32/libcrt_common.a(lib_a-dtoa.o)
 .debug_pubtypes
                0x0000000000003599      0x1bf /Users/jkwang/Desktop/nacl_sdk/pepper_canary/toolchain/mac_pnacl/bin/../x86_64-nacl/lib32/libcrt_common.a(lib_a-envlock.o)
 .debug_pubtypes
                0x0000000000003758      0x1c8 /Users/jkwang/Desktop/nacl_sdk/pepper_canary/toolchain/mac_pnacl/bin/../x86_64-nacl/lib32/libcrt_common.a(lib_a-fclose.o)
 .debug_pubtypes
                0x0000000000003920      0x1e9 /Users/jkwang/Desktop/nacl_sdk/pepper_canary/toolchain/mac_pnacl/bin/../x86_64-nacl/lib32/libcrt_common.a(lib_a-fvwrite.o)
 .debug_pubtypes
                0x0000000000003b09      0x1ee /Users/jkwang/Desktop/nacl_sdk/pepper_canary/toolchain/mac_pnacl/bin/../x86_64-nacl/lib32/libcrt_common.a(lib_a-locale.o)
 .debug_pubtypes
                0x0000000000003cf7      0x2ed /Users/jkwang/Desktop/nacl_sdk/pepper_canary/toolchain/mac_pnacl/bin/../x86_64-nacl/lib32/libcrt_common.a(lib_a-makebuf.o)
 .debug_pubtypes
                0x0000000000003fe4      0x213 /Users/jkwang/Desktop/nacl_sdk/pepper_canary/toolchain/mac_pnacl/bin/../x86_64-nacl/lib32/libcrt_common.a(lib_a-mbtowc_r.o)
 .debug_pubtypes
                0x00000000000041f7      0x1ea /Users/jkwang/Desktop/nacl_sdk/pepper_canary/toolchain/mac_pnacl/bin/../x86_64-nacl/lib32/libcrt_common.a(lib_a-mprec.o)
 .debug_pubtypes
                0x00000000000043e1       0x60 /Users/jkwang/Desktop/nacl_sdk/pepper_canary/toolchain/mac_pnacl/bin/../x86_64-nacl/lib32/libcrt_common.a(lib_a-s_fpclassify.o)
 .debug_pubtypes
                0x0000000000004441       0x6e /Users/jkwang/Desktop/nacl_sdk/pepper_canary/toolchain/mac_pnacl/bin/../x86_64-nacl/lib32/libcrt_common.a(lib_a-s_frexp.o)
 .debug_pubtypes
                0x00000000000044af       0x35 /Users/jkwang/Desktop/nacl_sdk/pepper_canary/toolchain/mac_pnacl/bin/../x86_64-nacl/lib32/libcrt_common.a(lib_a-strcasecmp.o)
 .debug_pubtypes
                0x00000000000044e4       0x37 /Users/jkwang/Desktop/nacl_sdk/pepper_canary/toolchain/mac_pnacl/bin/../x86_64-nacl/lib32/libcrt_common.a(lib_a-strlcpy.o)
 .debug_pubtypes
                0x000000000000451b       0x51 /Users/jkwang/Desktop/nacl_sdk/pepper_canary/toolchain/mac_pnacl/bin/../x86_64-nacl/lib32/libcrt_common.a(lib_a-strncasecmp.o)
 .debug_pubtypes
                0x000000000000456c       0x44 /Users/jkwang/Desktop/nacl_sdk/pepper_canary/toolchain/mac_pnacl/bin/../x86_64-nacl/lib32/libcrt_common.a(lib_a-strncpy.o)
 .debug_pubtypes
                0x00000000000045b0      0x1bf /Users/jkwang/Desktop/nacl_sdk/pepper_canary/toolchain/mac_pnacl/bin/../x86_64-nacl/lib32/libcrt_common.a(lib_a-strtol.o)
 .debug_pubtypes
                0x000000000000476f      0x295 /Users/jkwang/Desktop/nacl_sdk/pepper_canary/toolchain/mac_pnacl/bin/../x86_64-nacl/lib32/libcrt_common.a(lib_a-svfprintf.o)
 .debug_pubtypes
                0x0000000000004a04      0x26a /Users/jkwang/Desktop/nacl_sdk/pepper_canary/toolchain/mac_pnacl/bin/../x86_64-nacl/lib32/libcrt_common.a(lib_a-vfiprintf.o)
 .debug_pubtypes
                0x0000000000004c6e      0x1e4 /Users/jkwang/Desktop/nacl_sdk/pepper_canary/toolchain/mac_pnacl/bin/../x86_64-nacl/lib32/libcrt_common.a(lib_a-wcsnrtombs.o)
 .debug_pubtypes
                0x0000000000004e52       0x1b /Users/jkwang/Desktop/nacl_sdk/pepper_canary/toolchain/mac_pnacl/bin/../x86_64-nacl/lib32/libcrt_common.a(lib_a-ctype_.o)
 .debug_pubtypes
                0x0000000000004e6d      0x1df /Users/jkwang/Desktop/nacl_sdk/pepper_canary/toolchain/mac_pnacl/bin/../x86_64-nacl/lib32/libcrt_common.a(lib_a-fputwc.o)
 .debug_pubtypes
                0x000000000000504c      0x26a /Users/jkwang/Desktop/nacl_sdk/pepper_canary/toolchain/mac_pnacl/bin/../x86_64-nacl/lib32/libcrt_common.a(lib_a-svfiprintf.o)
 .debug_pubtypes
                0x00000000000052b6      0x1c8 /Users/jkwang/Desktop/nacl_sdk/pepper_canary/toolchain/mac_pnacl/bin/../x86_64-nacl/lib32/libcrt_common.a(lib_a-wbuf.o)
 .debug_pubtypes
                0x000000000000547e       0x1a /Users/jkwang/Desktop/nacl_sdk/pepper_canary/toolchain/mac_pnacl/bin/../x86_64-nacl/lib32/libnacl.a(close.o)
 .debug_pubtypes
                0x0000000000005498      0x18b /Users/jkwang/Desktop/nacl_sdk/pepper_canary/toolchain/mac_pnacl/bin/../x86_64-nacl/lib32/libnacl.a(fstat.o)
 .debug_pubtypes
                0x0000000000005623       0x1a /Users/jkwang/Desktop/nacl_sdk/pepper_canary/toolchain/mac_pnacl/bin/../x86_64-nacl/lib32/libnacl.a(isatty.o)
 .debug_pubtypes
                0x000000000000563d       0x4f /Users/jkwang/Desktop/nacl_sdk/pepper_canary/toolchain/mac_pnacl/bin/../x86_64-nacl/lib32/libnacl.a(lseek.o)
 .debug_pubtypes
                0x000000000000568c       0x6c /Users/jkwang/Desktop/nacl_sdk/pepper_canary/toolchain/mac_pnacl/bin/../x86_64-nacl/lib32/libnacl.a(nanosleep.o)
 .debug_pubtypes
                0x00000000000056f8       0x36 /Users/jkwang/Desktop/nacl_sdk/pepper_canary/toolchain/mac_pnacl/bin/../x86_64-nacl/lib32/libnacl.a(read.o)

.debug_ranges   0x0000000000000000     0x23b0
 *(.debug_ranges)
 .debug_ranges  0x0000000000000000       0x30 clang-newlib/Release/debugging_x86_32.o
 .debug_ranges  0x0000000000000030       0x18 /Users/jkwang/Desktop/nacl_sdk/pepper_canary/lib/clang-newlib_x86_32/Release/liberror_handling.a(error_handling_x86_32.o)
 .debug_ranges  0x0000000000000048        0x0 /Users/jkwang/Desktop/nacl_sdk/pepper_canary/lib/clang-newlib_x86_32/Release/liberror_handling.a(string_stream_x86_32.o)
 .debug_ranges  0x0000000000000048      0x158 /Users/jkwang/Desktop/nacl_sdk/pepper_canary/toolchain/mac_pnacl/bin/../x86_64-nacl/lib32/libpthread.a(nc_thread.o)
 .debug_ranges  0x00000000000001a0       0xc0 /Users/jkwang/Desktop/nacl_sdk/pepper_canary/toolchain/mac_pnacl/bin/../x86_64-nacl/lib32/libpthread.a(nc_mutex.o)
 .debug_ranges  0x0000000000000260        0x0 /Users/jkwang/Desktop/nacl_sdk/pepper_canary/toolchain/mac_pnacl/bin/../x86_64-nacl/lib32/libpthread.a(nc_condvar.o)
 .debug_ranges  0x0000000000000260        0x0 /Users/jkwang/Desktop/nacl_sdk/pepper_canary/toolchain/mac_pnacl/bin/../x86_64-nacl/lib32/libpthread.a(valgrind_annotations.o)
 .debug_ranges  0x0000000000000260        0x0 /Users/jkwang/Desktop/nacl_sdk/pepper_canary/toolchain/mac_pnacl/bin/../x86_64-nacl/lib32/libpthread.a(nc_init_irt.o)
 .debug_ranges  0x0000000000000260       0x18 /Users/jkwang/Desktop/nacl_sdk/pepper_canary/toolchain/mac_pnacl/bin/../x86_64-nacl/lib32/libnacl.a(nacl_irt.o)
 .debug_ranges  0x0000000000000278        0x0 /Users/jkwang/Desktop/nacl_sdk/pepper_canary/toolchain/mac_pnacl/bin/../x86_64-nacl/lib32/libnacl.a(_exit.o)
 .debug_ranges  0x0000000000000278        0x0 /Users/jkwang/Desktop/nacl_sdk/pepper_canary/toolchain/mac_pnacl/bin/../x86_64-nacl/lib32/libnacl.a(mmap.o)
 .debug_ranges  0x0000000000000278        0x0 /Users/jkwang/Desktop/nacl_sdk/pepper_canary/toolchain/mac_pnacl/bin/../x86_64-nacl/lib32/libnacl.a(munmap.o)
 .debug_ranges  0x0000000000000278        0x0 /Users/jkwang/Desktop/nacl_sdk/pepper_canary/toolchain/mac_pnacl/bin/../x86_64-nacl/lib32/libnacl.a(nacl_interface_query.o)
 .debug_ranges  0x0000000000000278        0x0 /Users/jkwang/Desktop/nacl_sdk/pepper_canary/toolchain/mac_pnacl/bin/../x86_64-nacl/lib32/libnacl.a(write.o)
 .debug_ranges  0x0000000000000278        0x0 /Users/jkwang/Desktop/nacl_sdk/pepper_canary/toolchain/mac_pnacl/bin/../x86_64-nacl/lib32/libnacl.a(environ.o)
 .debug_ranges  0x0000000000000278     0x1268 /Users/jkwang/Desktop/nacl_sdk/pepper_canary/toolchain/mac_pnacl/bin/../x86_64-nacl/lib32/libnacl.a(malloc.o)
 .debug_ranges  0x00000000000014e0        0x0 /Users/jkwang/Desktop/nacl_sdk/pepper_canary/toolchain/mac_pnacl/bin/../x86_64-nacl/lib32/libnacl.a(start.o)
 .debug_ranges  0x00000000000014e0        0x0 /Users/jkwang/Desktop/nacl_sdk/pepper_canary/toolchain/mac_pnacl/bin/../x86_64-nacl/lib32/libnacl.a(nacl_read_tp.o)
 .debug_ranges  0x00000000000014e0        0x0 /Users/jkwang/Desktop/nacl_sdk/pepper_canary/toolchain/mac_pnacl/bin/../x86_64-nacl/lib32/libnacl.a(pthread_initialize_minimal.o)
 .debug_ranges  0x00000000000014e0       0xe0 /Users/jkwang/Desktop/nacl_sdk/pepper_canary/toolchain/mac_pnacl/bin/../x86_64-nacl/lib32/libnacl.a(tls.o)
 .debug_ranges  0x00000000000015c0        0x0 /Users/jkwang/Desktop/nacl_sdk/pepper_canary/toolchain/mac_pnacl/bin/../x86_64-nacl/lib32/libnacl.a(nacl_irt_init.o)
 .debug_ranges  0x00000000000015c0        0x0 /Users/jkwang/Desktop/nacl_sdk/pepper_canary/toolchain/mac_pnacl/bin/../x86_64-nacl/lib32/libnacl.a(nacl_tls_get.o)
 .debug_ranges  0x00000000000015c0        0x0 /Users/jkwang/Desktop/nacl_sdk/pepper_canary/toolchain/mac_pnacl/bin/../x86_64-nacl/lib32/libnacl.a(nacl_tls_init.o)
 .debug_ranges  0x00000000000015c0        0x0 /Users/jkwang/Desktop/nacl_sdk/pepper_canary/toolchain/mac_pnacl/bin/../x86_64-nacl/lib32/libnacl.a(abort.o)
 .debug_ranges  0x00000000000015c0        0x0 /Users/jkwang/Desktop/nacl_sdk/pepper_canary/toolchain/mac_pnacl/bin/../x86_64-nacl/lib32/libnacl.a(sched_yield.o)
 .debug_ranges  0x00000000000015c0        0x0 /Users/jkwang/Desktop/nacl_sdk/pepper_canary/toolchain/mac_pnacl/bin/../x86_64-nacl/lib32/libnacl.a(sysconf.o)
 .debug_ranges  0x00000000000015c0        0x0 /Users/jkwang/Desktop/nacl_sdk/pepper_canary/toolchain/mac_pnacl/bin/../x86_64-nacl/lib32/libcrt_common.a(lib_a-atexit.o)
 .debug_ranges  0x00000000000015c0        0x0 /Users/jkwang/Desktop/nacl_sdk/pepper_canary/toolchain/mac_pnacl/bin/../x86_64-nacl/lib32/libcrt_common.a(lib_a-errno.o)
 .debug_ranges  0x00000000000015c0        0x0 /Users/jkwang/Desktop/nacl_sdk/pepper_canary/toolchain/mac_pnacl/bin/../x86_64-nacl/lib32/libcrt_common.a(lib_a-exit.o)
 .debug_ranges  0x00000000000015c0       0x58 /Users/jkwang/Desktop/nacl_sdk/pepper_canary/toolchain/mac_pnacl/bin/../x86_64-nacl/lib32/libcrt_common.a(lib_a-fflush.o)
 .debug_ranges  0x0000000000001618       0x88 /Users/jkwang/Desktop/nacl_sdk/pepper_canary/toolchain/mac_pnacl/bin/../x86_64-nacl/lib32/libcrt_common.a(lib_a-findfp.o)
 .debug_ranges  0x00000000000016a0        0x0 /Users/jkwang/Desktop/nacl_sdk/pepper_canary/toolchain/mac_pnacl/bin/../x86_64-nacl/lib32/libcrt_common.a(lib_a-fini.o)
 .debug_ranges  0x00000000000016a0       0x18 /Users/jkwang/Desktop/nacl_sdk/pepper_canary/toolchain/mac_pnacl/bin/../x86_64-nacl/lib32/libcrt_common.a(lib_a-fprintf.o)
 .debug_ranges  0x00000000000016b8       0x30 /Users/jkwang/Desktop/nacl_sdk/pepper_canary/toolchain/mac_pnacl/bin/../x86_64-nacl/lib32/libcrt_common.a(lib_a-fwalk.o)
 .debug_ranges  0x00000000000016e8       0x18 /Users/jkwang/Desktop/nacl_sdk/pepper_canary/toolchain/mac_pnacl/bin/../x86_64-nacl/lib32/libcrt_common.a(lib_a-fwrite.o)
 .debug_ranges  0x0000000000001700       0x18 /Users/jkwang/Desktop/nacl_sdk/pepper_canary/toolchain/mac_pnacl/bin/../x86_64-nacl/lib32/libcrt_common.a(lib_a-getenv.o)
 .debug_ranges  0x0000000000001718       0x18 /Users/jkwang/Desktop/nacl_sdk/pepper_canary/toolchain/mac_pnacl/bin/../x86_64-nacl/lib32/libcrt_common.a(lib_a-getenv_r.o)
 .debug_ranges  0x0000000000001730       0x18 /Users/jkwang/Desktop/nacl_sdk/pepper_canary/toolchain/mac_pnacl/bin/../x86_64-nacl/lib32/libcrt_common.a(lib_a-impure.o)
 .debug_ranges  0x0000000000001748        0x0 /Users/jkwang/Desktop/nacl_sdk/pepper_canary/toolchain/mac_pnacl/bin/../x86_64-nacl/lib32/libcrt_common.a(lib_a-init.o)
 .debug_ranges  0x0000000000001748        0x0 /Users/jkwang/Desktop/nacl_sdk/pepper_canary/toolchain/mac_pnacl/bin/../x86_64-nacl/lib32/libcrt_common.a(lib_a-sleep.o)
 .debug_ranges  0x0000000000001748       0x30 /Users/jkwang/Desktop/nacl_sdk/pepper_canary/toolchain/mac_pnacl/bin/../x86_64-nacl/lib32/libcrt_common.a(lib_a-stdio.o)
 .debug_ranges  0x0000000000001778        0x0 /Users/jkwang/Desktop/nacl_sdk/pepper_canary/toolchain/mac_pnacl/bin/../x86_64-nacl/lib32/libcrt_common.a(lib_a-strcat.o)
 .debug_ranges  0x0000000000001778        0x0 /Users/jkwang/Desktop/nacl_sdk/pepper_canary/toolchain/mac_pnacl/bin/../x86_64-nacl/lib32/libcrt_common.a(lib_a-strcmp.o)
 .debug_ranges  0x0000000000001778        0x0 /Users/jkwang/Desktop/nacl_sdk/pepper_canary/toolchain/mac_pnacl/bin/../x86_64-nacl/lib32/libcrt_common.a(lib_a-strcpy.o)
 .debug_ranges  0x0000000000001778        0x0 /Users/jkwang/Desktop/nacl_sdk/pepper_canary/toolchain/mac_pnacl/bin/../x86_64-nacl/lib32/libcrt_common.a(lib_a-strncmp.o)
 .debug_ranges  0x0000000000001778      0x140 /Users/jkwang/Desktop/nacl_sdk/pepper_canary/toolchain/mac_pnacl/bin/../x86_64-nacl/lib32/libcrt_common.a(lib_a-vfprintf.o)
 .debug_ranges  0x00000000000018b8       0x18 /Users/jkwang/Desktop/nacl_sdk/pepper_canary/toolchain/mac_pnacl/bin/../x86_64-nacl/lib32/libcrt_common.a(lib_a-vsnprintf.o)
 .debug_ranges  0x00000000000018d0       0x18 /Users/jkwang/Desktop/nacl_sdk/pepper_canary/toolchain/mac_pnacl/bin/../x86_64-nacl/lib32/libcrt_common.a(lib_a-vsprintf.o)
 .debug_ranges  0x00000000000018e8       0x18 /Users/jkwang/Desktop/nacl_sdk/pepper_canary/toolchain/mac_pnacl/bin/../x86_64-nacl/lib32/libcrt_common.a(lib_a-wcrtomb.o)
 .debug_ranges  0x0000000000001900       0x18 /Users/jkwang/Desktop/nacl_sdk/pepper_canary/toolchain/mac_pnacl/bin/../x86_64-nacl/lib32/libcrt_common.a(lib_a-wcsrtombs.o)
 .debug_ranges  0x0000000000001918       0x38 /Users/jkwang/Desktop/nacl_sdk/pepper_canary/toolchain/mac_pnacl/bin/../x86_64-nacl/lib32/libcrt_common.a(lib_a-wctomb_r.o)
 .debug_ranges  0x0000000000001950        0x0 /Users/jkwang/Desktop/nacl_sdk/pepper_canary/toolchain/mac_pnacl/bin/../x86_64-nacl/lib32/libcrt_common.a(lib_a-wsetup.o)
 .debug_ranges  0x0000000000001950        0x0 /Users/jkwang/Desktop/nacl_sdk/pepper_canary/toolchain/mac_pnacl/bin/../x86_64-nacl/lib32/libcrt_common.a(lib_a-__atexit.o)
 .debug_ranges  0x0000000000001950        0x0 /Users/jkwang/Desktop/nacl_sdk/pepper_canary/toolchain/mac_pnacl/bin/../x86_64-nacl/lib32/libcrt_common.a(lib_a-__call_atexit.o)
 .debug_ranges  0x0000000000001950       0x18 /Users/jkwang/Desktop/nacl_sdk/pepper_canary/toolchain/mac_pnacl/bin/../x86_64-nacl/lib32/libcrt_common.a(lib_a-dtoa.o)
 .debug_ranges  0x0000000000001968       0x18 /Users/jkwang/Desktop/nacl_sdk/pepper_canary/toolchain/mac_pnacl/bin/../x86_64-nacl/lib32/libcrt_common.a(lib_a-envlock.o)
 .debug_ranges  0x0000000000001980       0x18 /Users/jkwang/Desktop/nacl_sdk/pepper_canary/toolchain/mac_pnacl/bin/../x86_64-nacl/lib32/libcrt_common.a(lib_a-fclose.o)
 .debug_ranges  0x0000000000001998       0x20 /Users/jkwang/Desktop/nacl_sdk/pepper_canary/toolchain/mac_pnacl/bin/../x86_64-nacl/lib32/libcrt_common.a(lib_a-fvwrite.o)
 .debug_ranges  0x00000000000019b8       0x58 /Users/jkwang/Desktop/nacl_sdk/pepper_canary/toolchain/mac_pnacl/bin/../x86_64-nacl/lib32/libcrt_common.a(lib_a-locale.o)
 .debug_ranges  0x0000000000001a10        0x0 /Users/jkwang/Desktop/nacl_sdk/pepper_canary/toolchain/mac_pnacl/bin/../x86_64-nacl/lib32/libcrt_common.a(lib_a-makebuf.o)
 .debug_ranges  0x0000000000001a10       0x78 /Users/jkwang/Desktop/nacl_sdk/pepper_canary/toolchain/mac_pnacl/bin/../x86_64-nacl/lib32/libcrt_common.a(lib_a-mbtowc_r.o)
 .debug_ranges  0x0000000000001a88      0x208 /Users/jkwang/Desktop/nacl_sdk/pepper_canary/toolchain/mac_pnacl/bin/../x86_64-nacl/lib32/libcrt_common.a(lib_a-mprec.o)
 .debug_ranges  0x0000000000001c90        0x0 /Users/jkwang/Desktop/nacl_sdk/pepper_canary/toolchain/mac_pnacl/bin/../x86_64-nacl/lib32/libcrt_common.a(lib_a-s_fpclassify.o)
 .debug_ranges  0x0000000000001c90        0x0 /Users/jkwang/Desktop/nacl_sdk/pepper_canary/toolchain/mac_pnacl/bin/../x86_64-nacl/lib32/libcrt_common.a(lib_a-s_frexp.o)
 .debug_ranges  0x0000000000001c90       0x30 /Users/jkwang/Desktop/nacl_sdk/pepper_canary/toolchain/mac_pnacl/bin/../x86_64-nacl/lib32/libcrt_common.a(lib_a-strcasecmp.o)
 .debug_ranges  0x0000000000001cc0        0x0 /Users/jkwang/Desktop/nacl_sdk/pepper_canary/toolchain/mac_pnacl/bin/../x86_64-nacl/lib32/libcrt_common.a(lib_a-strlcpy.o)
 .debug_ranges  0x0000000000001cc0       0x30 /Users/jkwang/Desktop/nacl_sdk/pepper_canary/toolchain/mac_pnacl/bin/../x86_64-nacl/lib32/libcrt_common.a(lib_a-strncasecmp.o)
 .debug_ranges  0x0000000000001cf0        0x0 /Users/jkwang/Desktop/nacl_sdk/pepper_canary/toolchain/mac_pnacl/bin/../x86_64-nacl/lib32/libcrt_common.a(lib_a-strncpy.o)
 .debug_ranges  0x0000000000001cf0       0x18 /Users/jkwang/Desktop/nacl_sdk/pepper_canary/toolchain/mac_pnacl/bin/../x86_64-nacl/lib32/libcrt_common.a(lib_a-strtol.o)
 .debug_ranges  0x0000000000001d08      0x110 /Users/jkwang/Desktop/nacl_sdk/pepper_canary/toolchain/mac_pnacl/bin/../x86_64-nacl/lib32/libcrt_common.a(lib_a-svfprintf.o)
 .debug_ranges  0x0000000000001e18      0x1f0 /Users/jkwang/Desktop/nacl_sdk/pepper_canary/toolchain/mac_pnacl/bin/../x86_64-nacl/lib32/libcrt_common.a(lib_a-vfiprintf.o)
 .debug_ranges  0x0000000000002008       0x30 /Users/jkwang/Desktop/nacl_sdk/pepper_canary/toolchain/mac_pnacl/bin/../x86_64-nacl/lib32/libcrt_common.a(lib_a-wcsnrtombs.o)
 .debug_ranges  0x0000000000002038        0x0 /Users/jkwang/Desktop/nacl_sdk/pepper_canary/toolchain/mac_pnacl/bin/../x86_64-nacl/lib32/libcrt_common.a(lib_a-ctype_.o)
 .debug_ranges  0x0000000000002038       0x30 /Users/jkwang/Desktop/nacl_sdk/pepper_canary/toolchain/mac_pnacl/bin/../x86_64-nacl/lib32/libcrt_common.a(lib_a-fputwc.o)
 .debug_ranges  0x0000000000002068       0x78 /Users/jkwang/Desktop/nacl_sdk/pepper_canary/toolchain/mac_pnacl/bin/../x86_64-nacl/lib32/libcrt_common.a(lib_a-svfiprintf.o)
 .debug_ranges  0x00000000000020e0       0x18 /Users/jkwang/Desktop/nacl_sdk/pepper_canary/toolchain/mac_pnacl/bin/../x86_64-nacl/lib32/libcrt_common.a(lib_a-wbuf.o)
 .debug_ranges  0x00000000000020f8        0x0 /Users/jkwang/Desktop/nacl_sdk/pepper_canary/toolchain/mac_pnacl/bin/../x86_64-nacl/lib32/libnacl.a(close.o)
 .debug_ranges  0x00000000000020f8        0x0 /Users/jkwang/Desktop/nacl_sdk/pepper_canary/toolchain/mac_pnacl/bin/../x86_64-nacl/lib32/libnacl.a(fstat.o)
 .debug_ranges  0x00000000000020f8        0x0 /Users/jkwang/Desktop/nacl_sdk/pepper_canary/toolchain/mac_pnacl/bin/../x86_64-nacl/lib32/libnacl.a(isatty.o)
 .debug_ranges  0x00000000000020f8        0x0 /Users/jkwang/Desktop/nacl_sdk/pepper_canary/toolchain/mac_pnacl/bin/../x86_64-nacl/lib32/libnacl.a(lseek.o)
 .debug_ranges  0x00000000000020f8        0x0 /Users/jkwang/Desktop/nacl_sdk/pepper_canary/toolchain/mac_pnacl/bin/../x86_64-nacl/lib32/libnacl.a(nanosleep.o)
 .debug_ranges  0x00000000000020f8        0x0 /Users/jkwang/Desktop/nacl_sdk/pepper_canary/toolchain/mac_pnacl/bin/../x86_64-nacl/lib32/libnacl.a(nacl_irt_fdio.o)
 .debug_ranges  0x00000000000020f8        0x0 /Users/jkwang/Desktop/nacl_sdk/pepper_canary/toolchain/mac_pnacl/bin/../x86_64-nacl/lib32/libnacl.a(read.o)
 .debug_ranges  0x00000000000020f8      0x2b8 /Users/jkwang/Desktop/nacl_sdk/pepper_canary/toolchain/mac_pnacl/bin/../lib/clang/3.7.0/lib/i686-nacl/libgcc_eh.a(unwind-dw2-fde-glibc.o)

.debug_macro
 *(.debug_macro)

.gnu.attributes
 *(.gnu.attributes)

/DISCARD/
 *(.note.GNU-stack)
 *(.gnu_debuglink)
 *(.gnu.lto_*)
OUTPUT(clang-newlib/Release/debugging_unstripped_x86_32.nexe elf32-i386-nacl)
